
NUCLEO-F411RE.elf:     file format elf32-littlearm

Sections:
Idx Name          Size      VMA       LMA       File off  Algn
  0 .isr_vector   00000198  08000000  08000000  00010000  2**0
                  CONTENTS, ALLOC, LOAD, READONLY, DATA
  1 .text         0000aec8  080001a0  080001a0  000101a0  2**4
                  CONTENTS, ALLOC, LOAD, READONLY, CODE
  2 .rodata       00000ba8  0800b068  0800b068  0001b068  2**3
                  CONTENTS, ALLOC, LOAD, READONLY, DATA
  3 .ARM.extab    00000000  0800bc10  0800bc10  00020264  2**0
                  CONTENTS
  4 .ARM          00000008  0800bc10  0800bc10  0001bc10  2**2
                  CONTENTS, ALLOC, LOAD, READONLY, DATA
  5 .preinit_array 00000000  0800bc18  0800bc18  00020264  2**0
                  CONTENTS, ALLOC, LOAD, DATA
  6 .init_array   00000004  0800bc18  0800bc18  0001bc18  2**2
                  CONTENTS, ALLOC, LOAD, DATA
  7 .fini_array   00000004  0800bc1c  0800bc1c  0001bc1c  2**2
                  CONTENTS, ALLOC, LOAD, DATA
  8 .data         000001e4  20000080  0800bc20  00020080  2**2
                  CONTENTS, ALLOC, LOAD, DATA
  9 .noinit       00000044  20000000  20000000  00030000  2**2
                  ALLOC
 10 .ip_code      00000000  08060000  08060000  00020264  2**0
                  CONTENTS
 11 .bss          00001090  20000264  20000264  00020264  2**2
                  ALLOC
 12 ._user_heap_stack 00000604  200012f4  200012f4  00020264  2**0
                  ALLOC
 13 .ARM.attributes 00000030  00000000  00000000  00020264  2**0
                  CONTENTS, READONLY
 14 .comment      0000007b  00000000  00000000  00020294  2**0
                  CONTENTS, READONLY
 15 .debug_frame  00000cdc  00000000  00000000  00020310  2**2
                  CONTENTS, READONLY, DEBUGGING

Disassembly of section .text:

080001a0 <__do_global_dtors_aux>:
 80001a0:	b510      	push	{r4, lr}
 80001a2:	4c05      	ldr	r4, [pc, #20]	; (80001b8 <__do_global_dtors_aux+0x18>)
 80001a4:	7823      	ldrb	r3, [r4, #0]
 80001a6:	b933      	cbnz	r3, 80001b6 <__do_global_dtors_aux+0x16>
 80001a8:	4b04      	ldr	r3, [pc, #16]	; (80001bc <__do_global_dtors_aux+0x1c>)
 80001aa:	b113      	cbz	r3, 80001b2 <__do_global_dtors_aux+0x12>
 80001ac:	4804      	ldr	r0, [pc, #16]	; (80001c0 <__do_global_dtors_aux+0x20>)
 80001ae:	f3af 8000 	nop.w
 80001b2:	2301      	movs	r3, #1
 80001b4:	7023      	strb	r3, [r4, #0]
 80001b6:	bd10      	pop	{r4, pc}
 80001b8:	20000264 	.word	0x20000264
 80001bc:	00000000 	.word	0x00000000
 80001c0:	0800b050 	.word	0x0800b050

080001c4 <frame_dummy>:
 80001c4:	b508      	push	{r3, lr}
 80001c6:	4b03      	ldr	r3, [pc, #12]	; (80001d4 <frame_dummy+0x10>)
 80001c8:	b11b      	cbz	r3, 80001d2 <frame_dummy+0xe>
 80001ca:	4903      	ldr	r1, [pc, #12]	; (80001d8 <frame_dummy+0x14>)
 80001cc:	4803      	ldr	r0, [pc, #12]	; (80001dc <frame_dummy+0x18>)
 80001ce:	f3af 8000 	nop.w
 80001d2:	bd08      	pop	{r3, pc}
 80001d4:	00000000 	.word	0x00000000
 80001d8:	20000268 	.word	0x20000268
 80001dc:	0800b050 	.word	0x0800b050

080001e0 <strlen>:
 80001e0:	4603      	mov	r3, r0
 80001e2:	f813 2b01 	ldrb.w	r2, [r3], #1
 80001e6:	2a00      	cmp	r2, #0
 80001e8:	d1fb      	bne.n	80001e2 <strlen+0x2>
 80001ea:	1a18      	subs	r0, r3, r0
 80001ec:	3801      	subs	r0, #1
 80001ee:	4770      	bx	lr

080001f0 <memchr>:
 80001f0:	f001 01ff 	and.w	r1, r1, #255	; 0xff
 80001f4:	2a10      	cmp	r2, #16
 80001f6:	db2b      	blt.n	8000250 <memchr+0x60>
 80001f8:	f010 0f07 	tst.w	r0, #7
 80001fc:	d008      	beq.n	8000210 <memchr+0x20>
 80001fe:	f810 3b01 	ldrb.w	r3, [r0], #1
 8000202:	3a01      	subs	r2, #1
 8000204:	428b      	cmp	r3, r1
 8000206:	d02d      	beq.n	8000264 <memchr+0x74>
 8000208:	f010 0f07 	tst.w	r0, #7
 800020c:	b342      	cbz	r2, 8000260 <memchr+0x70>
 800020e:	d1f6      	bne.n	80001fe <memchr+0xe>
 8000210:	b4f0      	push	{r4, r5, r6, r7}
 8000212:	ea41 2101 	orr.w	r1, r1, r1, lsl #8
 8000216:	ea41 4101 	orr.w	r1, r1, r1, lsl #16
 800021a:	f022 0407 	bic.w	r4, r2, #7
 800021e:	f07f 0700 	mvns.w	r7, #0
 8000222:	2300      	movs	r3, #0
 8000224:	e8f0 5602 	ldrd	r5, r6, [r0], #8
 8000228:	3c08      	subs	r4, #8
 800022a:	ea85 0501 	eor.w	r5, r5, r1
 800022e:	ea86 0601 	eor.w	r6, r6, r1
 8000232:	fa85 f547 	uadd8	r5, r5, r7
 8000236:	faa3 f587 	sel	r5, r3, r7
 800023a:	fa86 f647 	uadd8	r6, r6, r7
 800023e:	faa5 f687 	sel	r6, r5, r7
 8000242:	b98e      	cbnz	r6, 8000268 <memchr+0x78>
 8000244:	d1ee      	bne.n	8000224 <memchr+0x34>
 8000246:	bcf0      	pop	{r4, r5, r6, r7}
 8000248:	f001 01ff 	and.w	r1, r1, #255	; 0xff
 800024c:	f002 0207 	and.w	r2, r2, #7
 8000250:	b132      	cbz	r2, 8000260 <memchr+0x70>
 8000252:	f810 3b01 	ldrb.w	r3, [r0], #1
 8000256:	3a01      	subs	r2, #1
 8000258:	ea83 0301 	eor.w	r3, r3, r1
 800025c:	b113      	cbz	r3, 8000264 <memchr+0x74>
 800025e:	d1f8      	bne.n	8000252 <memchr+0x62>
 8000260:	2000      	movs	r0, #0
 8000262:	4770      	bx	lr
 8000264:	3801      	subs	r0, #1
 8000266:	4770      	bx	lr
 8000268:	2d00      	cmp	r5, #0
 800026a:	bf06      	itte	eq
 800026c:	4635      	moveq	r5, r6
 800026e:	3803      	subeq	r0, #3
 8000270:	3807      	subne	r0, #7
 8000272:	f015 0f01 	tst.w	r5, #1
 8000276:	d107      	bne.n	8000288 <memchr+0x98>
 8000278:	3001      	adds	r0, #1
 800027a:	f415 7f80 	tst.w	r5, #256	; 0x100
 800027e:	bf02      	ittt	eq
 8000280:	3001      	addeq	r0, #1
 8000282:	f415 3fc0 	tsteq.w	r5, #98304	; 0x18000
 8000286:	3001      	addeq	r0, #1
 8000288:	bcf0      	pop	{r4, r5, r6, r7}
 800028a:	3801      	subs	r0, #1
 800028c:	4770      	bx	lr
 800028e:	bf00      	nop

08000290 <__aeabi_drsub>:
 8000290:	f081 4100 	eor.w	r1, r1, #2147483648	; 0x80000000
 8000294:	e002      	b.n	800029c <__adddf3>
 8000296:	bf00      	nop

08000298 <__aeabi_dsub>:
 8000298:	f083 4300 	eor.w	r3, r3, #2147483648	; 0x80000000

0800029c <__adddf3>:
 800029c:	b530      	push	{r4, r5, lr}
 800029e:	ea4f 0441 	mov.w	r4, r1, lsl #1
 80002a2:	ea4f 0543 	mov.w	r5, r3, lsl #1
 80002a6:	ea94 0f05 	teq	r4, r5
 80002aa:	bf08      	it	eq
 80002ac:	ea90 0f02 	teqeq	r0, r2
 80002b0:	bf1f      	itttt	ne
 80002b2:	ea54 0c00 	orrsne.w	ip, r4, r0
 80002b6:	ea55 0c02 	orrsne.w	ip, r5, r2
 80002ba:	ea7f 5c64 	mvnsne.w	ip, r4, asr #21
 80002be:	ea7f 5c65 	mvnsne.w	ip, r5, asr #21
 80002c2:	f000 80e2 	beq.w	800048a <__adddf3+0x1ee>
 80002c6:	ea4f 5454 	mov.w	r4, r4, lsr #21
 80002ca:	ebd4 5555 	rsbs	r5, r4, r5, lsr #21
 80002ce:	bfb8      	it	lt
 80002d0:	426d      	neglt	r5, r5
 80002d2:	dd0c      	ble.n	80002ee <__adddf3+0x52>
 80002d4:	442c      	add	r4, r5
 80002d6:	ea80 0202 	eor.w	r2, r0, r2
 80002da:	ea81 0303 	eor.w	r3, r1, r3
 80002de:	ea82 0000 	eor.w	r0, r2, r0
 80002e2:	ea83 0101 	eor.w	r1, r3, r1
 80002e6:	ea80 0202 	eor.w	r2, r0, r2
 80002ea:	ea81 0303 	eor.w	r3, r1, r3
 80002ee:	2d36      	cmp	r5, #54	; 0x36
 80002f0:	bf88      	it	hi
 80002f2:	bd30      	pophi	{r4, r5, pc}
 80002f4:	f011 4f00 	tst.w	r1, #2147483648	; 0x80000000
 80002f8:	ea4f 3101 	mov.w	r1, r1, lsl #12
 80002fc:	f44f 1c80 	mov.w	ip, #1048576	; 0x100000
 8000300:	ea4c 3111 	orr.w	r1, ip, r1, lsr #12
 8000304:	d002      	beq.n	800030c <__adddf3+0x70>
 8000306:	4240      	negs	r0, r0
 8000308:	eb61 0141 	sbc.w	r1, r1, r1, lsl #1
 800030c:	f013 4f00 	tst.w	r3, #2147483648	; 0x80000000
 8000310:	ea4f 3303 	mov.w	r3, r3, lsl #12
 8000314:	ea4c 3313 	orr.w	r3, ip, r3, lsr #12
 8000318:	d002      	beq.n	8000320 <__adddf3+0x84>
 800031a:	4252      	negs	r2, r2
 800031c:	eb63 0343 	sbc.w	r3, r3, r3, lsl #1
 8000320:	ea94 0f05 	teq	r4, r5
 8000324:	f000 80a7 	beq.w	8000476 <__adddf3+0x1da>
 8000328:	f1a4 0401 	sub.w	r4, r4, #1
 800032c:	f1d5 0e20 	rsbs	lr, r5, #32
 8000330:	db0d      	blt.n	800034e <__adddf3+0xb2>
 8000332:	fa02 fc0e 	lsl.w	ip, r2, lr
 8000336:	fa22 f205 	lsr.w	r2, r2, r5
 800033a:	1880      	adds	r0, r0, r2
 800033c:	f141 0100 	adc.w	r1, r1, #0
 8000340:	fa03 f20e 	lsl.w	r2, r3, lr
 8000344:	1880      	adds	r0, r0, r2
 8000346:	fa43 f305 	asr.w	r3, r3, r5
 800034a:	4159      	adcs	r1, r3
 800034c:	e00e      	b.n	800036c <__adddf3+0xd0>
 800034e:	f1a5 0520 	sub.w	r5, r5, #32
 8000352:	f10e 0e20 	add.w	lr, lr, #32
 8000356:	2a01      	cmp	r2, #1
 8000358:	fa03 fc0e 	lsl.w	ip, r3, lr
 800035c:	bf28      	it	cs
 800035e:	f04c 0c02 	orrcs.w	ip, ip, #2
 8000362:	fa43 f305 	asr.w	r3, r3, r5
 8000366:	18c0      	adds	r0, r0, r3
 8000368:	eb51 71e3 	adcs.w	r1, r1, r3, asr #31
 800036c:	f001 4500 	and.w	r5, r1, #2147483648	; 0x80000000
 8000370:	d507      	bpl.n	8000382 <__adddf3+0xe6>
 8000372:	f04f 0e00 	mov.w	lr, #0
 8000376:	f1dc 0c00 	rsbs	ip, ip, #0
 800037a:	eb7e 0000 	sbcs.w	r0, lr, r0
 800037e:	eb6e 0101 	sbc.w	r1, lr, r1
 8000382:	f5b1 1f80 	cmp.w	r1, #1048576	; 0x100000
 8000386:	d31b      	bcc.n	80003c0 <__adddf3+0x124>
 8000388:	f5b1 1f00 	cmp.w	r1, #2097152	; 0x200000
 800038c:	d30c      	bcc.n	80003a8 <__adddf3+0x10c>
 800038e:	0849      	lsrs	r1, r1, #1
 8000390:	ea5f 0030 	movs.w	r0, r0, rrx
 8000394:	ea4f 0c3c 	mov.w	ip, ip, rrx
 8000398:	f104 0401 	add.w	r4, r4, #1
 800039c:	ea4f 5244 	mov.w	r2, r4, lsl #21
 80003a0:	f512 0f80 	cmn.w	r2, #4194304	; 0x400000
 80003a4:	f080 809a 	bcs.w	80004dc <__adddf3+0x240>
 80003a8:	f1bc 4f00 	cmp.w	ip, #2147483648	; 0x80000000
 80003ac:	bf08      	it	eq
 80003ae:	ea5f 0c50 	movseq.w	ip, r0, lsr #1
 80003b2:	f150 0000 	adcs.w	r0, r0, #0
 80003b6:	eb41 5104 	adc.w	r1, r1, r4, lsl #20
 80003ba:	ea41 0105 	orr.w	r1, r1, r5
 80003be:	bd30      	pop	{r4, r5, pc}
 80003c0:	ea5f 0c4c 	movs.w	ip, ip, lsl #1
 80003c4:	4140      	adcs	r0, r0
 80003c6:	eb41 0101 	adc.w	r1, r1, r1
 80003ca:	f411 1f80 	tst.w	r1, #1048576	; 0x100000
 80003ce:	f1a4 0401 	sub.w	r4, r4, #1
 80003d2:	d1e9      	bne.n	80003a8 <__adddf3+0x10c>
 80003d4:	f091 0f00 	teq	r1, #0
 80003d8:	bf04      	itt	eq
 80003da:	4601      	moveq	r1, r0
 80003dc:	2000      	moveq	r0, #0
 80003de:	fab1 f381 	clz	r3, r1
 80003e2:	bf08      	it	eq
 80003e4:	3320      	addeq	r3, #32
 80003e6:	f1a3 030b 	sub.w	r3, r3, #11
 80003ea:	f1b3 0220 	subs.w	r2, r3, #32
 80003ee:	da0c      	bge.n	800040a <__adddf3+0x16e>
 80003f0:	320c      	adds	r2, #12
 80003f2:	dd08      	ble.n	8000406 <__adddf3+0x16a>
 80003f4:	f102 0c14 	add.w	ip, r2, #20
 80003f8:	f1c2 020c 	rsb	r2, r2, #12
 80003fc:	fa01 f00c 	lsl.w	r0, r1, ip
 8000400:	fa21 f102 	lsr.w	r1, r1, r2
 8000404:	e00c      	b.n	8000420 <__adddf3+0x184>
 8000406:	f102 0214 	add.w	r2, r2, #20
 800040a:	bfd8      	it	le
 800040c:	f1c2 0c20 	rsble	ip, r2, #32
 8000410:	fa01 f102 	lsl.w	r1, r1, r2
 8000414:	fa20 fc0c 	lsr.w	ip, r0, ip
 8000418:	bfdc      	itt	le
 800041a:	ea41 010c 	orrle.w	r1, r1, ip
 800041e:	4090      	lslle	r0, r2
 8000420:	1ae4      	subs	r4, r4, r3
 8000422:	bfa2      	ittt	ge
 8000424:	eb01 5104 	addge.w	r1, r1, r4, lsl #20
 8000428:	4329      	orrge	r1, r5
 800042a:	bd30      	popge	{r4, r5, pc}
 800042c:	ea6f 0404 	mvn.w	r4, r4
 8000430:	3c1f      	subs	r4, #31
 8000432:	da1c      	bge.n	800046e <__adddf3+0x1d2>
 8000434:	340c      	adds	r4, #12
 8000436:	dc0e      	bgt.n	8000456 <__adddf3+0x1ba>
 8000438:	f104 0414 	add.w	r4, r4, #20
 800043c:	f1c4 0220 	rsb	r2, r4, #32
 8000440:	fa20 f004 	lsr.w	r0, r0, r4
 8000444:	fa01 f302 	lsl.w	r3, r1, r2
 8000448:	ea40 0003 	orr.w	r0, r0, r3
 800044c:	fa21 f304 	lsr.w	r3, r1, r4
 8000450:	ea45 0103 	orr.w	r1, r5, r3
 8000454:	bd30      	pop	{r4, r5, pc}
 8000456:	f1c4 040c 	rsb	r4, r4, #12
 800045a:	f1c4 0220 	rsb	r2, r4, #32
 800045e:	fa20 f002 	lsr.w	r0, r0, r2
 8000462:	fa01 f304 	lsl.w	r3, r1, r4
 8000466:	ea40 0003 	orr.w	r0, r0, r3
 800046a:	4629      	mov	r1, r5
 800046c:	bd30      	pop	{r4, r5, pc}
 800046e:	fa21 f004 	lsr.w	r0, r1, r4
 8000472:	4629      	mov	r1, r5
 8000474:	bd30      	pop	{r4, r5, pc}
 8000476:	f094 0f00 	teq	r4, #0
 800047a:	f483 1380 	eor.w	r3, r3, #1048576	; 0x100000
 800047e:	bf06      	itte	eq
 8000480:	f481 1180 	eoreq.w	r1, r1, #1048576	; 0x100000
 8000484:	3401      	addeq	r4, #1
 8000486:	3d01      	subne	r5, #1
 8000488:	e74e      	b.n	8000328 <__adddf3+0x8c>
 800048a:	ea7f 5c64 	mvns.w	ip, r4, asr #21
 800048e:	bf18      	it	ne
 8000490:	ea7f 5c65 	mvnsne.w	ip, r5, asr #21
 8000494:	d029      	beq.n	80004ea <__adddf3+0x24e>
 8000496:	ea94 0f05 	teq	r4, r5
 800049a:	bf08      	it	eq
 800049c:	ea90 0f02 	teqeq	r0, r2
 80004a0:	d005      	beq.n	80004ae <__adddf3+0x212>
 80004a2:	ea54 0c00 	orrs.w	ip, r4, r0
 80004a6:	bf04      	itt	eq
 80004a8:	4619      	moveq	r1, r3
 80004aa:	4610      	moveq	r0, r2
 80004ac:	bd30      	pop	{r4, r5, pc}
 80004ae:	ea91 0f03 	teq	r1, r3
 80004b2:	bf1e      	ittt	ne
 80004b4:	2100      	movne	r1, #0
 80004b6:	2000      	movne	r0, #0
 80004b8:	bd30      	popne	{r4, r5, pc}
 80004ba:	ea5f 5c54 	movs.w	ip, r4, lsr #21
 80004be:	d105      	bne.n	80004cc <__adddf3+0x230>
 80004c0:	0040      	lsls	r0, r0, #1
 80004c2:	4149      	adcs	r1, r1
 80004c4:	bf28      	it	cs
 80004c6:	f041 4100 	orrcs.w	r1, r1, #2147483648	; 0x80000000
 80004ca:	bd30      	pop	{r4, r5, pc}
 80004cc:	f514 0480 	adds.w	r4, r4, #4194304	; 0x400000
 80004d0:	bf3c      	itt	cc
 80004d2:	f501 1180 	addcc.w	r1, r1, #1048576	; 0x100000
 80004d6:	bd30      	popcc	{r4, r5, pc}
 80004d8:	f001 4500 	and.w	r5, r1, #2147483648	; 0x80000000
 80004dc:	f045 41fe 	orr.w	r1, r5, #2130706432	; 0x7f000000
 80004e0:	f441 0170 	orr.w	r1, r1, #15728640	; 0xf00000
 80004e4:	f04f 0000 	mov.w	r0, #0
 80004e8:	bd30      	pop	{r4, r5, pc}
 80004ea:	ea7f 5c64 	mvns.w	ip, r4, asr #21
 80004ee:	bf1a      	itte	ne
 80004f0:	4619      	movne	r1, r3
 80004f2:	4610      	movne	r0, r2
 80004f4:	ea7f 5c65 	mvnseq.w	ip, r5, asr #21
 80004f8:	bf1c      	itt	ne
 80004fa:	460b      	movne	r3, r1
 80004fc:	4602      	movne	r2, r0
 80004fe:	ea50 3401 	orrs.w	r4, r0, r1, lsl #12
 8000502:	bf06      	itte	eq
 8000504:	ea52 3503 	orrseq.w	r5, r2, r3, lsl #12
 8000508:	ea91 0f03 	teqeq	r1, r3
 800050c:	f441 2100 	orrne.w	r1, r1, #524288	; 0x80000
 8000510:	bd30      	pop	{r4, r5, pc}
 8000512:	bf00      	nop

08000514 <__aeabi_ui2d>:
 8000514:	f090 0f00 	teq	r0, #0
 8000518:	bf04      	itt	eq
 800051a:	2100      	moveq	r1, #0
 800051c:	4770      	bxeq	lr
 800051e:	b530      	push	{r4, r5, lr}
 8000520:	f44f 6480 	mov.w	r4, #1024	; 0x400
 8000524:	f104 0432 	add.w	r4, r4, #50	; 0x32
 8000528:	f04f 0500 	mov.w	r5, #0
 800052c:	f04f 0100 	mov.w	r1, #0
 8000530:	e750      	b.n	80003d4 <__adddf3+0x138>
 8000532:	bf00      	nop

08000534 <__aeabi_i2d>:
 8000534:	f090 0f00 	teq	r0, #0
 8000538:	bf04      	itt	eq
 800053a:	2100      	moveq	r1, #0
 800053c:	4770      	bxeq	lr
 800053e:	b530      	push	{r4, r5, lr}
 8000540:	f44f 6480 	mov.w	r4, #1024	; 0x400
 8000544:	f104 0432 	add.w	r4, r4, #50	; 0x32
 8000548:	f010 4500 	ands.w	r5, r0, #2147483648	; 0x80000000
 800054c:	bf48      	it	mi
 800054e:	4240      	negmi	r0, r0
 8000550:	f04f 0100 	mov.w	r1, #0
 8000554:	e73e      	b.n	80003d4 <__adddf3+0x138>
 8000556:	bf00      	nop

08000558 <__aeabi_f2d>:
 8000558:	0042      	lsls	r2, r0, #1
 800055a:	ea4f 01e2 	mov.w	r1, r2, asr #3
 800055e:	ea4f 0131 	mov.w	r1, r1, rrx
 8000562:	ea4f 7002 	mov.w	r0, r2, lsl #28
 8000566:	bf1f      	itttt	ne
 8000568:	f012 437f 	andsne.w	r3, r2, #4278190080	; 0xff000000
 800056c:	f093 4f7f 	teqne	r3, #4278190080	; 0xff000000
 8000570:	f081 5160 	eorne.w	r1, r1, #939524096	; 0x38000000
 8000574:	4770      	bxne	lr
 8000576:	f032 427f 	bics.w	r2, r2, #4278190080	; 0xff000000
 800057a:	bf08      	it	eq
 800057c:	4770      	bxeq	lr
 800057e:	f093 4f7f 	teq	r3, #4278190080	; 0xff000000
 8000582:	bf04      	itt	eq
 8000584:	f441 2100 	orreq.w	r1, r1, #524288	; 0x80000
 8000588:	4770      	bxeq	lr
 800058a:	b530      	push	{r4, r5, lr}
 800058c:	f44f 7460 	mov.w	r4, #896	; 0x380
 8000590:	f001 4500 	and.w	r5, r1, #2147483648	; 0x80000000
 8000594:	f021 4100 	bic.w	r1, r1, #2147483648	; 0x80000000
 8000598:	e71c      	b.n	80003d4 <__adddf3+0x138>
 800059a:	bf00      	nop

0800059c <__aeabi_ul2d>:
 800059c:	ea50 0201 	orrs.w	r2, r0, r1
 80005a0:	bf08      	it	eq
 80005a2:	4770      	bxeq	lr
 80005a4:	b530      	push	{r4, r5, lr}
 80005a6:	f04f 0500 	mov.w	r5, #0
 80005aa:	e00a      	b.n	80005c2 <__aeabi_l2d+0x16>

080005ac <__aeabi_l2d>:
 80005ac:	ea50 0201 	orrs.w	r2, r0, r1
 80005b0:	bf08      	it	eq
 80005b2:	4770      	bxeq	lr
 80005b4:	b530      	push	{r4, r5, lr}
 80005b6:	f011 4500 	ands.w	r5, r1, #2147483648	; 0x80000000
 80005ba:	d502      	bpl.n	80005c2 <__aeabi_l2d+0x16>
 80005bc:	4240      	negs	r0, r0
 80005be:	eb61 0141 	sbc.w	r1, r1, r1, lsl #1
 80005c2:	f44f 6480 	mov.w	r4, #1024	; 0x400
 80005c6:	f104 0432 	add.w	r4, r4, #50	; 0x32
 80005ca:	ea5f 5c91 	movs.w	ip, r1, lsr #22
 80005ce:	f43f aed8 	beq.w	8000382 <__adddf3+0xe6>
 80005d2:	f04f 0203 	mov.w	r2, #3
 80005d6:	ea5f 0cdc 	movs.w	ip, ip, lsr #3
 80005da:	bf18      	it	ne
 80005dc:	3203      	addne	r2, #3
 80005de:	ea5f 0cdc 	movs.w	ip, ip, lsr #3
 80005e2:	bf18      	it	ne
 80005e4:	3203      	addne	r2, #3
 80005e6:	eb02 02dc 	add.w	r2, r2, ip, lsr #3
 80005ea:	f1c2 0320 	rsb	r3, r2, #32
 80005ee:	fa00 fc03 	lsl.w	ip, r0, r3
 80005f2:	fa20 f002 	lsr.w	r0, r0, r2
 80005f6:	fa01 fe03 	lsl.w	lr, r1, r3
 80005fa:	ea40 000e 	orr.w	r0, r0, lr
 80005fe:	fa21 f102 	lsr.w	r1, r1, r2
 8000602:	4414      	add	r4, r2
 8000604:	e6bd      	b.n	8000382 <__adddf3+0xe6>
 8000606:	bf00      	nop

08000608 <__aeabi_dmul>:
 8000608:	b570      	push	{r4, r5, r6, lr}
 800060a:	f04f 0cff 	mov.w	ip, #255	; 0xff
 800060e:	f44c 6ce0 	orr.w	ip, ip, #1792	; 0x700
 8000612:	ea1c 5411 	ands.w	r4, ip, r1, lsr #20
 8000616:	bf1d      	ittte	ne
 8000618:	ea1c 5513 	andsne.w	r5, ip, r3, lsr #20
 800061c:	ea94 0f0c 	teqne	r4, ip
 8000620:	ea95 0f0c 	teqne	r5, ip
 8000624:	f000 f8de 	bleq	80007e4 <__aeabi_dmul+0x1dc>
 8000628:	442c      	add	r4, r5
 800062a:	ea81 0603 	eor.w	r6, r1, r3
 800062e:	ea21 514c 	bic.w	r1, r1, ip, lsl #21
 8000632:	ea23 534c 	bic.w	r3, r3, ip, lsl #21
 8000636:	ea50 3501 	orrs.w	r5, r0, r1, lsl #12
 800063a:	bf18      	it	ne
 800063c:	ea52 3503 	orrsne.w	r5, r2, r3, lsl #12
 8000640:	f441 1180 	orr.w	r1, r1, #1048576	; 0x100000
 8000644:	f443 1380 	orr.w	r3, r3, #1048576	; 0x100000
 8000648:	d038      	beq.n	80006bc <__aeabi_dmul+0xb4>
 800064a:	fba0 ce02 	umull	ip, lr, r0, r2
 800064e:	f04f 0500 	mov.w	r5, #0
 8000652:	fbe1 e502 	umlal	lr, r5, r1, r2
 8000656:	f006 4200 	and.w	r2, r6, #2147483648	; 0x80000000
 800065a:	fbe0 e503 	umlal	lr, r5, r0, r3
 800065e:	f04f 0600 	mov.w	r6, #0
 8000662:	fbe1 5603 	umlal	r5, r6, r1, r3
 8000666:	f09c 0f00 	teq	ip, #0
 800066a:	bf18      	it	ne
 800066c:	f04e 0e01 	orrne.w	lr, lr, #1
 8000670:	f1a4 04ff 	sub.w	r4, r4, #255	; 0xff
 8000674:	f5b6 7f00 	cmp.w	r6, #512	; 0x200
 8000678:	f564 7440 	sbc.w	r4, r4, #768	; 0x300
 800067c:	d204      	bcs.n	8000688 <__aeabi_dmul+0x80>
 800067e:	ea5f 0e4e 	movs.w	lr, lr, lsl #1
 8000682:	416d      	adcs	r5, r5
 8000684:	eb46 0606 	adc.w	r6, r6, r6
 8000688:	ea42 21c6 	orr.w	r1, r2, r6, lsl #11
 800068c:	ea41 5155 	orr.w	r1, r1, r5, lsr #21
 8000690:	ea4f 20c5 	mov.w	r0, r5, lsl #11
 8000694:	ea40 505e 	orr.w	r0, r0, lr, lsr #21
 8000698:	ea4f 2ece 	mov.w	lr, lr, lsl #11
 800069c:	f1b4 0cfd 	subs.w	ip, r4, #253	; 0xfd
 80006a0:	bf88      	it	hi
 80006a2:	f5bc 6fe0 	cmphi.w	ip, #1792	; 0x700
 80006a6:	d81e      	bhi.n	80006e6 <__aeabi_dmul+0xde>
 80006a8:	f1be 4f00 	cmp.w	lr, #2147483648	; 0x80000000
 80006ac:	bf08      	it	eq
 80006ae:	ea5f 0e50 	movseq.w	lr, r0, lsr #1
 80006b2:	f150 0000 	adcs.w	r0, r0, #0
 80006b6:	eb41 5104 	adc.w	r1, r1, r4, lsl #20
 80006ba:	bd70      	pop	{r4, r5, r6, pc}
 80006bc:	f006 4600 	and.w	r6, r6, #2147483648	; 0x80000000
 80006c0:	ea46 0101 	orr.w	r1, r6, r1
 80006c4:	ea40 0002 	orr.w	r0, r0, r2
 80006c8:	ea81 0103 	eor.w	r1, r1, r3
 80006cc:	ebb4 045c 	subs.w	r4, r4, ip, lsr #1
 80006d0:	bfc2      	ittt	gt
 80006d2:	ebd4 050c 	rsbsgt	r5, r4, ip
 80006d6:	ea41 5104 	orrgt.w	r1, r1, r4, lsl #20
 80006da:	bd70      	popgt	{r4, r5, r6, pc}
 80006dc:	f441 1180 	orr.w	r1, r1, #1048576	; 0x100000
 80006e0:	f04f 0e00 	mov.w	lr, #0
 80006e4:	3c01      	subs	r4, #1
 80006e6:	f300 80ab 	bgt.w	8000840 <__aeabi_dmul+0x238>
 80006ea:	f114 0f36 	cmn.w	r4, #54	; 0x36
 80006ee:	bfde      	ittt	le
 80006f0:	2000      	movle	r0, #0
 80006f2:	f001 4100 	andle.w	r1, r1, #2147483648	; 0x80000000
 80006f6:	bd70      	pople	{r4, r5, r6, pc}
 80006f8:	f1c4 0400 	rsb	r4, r4, #0
 80006fc:	3c20      	subs	r4, #32
 80006fe:	da35      	bge.n	800076c <__aeabi_dmul+0x164>
 8000700:	340c      	adds	r4, #12
 8000702:	dc1b      	bgt.n	800073c <__aeabi_dmul+0x134>
 8000704:	f104 0414 	add.w	r4, r4, #20
 8000708:	f1c4 0520 	rsb	r5, r4, #32
 800070c:	fa00 f305 	lsl.w	r3, r0, r5
 8000710:	fa20 f004 	lsr.w	r0, r0, r4
 8000714:	fa01 f205 	lsl.w	r2, r1, r5
 8000718:	ea40 0002 	orr.w	r0, r0, r2
 800071c:	f001 4200 	and.w	r2, r1, #2147483648	; 0x80000000
 8000720:	f021 4100 	bic.w	r1, r1, #2147483648	; 0x80000000
 8000724:	eb10 70d3 	adds.w	r0, r0, r3, lsr #31
 8000728:	fa21 f604 	lsr.w	r6, r1, r4
 800072c:	eb42 0106 	adc.w	r1, r2, r6
 8000730:	ea5e 0e43 	orrs.w	lr, lr, r3, lsl #1
 8000734:	bf08      	it	eq
 8000736:	ea20 70d3 	biceq.w	r0, r0, r3, lsr #31
 800073a:	bd70      	pop	{r4, r5, r6, pc}
 800073c:	f1c4 040c 	rsb	r4, r4, #12
 8000740:	f1c4 0520 	rsb	r5, r4, #32
 8000744:	fa00 f304 	lsl.w	r3, r0, r4
 8000748:	fa20 f005 	lsr.w	r0, r0, r5
 800074c:	fa01 f204 	lsl.w	r2, r1, r4
 8000750:	ea40 0002 	orr.w	r0, r0, r2
 8000754:	f001 4100 	and.w	r1, r1, #2147483648	; 0x80000000
 8000758:	eb10 70d3 	adds.w	r0, r0, r3, lsr #31
 800075c:	f141 0100 	adc.w	r1, r1, #0
 8000760:	ea5e 0e43 	orrs.w	lr, lr, r3, lsl #1
 8000764:	bf08      	it	eq
 8000766:	ea20 70d3 	biceq.w	r0, r0, r3, lsr #31
 800076a:	bd70      	pop	{r4, r5, r6, pc}
 800076c:	f1c4 0520 	rsb	r5, r4, #32
 8000770:	fa00 f205 	lsl.w	r2, r0, r5
 8000774:	ea4e 0e02 	orr.w	lr, lr, r2
 8000778:	fa20 f304 	lsr.w	r3, r0, r4
 800077c:	fa01 f205 	lsl.w	r2, r1, r5
 8000780:	ea43 0302 	orr.w	r3, r3, r2
 8000784:	fa21 f004 	lsr.w	r0, r1, r4
 8000788:	f001 4100 	and.w	r1, r1, #2147483648	; 0x80000000
 800078c:	fa21 f204 	lsr.w	r2, r1, r4
 8000790:	ea20 0002 	bic.w	r0, r0, r2
 8000794:	eb00 70d3 	add.w	r0, r0, r3, lsr #31
 8000798:	ea5e 0e43 	orrs.w	lr, lr, r3, lsl #1
 800079c:	bf08      	it	eq
 800079e:	ea20 70d3 	biceq.w	r0, r0, r3, lsr #31
 80007a2:	bd70      	pop	{r4, r5, r6, pc}
 80007a4:	f094 0f00 	teq	r4, #0
 80007a8:	d10f      	bne.n	80007ca <__aeabi_dmul+0x1c2>
 80007aa:	f001 4600 	and.w	r6, r1, #2147483648	; 0x80000000
 80007ae:	0040      	lsls	r0, r0, #1
 80007b0:	eb41 0101 	adc.w	r1, r1, r1
 80007b4:	f411 1f80 	tst.w	r1, #1048576	; 0x100000
 80007b8:	bf08      	it	eq
 80007ba:	3c01      	subeq	r4, #1
 80007bc:	d0f7      	beq.n	80007ae <__aeabi_dmul+0x1a6>
 80007be:	ea41 0106 	orr.w	r1, r1, r6
 80007c2:	f095 0f00 	teq	r5, #0
 80007c6:	bf18      	it	ne
 80007c8:	4770      	bxne	lr
 80007ca:	f003 4600 	and.w	r6, r3, #2147483648	; 0x80000000
 80007ce:	0052      	lsls	r2, r2, #1
 80007d0:	eb43 0303 	adc.w	r3, r3, r3
 80007d4:	f413 1f80 	tst.w	r3, #1048576	; 0x100000
 80007d8:	bf08      	it	eq
 80007da:	3d01      	subeq	r5, #1
 80007dc:	d0f7      	beq.n	80007ce <__aeabi_dmul+0x1c6>
 80007de:	ea43 0306 	orr.w	r3, r3, r6
 80007e2:	4770      	bx	lr
 80007e4:	ea94 0f0c 	teq	r4, ip
 80007e8:	ea0c 5513 	and.w	r5, ip, r3, lsr #20
 80007ec:	bf18      	it	ne
 80007ee:	ea95 0f0c 	teqne	r5, ip
 80007f2:	d00c      	beq.n	800080e <__aeabi_dmul+0x206>
 80007f4:	ea50 0641 	orrs.w	r6, r0, r1, lsl #1
 80007f8:	bf18      	it	ne
 80007fa:	ea52 0643 	orrsne.w	r6, r2, r3, lsl #1
 80007fe:	d1d1      	bne.n	80007a4 <__aeabi_dmul+0x19c>
 8000800:	ea81 0103 	eor.w	r1, r1, r3
 8000804:	f001 4100 	and.w	r1, r1, #2147483648	; 0x80000000
 8000808:	f04f 0000 	mov.w	r0, #0
 800080c:	bd70      	pop	{r4, r5, r6, pc}
 800080e:	ea50 0641 	orrs.w	r6, r0, r1, lsl #1
 8000812:	bf06      	itte	eq
 8000814:	4610      	moveq	r0, r2
 8000816:	4619      	moveq	r1, r3
 8000818:	ea52 0643 	orrsne.w	r6, r2, r3, lsl #1
 800081c:	d019      	beq.n	8000852 <__aeabi_dmul+0x24a>
 800081e:	ea94 0f0c 	teq	r4, ip
 8000822:	d102      	bne.n	800082a <__aeabi_dmul+0x222>
 8000824:	ea50 3601 	orrs.w	r6, r0, r1, lsl #12
 8000828:	d113      	bne.n	8000852 <__aeabi_dmul+0x24a>
 800082a:	ea95 0f0c 	teq	r5, ip
 800082e:	d105      	bne.n	800083c <__aeabi_dmul+0x234>
 8000830:	ea52 3603 	orrs.w	r6, r2, r3, lsl #12
 8000834:	bf1c      	itt	ne
 8000836:	4610      	movne	r0, r2
 8000838:	4619      	movne	r1, r3
 800083a:	d10a      	bne.n	8000852 <__aeabi_dmul+0x24a>
 800083c:	ea81 0103 	eor.w	r1, r1, r3
 8000840:	f001 4100 	and.w	r1, r1, #2147483648	; 0x80000000
 8000844:	f041 41fe 	orr.w	r1, r1, #2130706432	; 0x7f000000
 8000848:	f441 0170 	orr.w	r1, r1, #15728640	; 0xf00000
 800084c:	f04f 0000 	mov.w	r0, #0
 8000850:	bd70      	pop	{r4, r5, r6, pc}
 8000852:	f041 41fe 	orr.w	r1, r1, #2130706432	; 0x7f000000
 8000856:	f441 0178 	orr.w	r1, r1, #16252928	; 0xf80000
 800085a:	bd70      	pop	{r4, r5, r6, pc}

0800085c <__aeabi_ddiv>:
 800085c:	b570      	push	{r4, r5, r6, lr}
 800085e:	f04f 0cff 	mov.w	ip, #255	; 0xff
 8000862:	f44c 6ce0 	orr.w	ip, ip, #1792	; 0x700
 8000866:	ea1c 5411 	ands.w	r4, ip, r1, lsr #20
 800086a:	bf1d      	ittte	ne
 800086c:	ea1c 5513 	andsne.w	r5, ip, r3, lsr #20
 8000870:	ea94 0f0c 	teqne	r4, ip
 8000874:	ea95 0f0c 	teqne	r5, ip
 8000878:	f000 f8a7 	bleq	80009ca <__aeabi_ddiv+0x16e>
 800087c:	eba4 0405 	sub.w	r4, r4, r5
 8000880:	ea81 0e03 	eor.w	lr, r1, r3
 8000884:	ea52 3503 	orrs.w	r5, r2, r3, lsl #12
 8000888:	ea4f 3101 	mov.w	r1, r1, lsl #12
 800088c:	f000 8088 	beq.w	80009a0 <__aeabi_ddiv+0x144>
 8000890:	ea4f 3303 	mov.w	r3, r3, lsl #12
 8000894:	f04f 5580 	mov.w	r5, #268435456	; 0x10000000
 8000898:	ea45 1313 	orr.w	r3, r5, r3, lsr #4
 800089c:	ea43 6312 	orr.w	r3, r3, r2, lsr #24
 80008a0:	ea4f 2202 	mov.w	r2, r2, lsl #8
 80008a4:	ea45 1511 	orr.w	r5, r5, r1, lsr #4
 80008a8:	ea45 6510 	orr.w	r5, r5, r0, lsr #24
 80008ac:	ea4f 2600 	mov.w	r6, r0, lsl #8
 80008b0:	f00e 4100 	and.w	r1, lr, #2147483648	; 0x80000000
 80008b4:	429d      	cmp	r5, r3
 80008b6:	bf08      	it	eq
 80008b8:	4296      	cmpeq	r6, r2
 80008ba:	f144 04fd 	adc.w	r4, r4, #253	; 0xfd
 80008be:	f504 7440 	add.w	r4, r4, #768	; 0x300
 80008c2:	d202      	bcs.n	80008ca <__aeabi_ddiv+0x6e>
 80008c4:	085b      	lsrs	r3, r3, #1
 80008c6:	ea4f 0232 	mov.w	r2, r2, rrx
 80008ca:	1ab6      	subs	r6, r6, r2
 80008cc:	eb65 0503 	sbc.w	r5, r5, r3
 80008d0:	085b      	lsrs	r3, r3, #1
 80008d2:	ea4f 0232 	mov.w	r2, r2, rrx
 80008d6:	f44f 1080 	mov.w	r0, #1048576	; 0x100000
 80008da:	f44f 2c00 	mov.w	ip, #524288	; 0x80000
 80008de:	ebb6 0e02 	subs.w	lr, r6, r2
 80008e2:	eb75 0e03 	sbcs.w	lr, r5, r3
 80008e6:	bf22      	ittt	cs
 80008e8:	1ab6      	subcs	r6, r6, r2
 80008ea:	4675      	movcs	r5, lr
 80008ec:	ea40 000c 	orrcs.w	r0, r0, ip
 80008f0:	085b      	lsrs	r3, r3, #1
 80008f2:	ea4f 0232 	mov.w	r2, r2, rrx
 80008f6:	ebb6 0e02 	subs.w	lr, r6, r2
 80008fa:	eb75 0e03 	sbcs.w	lr, r5, r3
 80008fe:	bf22      	ittt	cs
 8000900:	1ab6      	subcs	r6, r6, r2
 8000902:	4675      	movcs	r5, lr
 8000904:	ea40 005c 	orrcs.w	r0, r0, ip, lsr #1
 8000908:	085b      	lsrs	r3, r3, #1
 800090a:	ea4f 0232 	mov.w	r2, r2, rrx
 800090e:	ebb6 0e02 	subs.w	lr, r6, r2
 8000912:	eb75 0e03 	sbcs.w	lr, r5, r3
 8000916:	bf22      	ittt	cs
 8000918:	1ab6      	subcs	r6, r6, r2
 800091a:	4675      	movcs	r5, lr
 800091c:	ea40 009c 	orrcs.w	r0, r0, ip, lsr #2
 8000920:	085b      	lsrs	r3, r3, #1
 8000922:	ea4f 0232 	mov.w	r2, r2, rrx
 8000926:	ebb6 0e02 	subs.w	lr, r6, r2
 800092a:	eb75 0e03 	sbcs.w	lr, r5, r3
 800092e:	bf22      	ittt	cs
 8000930:	1ab6      	subcs	r6, r6, r2
 8000932:	4675      	movcs	r5, lr
 8000934:	ea40 00dc 	orrcs.w	r0, r0, ip, lsr #3
 8000938:	ea55 0e06 	orrs.w	lr, r5, r6
 800093c:	d018      	beq.n	8000970 <__aeabi_ddiv+0x114>
 800093e:	ea4f 1505 	mov.w	r5, r5, lsl #4
 8000942:	ea45 7516 	orr.w	r5, r5, r6, lsr #28
 8000946:	ea4f 1606 	mov.w	r6, r6, lsl #4
 800094a:	ea4f 03c3 	mov.w	r3, r3, lsl #3
 800094e:	ea43 7352 	orr.w	r3, r3, r2, lsr #29
 8000952:	ea4f 02c2 	mov.w	r2, r2, lsl #3
 8000956:	ea5f 1c1c 	movs.w	ip, ip, lsr #4
 800095a:	d1c0      	bne.n	80008de <__aeabi_ddiv+0x82>
 800095c:	f411 1f80 	tst.w	r1, #1048576	; 0x100000
 8000960:	d10b      	bne.n	800097a <__aeabi_ddiv+0x11e>
 8000962:	ea41 0100 	orr.w	r1, r1, r0
 8000966:	f04f 0000 	mov.w	r0, #0
 800096a:	f04f 4c00 	mov.w	ip, #2147483648	; 0x80000000
 800096e:	e7b6      	b.n	80008de <__aeabi_ddiv+0x82>
 8000970:	f411 1f80 	tst.w	r1, #1048576	; 0x100000
 8000974:	bf04      	itt	eq
 8000976:	4301      	orreq	r1, r0
 8000978:	2000      	moveq	r0, #0
 800097a:	f1b4 0cfd 	subs.w	ip, r4, #253	; 0xfd
 800097e:	bf88      	it	hi
 8000980:	f5bc 6fe0 	cmphi.w	ip, #1792	; 0x700
 8000984:	f63f aeaf 	bhi.w	80006e6 <__aeabi_dmul+0xde>
 8000988:	ebb5 0c03 	subs.w	ip, r5, r3
 800098c:	bf04      	itt	eq
 800098e:	ebb6 0c02 	subseq.w	ip, r6, r2
 8000992:	ea5f 0c50 	movseq.w	ip, r0, lsr #1
 8000996:	f150 0000 	adcs.w	r0, r0, #0
 800099a:	eb41 5104 	adc.w	r1, r1, r4, lsl #20
 800099e:	bd70      	pop	{r4, r5, r6, pc}
 80009a0:	f00e 4e00 	and.w	lr, lr, #2147483648	; 0x80000000
 80009a4:	ea4e 3111 	orr.w	r1, lr, r1, lsr #12
 80009a8:	eb14 045c 	adds.w	r4, r4, ip, lsr #1
 80009ac:	bfc2      	ittt	gt
 80009ae:	ebd4 050c 	rsbsgt	r5, r4, ip
 80009b2:	ea41 5104 	orrgt.w	r1, r1, r4, lsl #20
 80009b6:	bd70      	popgt	{r4, r5, r6, pc}
 80009b8:	f441 1180 	orr.w	r1, r1, #1048576	; 0x100000
 80009bc:	f04f 0e00 	mov.w	lr, #0
 80009c0:	3c01      	subs	r4, #1
 80009c2:	e690      	b.n	80006e6 <__aeabi_dmul+0xde>
 80009c4:	ea45 0e06 	orr.w	lr, r5, r6
 80009c8:	e68d      	b.n	80006e6 <__aeabi_dmul+0xde>
 80009ca:	ea0c 5513 	and.w	r5, ip, r3, lsr #20
 80009ce:	ea94 0f0c 	teq	r4, ip
 80009d2:	bf08      	it	eq
 80009d4:	ea95 0f0c 	teqeq	r5, ip
 80009d8:	f43f af3b 	beq.w	8000852 <__aeabi_dmul+0x24a>
 80009dc:	ea94 0f0c 	teq	r4, ip
 80009e0:	d10a      	bne.n	80009f8 <__aeabi_ddiv+0x19c>
 80009e2:	ea50 3401 	orrs.w	r4, r0, r1, lsl #12
 80009e6:	f47f af34 	bne.w	8000852 <__aeabi_dmul+0x24a>
 80009ea:	ea95 0f0c 	teq	r5, ip
 80009ee:	f47f af25 	bne.w	800083c <__aeabi_dmul+0x234>
 80009f2:	4610      	mov	r0, r2
 80009f4:	4619      	mov	r1, r3
 80009f6:	e72c      	b.n	8000852 <__aeabi_dmul+0x24a>
 80009f8:	ea95 0f0c 	teq	r5, ip
 80009fc:	d106      	bne.n	8000a0c <__aeabi_ddiv+0x1b0>
 80009fe:	ea52 3503 	orrs.w	r5, r2, r3, lsl #12
 8000a02:	f43f aefd 	beq.w	8000800 <__aeabi_dmul+0x1f8>
 8000a06:	4610      	mov	r0, r2
 8000a08:	4619      	mov	r1, r3
 8000a0a:	e722      	b.n	8000852 <__aeabi_dmul+0x24a>
 8000a0c:	ea50 0641 	orrs.w	r6, r0, r1, lsl #1
 8000a10:	bf18      	it	ne
 8000a12:	ea52 0643 	orrsne.w	r6, r2, r3, lsl #1
 8000a16:	f47f aec5 	bne.w	80007a4 <__aeabi_dmul+0x19c>
 8000a1a:	ea50 0441 	orrs.w	r4, r0, r1, lsl #1
 8000a1e:	f47f af0d 	bne.w	800083c <__aeabi_dmul+0x234>
 8000a22:	ea52 0543 	orrs.w	r5, r2, r3, lsl #1
 8000a26:	f47f aeeb 	bne.w	8000800 <__aeabi_dmul+0x1f8>
 8000a2a:	e712      	b.n	8000852 <__aeabi_dmul+0x24a>

08000a2c <__gedf2>:
 8000a2c:	f04f 3cff 	mov.w	ip, #4294967295
 8000a30:	e006      	b.n	8000a40 <__cmpdf2+0x4>
 8000a32:	bf00      	nop

08000a34 <__ledf2>:
 8000a34:	f04f 0c01 	mov.w	ip, #1
 8000a38:	e002      	b.n	8000a40 <__cmpdf2+0x4>
 8000a3a:	bf00      	nop

08000a3c <__cmpdf2>:
 8000a3c:	f04f 0c01 	mov.w	ip, #1
 8000a40:	f84d cd04 	str.w	ip, [sp, #-4]!
 8000a44:	ea4f 0c41 	mov.w	ip, r1, lsl #1
 8000a48:	ea7f 5c6c 	mvns.w	ip, ip, asr #21
 8000a4c:	ea4f 0c43 	mov.w	ip, r3, lsl #1
 8000a50:	bf18      	it	ne
 8000a52:	ea7f 5c6c 	mvnsne.w	ip, ip, asr #21
 8000a56:	d01b      	beq.n	8000a90 <__cmpdf2+0x54>
 8000a58:	b001      	add	sp, #4
 8000a5a:	ea50 0c41 	orrs.w	ip, r0, r1, lsl #1
 8000a5e:	bf0c      	ite	eq
 8000a60:	ea52 0c43 	orrseq.w	ip, r2, r3, lsl #1
 8000a64:	ea91 0f03 	teqne	r1, r3
 8000a68:	bf02      	ittt	eq
 8000a6a:	ea90 0f02 	teqeq	r0, r2
 8000a6e:	2000      	moveq	r0, #0
 8000a70:	4770      	bxeq	lr
 8000a72:	f110 0f00 	cmn.w	r0, #0
 8000a76:	ea91 0f03 	teq	r1, r3
 8000a7a:	bf58      	it	pl
 8000a7c:	4299      	cmppl	r1, r3
 8000a7e:	bf08      	it	eq
 8000a80:	4290      	cmpeq	r0, r2
 8000a82:	bf2c      	ite	cs
 8000a84:	17d8      	asrcs	r0, r3, #31
 8000a86:	ea6f 70e3 	mvncc.w	r0, r3, asr #31
 8000a8a:	f040 0001 	orr.w	r0, r0, #1
 8000a8e:	4770      	bx	lr
 8000a90:	ea4f 0c41 	mov.w	ip, r1, lsl #1
 8000a94:	ea7f 5c6c 	mvns.w	ip, ip, asr #21
 8000a98:	d102      	bne.n	8000aa0 <__cmpdf2+0x64>
 8000a9a:	ea50 3c01 	orrs.w	ip, r0, r1, lsl #12
 8000a9e:	d107      	bne.n	8000ab0 <__cmpdf2+0x74>
 8000aa0:	ea4f 0c43 	mov.w	ip, r3, lsl #1
 8000aa4:	ea7f 5c6c 	mvns.w	ip, ip, asr #21
 8000aa8:	d1d6      	bne.n	8000a58 <__cmpdf2+0x1c>
 8000aaa:	ea52 3c03 	orrs.w	ip, r2, r3, lsl #12
 8000aae:	d0d3      	beq.n	8000a58 <__cmpdf2+0x1c>
 8000ab0:	f85d 0b04 	ldr.w	r0, [sp], #4
 8000ab4:	4770      	bx	lr
 8000ab6:	bf00      	nop

08000ab8 <__aeabi_cdrcmple>:
 8000ab8:	4684      	mov	ip, r0
 8000aba:	4610      	mov	r0, r2
 8000abc:	4662      	mov	r2, ip
 8000abe:	468c      	mov	ip, r1
 8000ac0:	4619      	mov	r1, r3
 8000ac2:	4663      	mov	r3, ip
 8000ac4:	e000      	b.n	8000ac8 <__aeabi_cdcmpeq>
 8000ac6:	bf00      	nop

08000ac8 <__aeabi_cdcmpeq>:
 8000ac8:	b501      	push	{r0, lr}
 8000aca:	f7ff ffb7 	bl	8000a3c <__cmpdf2>
 8000ace:	2800      	cmp	r0, #0
 8000ad0:	bf48      	it	mi
 8000ad2:	f110 0f00 	cmnmi.w	r0, #0
 8000ad6:	bd01      	pop	{r0, pc}

08000ad8 <__aeabi_dcmpeq>:
 8000ad8:	f84d ed08 	str.w	lr, [sp, #-8]!
 8000adc:	f7ff fff4 	bl	8000ac8 <__aeabi_cdcmpeq>
 8000ae0:	bf0c      	ite	eq
 8000ae2:	2001      	moveq	r0, #1
 8000ae4:	2000      	movne	r0, #0
 8000ae6:	f85d fb08 	ldr.w	pc, [sp], #8
 8000aea:	bf00      	nop

08000aec <__aeabi_dcmplt>:
 8000aec:	f84d ed08 	str.w	lr, [sp, #-8]!
 8000af0:	f7ff ffea 	bl	8000ac8 <__aeabi_cdcmpeq>
 8000af4:	bf34      	ite	cc
 8000af6:	2001      	movcc	r0, #1
 8000af8:	2000      	movcs	r0, #0
 8000afa:	f85d fb08 	ldr.w	pc, [sp], #8
 8000afe:	bf00      	nop

08000b00 <__aeabi_dcmple>:
 8000b00:	f84d ed08 	str.w	lr, [sp, #-8]!
 8000b04:	f7ff ffe0 	bl	8000ac8 <__aeabi_cdcmpeq>
 8000b08:	bf94      	ite	ls
 8000b0a:	2001      	movls	r0, #1
 8000b0c:	2000      	movhi	r0, #0
 8000b0e:	f85d fb08 	ldr.w	pc, [sp], #8
 8000b12:	bf00      	nop

08000b14 <__aeabi_dcmpge>:
 8000b14:	f84d ed08 	str.w	lr, [sp, #-8]!
 8000b18:	f7ff ffce 	bl	8000ab8 <__aeabi_cdrcmple>
 8000b1c:	bf94      	ite	ls
 8000b1e:	2001      	movls	r0, #1
 8000b20:	2000      	movhi	r0, #0
 8000b22:	f85d fb08 	ldr.w	pc, [sp], #8
 8000b26:	bf00      	nop

08000b28 <__aeabi_dcmpgt>:
 8000b28:	f84d ed08 	str.w	lr, [sp, #-8]!
 8000b2c:	f7ff ffc4 	bl	8000ab8 <__aeabi_cdrcmple>
 8000b30:	bf34      	ite	cc
 8000b32:	2001      	movcc	r0, #1
 8000b34:	2000      	movcs	r0, #0
 8000b36:	f85d fb08 	ldr.w	pc, [sp], #8
 8000b3a:	bf00      	nop

08000b3c <__aeabi_dcmpun>:
 8000b3c:	ea4f 0c41 	mov.w	ip, r1, lsl #1
 8000b40:	ea7f 5c6c 	mvns.w	ip, ip, asr #21
 8000b44:	d102      	bne.n	8000b4c <__aeabi_dcmpun+0x10>
 8000b46:	ea50 3c01 	orrs.w	ip, r0, r1, lsl #12
 8000b4a:	d10a      	bne.n	8000b62 <__aeabi_dcmpun+0x26>
 8000b4c:	ea4f 0c43 	mov.w	ip, r3, lsl #1
 8000b50:	ea7f 5c6c 	mvns.w	ip, ip, asr #21
 8000b54:	d102      	bne.n	8000b5c <__aeabi_dcmpun+0x20>
 8000b56:	ea52 3c03 	orrs.w	ip, r2, r3, lsl #12
 8000b5a:	d102      	bne.n	8000b62 <__aeabi_dcmpun+0x26>
 8000b5c:	f04f 0000 	mov.w	r0, #0
 8000b60:	4770      	bx	lr
 8000b62:	f04f 0001 	mov.w	r0, #1
 8000b66:	4770      	bx	lr

08000b68 <__aeabi_d2iz>:
 8000b68:	ea4f 0241 	mov.w	r2, r1, lsl #1
 8000b6c:	f512 1200 	adds.w	r2, r2, #2097152	; 0x200000
 8000b70:	d215      	bcs.n	8000b9e <__aeabi_d2iz+0x36>
 8000b72:	d511      	bpl.n	8000b98 <__aeabi_d2iz+0x30>
 8000b74:	f46f 7378 	mvn.w	r3, #992	; 0x3e0
 8000b78:	ebb3 5262 	subs.w	r2, r3, r2, asr #21
 8000b7c:	d912      	bls.n	8000ba4 <__aeabi_d2iz+0x3c>
 8000b7e:	ea4f 23c1 	mov.w	r3, r1, lsl #11
 8000b82:	f043 4300 	orr.w	r3, r3, #2147483648	; 0x80000000
 8000b86:	ea43 5350 	orr.w	r3, r3, r0, lsr #21
 8000b8a:	f011 4f00 	tst.w	r1, #2147483648	; 0x80000000
 8000b8e:	fa23 f002 	lsr.w	r0, r3, r2
 8000b92:	bf18      	it	ne
 8000b94:	4240      	negne	r0, r0
 8000b96:	4770      	bx	lr
 8000b98:	f04f 0000 	mov.w	r0, #0
 8000b9c:	4770      	bx	lr
 8000b9e:	ea50 3001 	orrs.w	r0, r0, r1, lsl #12
 8000ba2:	d105      	bne.n	8000bb0 <__aeabi_d2iz+0x48>
 8000ba4:	f011 4000 	ands.w	r0, r1, #2147483648	; 0x80000000
 8000ba8:	bf08      	it	eq
 8000baa:	f06f 4000 	mvneq.w	r0, #2147483648	; 0x80000000
 8000bae:	4770      	bx	lr
 8000bb0:	f04f 0000 	mov.w	r0, #0
 8000bb4:	4770      	bx	lr
 8000bb6:	bf00      	nop

08000bb8 <__aeabi_uldivmod>:
 8000bb8:	b953      	cbnz	r3, 8000bd0 <__aeabi_uldivmod+0x18>
 8000bba:	b94a      	cbnz	r2, 8000bd0 <__aeabi_uldivmod+0x18>
 8000bbc:	2900      	cmp	r1, #0
 8000bbe:	bf08      	it	eq
 8000bc0:	2800      	cmpeq	r0, #0
 8000bc2:	bf1c      	itt	ne
 8000bc4:	f04f 31ff 	movne.w	r1, #4294967295
 8000bc8:	f04f 30ff 	movne.w	r0, #4294967295
 8000bcc:	f000 b972 	b.w	8000eb4 <__aeabi_idiv0>
 8000bd0:	f1ad 0c08 	sub.w	ip, sp, #8
 8000bd4:	e96d ce04 	strd	ip, lr, [sp, #-16]!
 8000bd8:	f000 f806 	bl	8000be8 <__udivmoddi4>
 8000bdc:	f8dd e004 	ldr.w	lr, [sp, #4]
 8000be0:	e9dd 2302 	ldrd	r2, r3, [sp, #8]
 8000be4:	b004      	add	sp, #16
 8000be6:	4770      	bx	lr

08000be8 <__udivmoddi4>:
 8000be8:	e92d 47f0 	stmdb	sp!, {r4, r5, r6, r7, r8, r9, sl, lr}
 8000bec:	9e08      	ldr	r6, [sp, #32]
 8000bee:	4604      	mov	r4, r0
 8000bf0:	4688      	mov	r8, r1
 8000bf2:	2b00      	cmp	r3, #0
 8000bf4:	d14b      	bne.n	8000c8e <__udivmoddi4+0xa6>
 8000bf6:	428a      	cmp	r2, r1
 8000bf8:	4615      	mov	r5, r2
 8000bfa:	d967      	bls.n	8000ccc <__udivmoddi4+0xe4>
 8000bfc:	fab2 f282 	clz	r2, r2
 8000c00:	b14a      	cbz	r2, 8000c16 <__udivmoddi4+0x2e>
 8000c02:	f1c2 0720 	rsb	r7, r2, #32
 8000c06:	fa01 f302 	lsl.w	r3, r1, r2
 8000c0a:	fa20 f707 	lsr.w	r7, r0, r7
 8000c0e:	4095      	lsls	r5, r2
 8000c10:	ea47 0803 	orr.w	r8, r7, r3
 8000c14:	4094      	lsls	r4, r2
 8000c16:	ea4f 4e15 	mov.w	lr, r5, lsr #16
 8000c1a:	0c23      	lsrs	r3, r4, #16
 8000c1c:	fbb8 f7fe 	udiv	r7, r8, lr
 8000c20:	fa1f fc85 	uxth.w	ip, r5
 8000c24:	fb0e 8817 	mls	r8, lr, r7, r8
 8000c28:	ea43 4308 	orr.w	r3, r3, r8, lsl #16
 8000c2c:	fb07 f10c 	mul.w	r1, r7, ip
 8000c30:	4299      	cmp	r1, r3
 8000c32:	d909      	bls.n	8000c48 <__udivmoddi4+0x60>
 8000c34:	18eb      	adds	r3, r5, r3
 8000c36:	f107 30ff 	add.w	r0, r7, #4294967295
 8000c3a:	f080 811b 	bcs.w	8000e74 <__udivmoddi4+0x28c>
 8000c3e:	4299      	cmp	r1, r3
 8000c40:	f240 8118 	bls.w	8000e74 <__udivmoddi4+0x28c>
 8000c44:	3f02      	subs	r7, #2
 8000c46:	442b      	add	r3, r5
 8000c48:	1a5b      	subs	r3, r3, r1
 8000c4a:	b2a4      	uxth	r4, r4
 8000c4c:	fbb3 f0fe 	udiv	r0, r3, lr
 8000c50:	fb0e 3310 	mls	r3, lr, r0, r3
 8000c54:	ea44 4403 	orr.w	r4, r4, r3, lsl #16
 8000c58:	fb00 fc0c 	mul.w	ip, r0, ip
 8000c5c:	45a4      	cmp	ip, r4
 8000c5e:	d909      	bls.n	8000c74 <__udivmoddi4+0x8c>
 8000c60:	192c      	adds	r4, r5, r4
 8000c62:	f100 33ff 	add.w	r3, r0, #4294967295
 8000c66:	f080 8107 	bcs.w	8000e78 <__udivmoddi4+0x290>
 8000c6a:	45a4      	cmp	ip, r4
 8000c6c:	f240 8104 	bls.w	8000e78 <__udivmoddi4+0x290>
 8000c70:	3802      	subs	r0, #2
 8000c72:	442c      	add	r4, r5
 8000c74:	ea40 4007 	orr.w	r0, r0, r7, lsl #16
 8000c78:	eba4 040c 	sub.w	r4, r4, ip
 8000c7c:	2700      	movs	r7, #0
 8000c7e:	b11e      	cbz	r6, 8000c88 <__udivmoddi4+0xa0>
 8000c80:	40d4      	lsrs	r4, r2
 8000c82:	2300      	movs	r3, #0
 8000c84:	e9c6 4300 	strd	r4, r3, [r6]
 8000c88:	4639      	mov	r1, r7
 8000c8a:	e8bd 87f0 	ldmia.w	sp!, {r4, r5, r6, r7, r8, r9, sl, pc}
 8000c8e:	428b      	cmp	r3, r1
 8000c90:	d909      	bls.n	8000ca6 <__udivmoddi4+0xbe>
 8000c92:	2e00      	cmp	r6, #0
 8000c94:	f000 80eb 	beq.w	8000e6e <__udivmoddi4+0x286>
 8000c98:	2700      	movs	r7, #0
 8000c9a:	e9c6 0100 	strd	r0, r1, [r6]
 8000c9e:	4638      	mov	r0, r7
 8000ca0:	4639      	mov	r1, r7
 8000ca2:	e8bd 87f0 	ldmia.w	sp!, {r4, r5, r6, r7, r8, r9, sl, pc}
 8000ca6:	fab3 f783 	clz	r7, r3
 8000caa:	2f00      	cmp	r7, #0
 8000cac:	d147      	bne.n	8000d3e <__udivmoddi4+0x156>
 8000cae:	428b      	cmp	r3, r1
 8000cb0:	d302      	bcc.n	8000cb8 <__udivmoddi4+0xd0>
 8000cb2:	4282      	cmp	r2, r0
 8000cb4:	f200 80fa 	bhi.w	8000eac <__udivmoddi4+0x2c4>
 8000cb8:	1a84      	subs	r4, r0, r2
 8000cba:	eb61 0303 	sbc.w	r3, r1, r3
 8000cbe:	2001      	movs	r0, #1
 8000cc0:	4698      	mov	r8, r3
 8000cc2:	2e00      	cmp	r6, #0
 8000cc4:	d0e0      	beq.n	8000c88 <__udivmoddi4+0xa0>
 8000cc6:	e9c6 4800 	strd	r4, r8, [r6]
 8000cca:	e7dd      	b.n	8000c88 <__udivmoddi4+0xa0>
 8000ccc:	b902      	cbnz	r2, 8000cd0 <__udivmoddi4+0xe8>
 8000cce:	deff      	udf	#255	; 0xff
 8000cd0:	fab2 f282 	clz	r2, r2
 8000cd4:	2a00      	cmp	r2, #0
 8000cd6:	f040 808f 	bne.w	8000df8 <__udivmoddi4+0x210>
 8000cda:	1b49      	subs	r1, r1, r5
 8000cdc:	ea4f 4e15 	mov.w	lr, r5, lsr #16
 8000ce0:	fa1f f885 	uxth.w	r8, r5
 8000ce4:	2701      	movs	r7, #1
 8000ce6:	fbb1 fcfe 	udiv	ip, r1, lr
 8000cea:	0c23      	lsrs	r3, r4, #16
 8000cec:	fb0e 111c 	mls	r1, lr, ip, r1
 8000cf0:	ea43 4301 	orr.w	r3, r3, r1, lsl #16
 8000cf4:	fb08 f10c 	mul.w	r1, r8, ip
 8000cf8:	4299      	cmp	r1, r3
 8000cfa:	d907      	bls.n	8000d0c <__udivmoddi4+0x124>
 8000cfc:	18eb      	adds	r3, r5, r3
 8000cfe:	f10c 30ff 	add.w	r0, ip, #4294967295
 8000d02:	d202      	bcs.n	8000d0a <__udivmoddi4+0x122>
 8000d04:	4299      	cmp	r1, r3
 8000d06:	f200 80cd 	bhi.w	8000ea4 <__udivmoddi4+0x2bc>
 8000d0a:	4684      	mov	ip, r0
 8000d0c:	1a59      	subs	r1, r3, r1
 8000d0e:	b2a3      	uxth	r3, r4
 8000d10:	fbb1 f0fe 	udiv	r0, r1, lr
 8000d14:	fb0e 1410 	mls	r4, lr, r0, r1
 8000d18:	ea43 4404 	orr.w	r4, r3, r4, lsl #16
 8000d1c:	fb08 f800 	mul.w	r8, r8, r0
 8000d20:	45a0      	cmp	r8, r4
 8000d22:	d907      	bls.n	8000d34 <__udivmoddi4+0x14c>
 8000d24:	192c      	adds	r4, r5, r4
 8000d26:	f100 33ff 	add.w	r3, r0, #4294967295
 8000d2a:	d202      	bcs.n	8000d32 <__udivmoddi4+0x14a>
 8000d2c:	45a0      	cmp	r8, r4
 8000d2e:	f200 80b6 	bhi.w	8000e9e <__udivmoddi4+0x2b6>
 8000d32:	4618      	mov	r0, r3
 8000d34:	eba4 0408 	sub.w	r4, r4, r8
 8000d38:	ea40 400c 	orr.w	r0, r0, ip, lsl #16
 8000d3c:	e79f      	b.n	8000c7e <__udivmoddi4+0x96>
 8000d3e:	f1c7 0c20 	rsb	ip, r7, #32
 8000d42:	40bb      	lsls	r3, r7
 8000d44:	fa22 fe0c 	lsr.w	lr, r2, ip
 8000d48:	ea4e 0e03 	orr.w	lr, lr, r3
 8000d4c:	fa01 f407 	lsl.w	r4, r1, r7
 8000d50:	fa20 f50c 	lsr.w	r5, r0, ip
 8000d54:	fa21 f30c 	lsr.w	r3, r1, ip
 8000d58:	ea4f 481e 	mov.w	r8, lr, lsr #16
 8000d5c:	4325      	orrs	r5, r4
 8000d5e:	fbb3 f9f8 	udiv	r9, r3, r8
 8000d62:	0c2c      	lsrs	r4, r5, #16
 8000d64:	fb08 3319 	mls	r3, r8, r9, r3
 8000d68:	fa1f fa8e 	uxth.w	sl, lr
 8000d6c:	ea44 4303 	orr.w	r3, r4, r3, lsl #16
 8000d70:	fb09 f40a 	mul.w	r4, r9, sl
 8000d74:	429c      	cmp	r4, r3
 8000d76:	fa02 f207 	lsl.w	r2, r2, r7
 8000d7a:	fa00 f107 	lsl.w	r1, r0, r7
 8000d7e:	d90b      	bls.n	8000d98 <__udivmoddi4+0x1b0>
 8000d80:	eb1e 0303 	adds.w	r3, lr, r3
 8000d84:	f109 30ff 	add.w	r0, r9, #4294967295
 8000d88:	f080 8087 	bcs.w	8000e9a <__udivmoddi4+0x2b2>
 8000d8c:	429c      	cmp	r4, r3
 8000d8e:	f240 8084 	bls.w	8000e9a <__udivmoddi4+0x2b2>
 8000d92:	f1a9 0902 	sub.w	r9, r9, #2
 8000d96:	4473      	add	r3, lr
 8000d98:	1b1b      	subs	r3, r3, r4
 8000d9a:	b2ad      	uxth	r5, r5
 8000d9c:	fbb3 f0f8 	udiv	r0, r3, r8
 8000da0:	fb08 3310 	mls	r3, r8, r0, r3
 8000da4:	ea45 4403 	orr.w	r4, r5, r3, lsl #16
 8000da8:	fb00 fa0a 	mul.w	sl, r0, sl
 8000dac:	45a2      	cmp	sl, r4
 8000dae:	d908      	bls.n	8000dc2 <__udivmoddi4+0x1da>
 8000db0:	eb1e 0404 	adds.w	r4, lr, r4
 8000db4:	f100 33ff 	add.w	r3, r0, #4294967295
 8000db8:	d26b      	bcs.n	8000e92 <__udivmoddi4+0x2aa>
 8000dba:	45a2      	cmp	sl, r4
 8000dbc:	d969      	bls.n	8000e92 <__udivmoddi4+0x2aa>
 8000dbe:	3802      	subs	r0, #2
 8000dc0:	4474      	add	r4, lr
 8000dc2:	ea40 4009 	orr.w	r0, r0, r9, lsl #16
 8000dc6:	fba0 8902 	umull	r8, r9, r0, r2
 8000dca:	eba4 040a 	sub.w	r4, r4, sl
 8000dce:	454c      	cmp	r4, r9
 8000dd0:	46c2      	mov	sl, r8
 8000dd2:	464b      	mov	r3, r9
 8000dd4:	d354      	bcc.n	8000e80 <__udivmoddi4+0x298>
 8000dd6:	d051      	beq.n	8000e7c <__udivmoddi4+0x294>
 8000dd8:	2e00      	cmp	r6, #0
 8000dda:	d069      	beq.n	8000eb0 <__udivmoddi4+0x2c8>
 8000ddc:	ebb1 050a 	subs.w	r5, r1, sl
 8000de0:	eb64 0403 	sbc.w	r4, r4, r3
 8000de4:	fa04 fc0c 	lsl.w	ip, r4, ip
 8000de8:	40fd      	lsrs	r5, r7
 8000dea:	40fc      	lsrs	r4, r7
 8000dec:	ea4c 0505 	orr.w	r5, ip, r5
 8000df0:	e9c6 5400 	strd	r5, r4, [r6]
 8000df4:	2700      	movs	r7, #0
 8000df6:	e747      	b.n	8000c88 <__udivmoddi4+0xa0>
 8000df8:	f1c2 0320 	rsb	r3, r2, #32
 8000dfc:	fa20 f703 	lsr.w	r7, r0, r3
 8000e00:	4095      	lsls	r5, r2
 8000e02:	fa01 f002 	lsl.w	r0, r1, r2
 8000e06:	fa21 f303 	lsr.w	r3, r1, r3
 8000e0a:	ea4f 4e15 	mov.w	lr, r5, lsr #16
 8000e0e:	4338      	orrs	r0, r7
 8000e10:	0c01      	lsrs	r1, r0, #16
 8000e12:	fbb3 f7fe 	udiv	r7, r3, lr
 8000e16:	fa1f f885 	uxth.w	r8, r5
 8000e1a:	fb0e 3317 	mls	r3, lr, r7, r3
 8000e1e:	ea41 4103 	orr.w	r1, r1, r3, lsl #16
 8000e22:	fb07 f308 	mul.w	r3, r7, r8
 8000e26:	428b      	cmp	r3, r1
 8000e28:	fa04 f402 	lsl.w	r4, r4, r2
 8000e2c:	d907      	bls.n	8000e3e <__udivmoddi4+0x256>
 8000e2e:	1869      	adds	r1, r5, r1
 8000e30:	f107 3cff 	add.w	ip, r7, #4294967295
 8000e34:	d22f      	bcs.n	8000e96 <__udivmoddi4+0x2ae>
 8000e36:	428b      	cmp	r3, r1
 8000e38:	d92d      	bls.n	8000e96 <__udivmoddi4+0x2ae>
 8000e3a:	3f02      	subs	r7, #2
 8000e3c:	4429      	add	r1, r5
 8000e3e:	1acb      	subs	r3, r1, r3
 8000e40:	b281      	uxth	r1, r0
 8000e42:	fbb3 f0fe 	udiv	r0, r3, lr
 8000e46:	fb0e 3310 	mls	r3, lr, r0, r3
 8000e4a:	ea41 4103 	orr.w	r1, r1, r3, lsl #16
 8000e4e:	fb00 f308 	mul.w	r3, r0, r8
 8000e52:	428b      	cmp	r3, r1
 8000e54:	d907      	bls.n	8000e66 <__udivmoddi4+0x27e>
 8000e56:	1869      	adds	r1, r5, r1
 8000e58:	f100 3cff 	add.w	ip, r0, #4294967295
 8000e5c:	d217      	bcs.n	8000e8e <__udivmoddi4+0x2a6>
 8000e5e:	428b      	cmp	r3, r1
 8000e60:	d915      	bls.n	8000e8e <__udivmoddi4+0x2a6>
 8000e62:	3802      	subs	r0, #2
 8000e64:	4429      	add	r1, r5
 8000e66:	1ac9      	subs	r1, r1, r3
 8000e68:	ea40 4707 	orr.w	r7, r0, r7, lsl #16
 8000e6c:	e73b      	b.n	8000ce6 <__udivmoddi4+0xfe>
 8000e6e:	4637      	mov	r7, r6
 8000e70:	4630      	mov	r0, r6
 8000e72:	e709      	b.n	8000c88 <__udivmoddi4+0xa0>
 8000e74:	4607      	mov	r7, r0
 8000e76:	e6e7      	b.n	8000c48 <__udivmoddi4+0x60>
 8000e78:	4618      	mov	r0, r3
 8000e7a:	e6fb      	b.n	8000c74 <__udivmoddi4+0x8c>
 8000e7c:	4541      	cmp	r1, r8
 8000e7e:	d2ab      	bcs.n	8000dd8 <__udivmoddi4+0x1f0>
 8000e80:	ebb8 0a02 	subs.w	sl, r8, r2
 8000e84:	eb69 020e 	sbc.w	r2, r9, lr
 8000e88:	3801      	subs	r0, #1
 8000e8a:	4613      	mov	r3, r2
 8000e8c:	e7a4      	b.n	8000dd8 <__udivmoddi4+0x1f0>
 8000e8e:	4660      	mov	r0, ip
 8000e90:	e7e9      	b.n	8000e66 <__udivmoddi4+0x27e>
 8000e92:	4618      	mov	r0, r3
 8000e94:	e795      	b.n	8000dc2 <__udivmoddi4+0x1da>
 8000e96:	4667      	mov	r7, ip
 8000e98:	e7d1      	b.n	8000e3e <__udivmoddi4+0x256>
 8000e9a:	4681      	mov	r9, r0
 8000e9c:	e77c      	b.n	8000d98 <__udivmoddi4+0x1b0>
 8000e9e:	3802      	subs	r0, #2
 8000ea0:	442c      	add	r4, r5
 8000ea2:	e747      	b.n	8000d34 <__udivmoddi4+0x14c>
 8000ea4:	f1ac 0c02 	sub.w	ip, ip, #2
 8000ea8:	442b      	add	r3, r5
 8000eaa:	e72f      	b.n	8000d0c <__udivmoddi4+0x124>
 8000eac:	4638      	mov	r0, r7
 8000eae:	e708      	b.n	8000cc2 <__udivmoddi4+0xda>
 8000eb0:	4637      	mov	r7, r6
 8000eb2:	e6e9      	b.n	8000c88 <__udivmoddi4+0xa0>

08000eb4 <__aeabi_idiv0>:
 8000eb4:	4770      	bx	lr
 8000eb6:	bf00      	nop

08000eb8 <HAL_Init>:
 8000eb8:	b508      	push	{r3, lr}
 8000eba:	4b0b      	ldr	r3, [pc, #44]	; (8000ee8 <HAL_Init+0x30>)
 8000ebc:	681a      	ldr	r2, [r3, #0]
 8000ebe:	f442 7200 	orr.w	r2, r2, #512	; 0x200
 8000ec2:	601a      	str	r2, [r3, #0]
 8000ec4:	681a      	ldr	r2, [r3, #0]
 8000ec6:	f442 6280 	orr.w	r2, r2, #1024	; 0x400
 8000eca:	601a      	str	r2, [r3, #0]
 8000ecc:	681a      	ldr	r2, [r3, #0]
 8000ece:	f442 7280 	orr.w	r2, r2, #256	; 0x100
 8000ed2:	601a      	str	r2, [r3, #0]
 8000ed4:	2003      	movs	r0, #3
 8000ed6:	f000 f81b 	bl	8000f10 <HAL_NVIC_SetPriorityGrouping>
 8000eda:	2000      	movs	r0, #0
 8000edc:	f007 fbc2 	bl	8008664 <HAL_InitTick>
 8000ee0:	f007 fba0 	bl	8008624 <HAL_MspInit>
 8000ee4:	2000      	movs	r0, #0
 8000ee6:	bd08      	pop	{r3, pc}
 8000ee8:	40023c00 	.word	0x40023c00

08000eec <HAL_IncTick>:
 8000eec:	4a03      	ldr	r2, [pc, #12]	; (8000efc <HAL_IncTick+0x10>)
 8000eee:	4b04      	ldr	r3, [pc, #16]	; (8000f00 <HAL_IncTick+0x14>)
 8000ef0:	6811      	ldr	r1, [r2, #0]
 8000ef2:	781b      	ldrb	r3, [r3, #0]
 8000ef4:	440b      	add	r3, r1
 8000ef6:	6013      	str	r3, [r2, #0]
 8000ef8:	4770      	bx	lr
 8000efa:	bf00      	nop
 8000efc:	2000107c 	.word	0x2000107c
 8000f00:	20000080 	.word	0x20000080

08000f04 <HAL_GetTick>:
 8000f04:	4b01      	ldr	r3, [pc, #4]	; (8000f0c <HAL_GetTick+0x8>)
 8000f06:	6818      	ldr	r0, [r3, #0]
 8000f08:	4770      	bx	lr
 8000f0a:	bf00      	nop
 8000f0c:	2000107c 	.word	0x2000107c

08000f10 <HAL_NVIC_SetPriorityGrouping>:
 8000f10:	1ec3      	subs	r3, r0, #3
 8000f12:	2b04      	cmp	r3, #4
 8000f14:	b510      	push	{r4, lr}
 8000f16:	4604      	mov	r4, r0
 8000f18:	d903      	bls.n	8000f22 <HAL_NVIC_SetPriorityGrouping+0x12>
 8000f1a:	2192      	movs	r1, #146	; 0x92
 8000f1c:	4809      	ldr	r0, [pc, #36]	; (8000f44 <HAL_NVIC_SetPriorityGrouping+0x34>)
 8000f1e:	f007 fafd 	bl	800851c <assert_failed>
 8000f22:	4a09      	ldr	r2, [pc, #36]	; (8000f48 <HAL_NVIC_SetPriorityGrouping+0x38>)
 8000f24:	68d3      	ldr	r3, [r2, #12]
 8000f26:	f423 63e0 	bic.w	r3, r3, #1792	; 0x700
 8000f2a:	041b      	lsls	r3, r3, #16
 8000f2c:	0c1b      	lsrs	r3, r3, #16
 8000f2e:	f043 63bf 	orr.w	r3, r3, #100139008	; 0x5f80000
 8000f32:	0224      	lsls	r4, r4, #8
 8000f34:	f443 3300 	orr.w	r3, r3, #131072	; 0x20000
 8000f38:	f404 64e0 	and.w	r4, r4, #1792	; 0x700
 8000f3c:	431c      	orrs	r4, r3
 8000f3e:	60d4      	str	r4, [r2, #12]
 8000f40:	bd10      	pop	{r4, pc}
 8000f42:	bf00      	nop
 8000f44:	0800b094 	.word	0x0800b094
 8000f48:	e000ed00 	.word	0xe000ed00

08000f4c <HAL_NVIC_SetPriority>:
 8000f4c:	2a0f      	cmp	r2, #15
 8000f4e:	b570      	push	{r4, r5, r6, lr}
 8000f50:	4605      	mov	r5, r0
 8000f52:	460c      	mov	r4, r1
 8000f54:	4616      	mov	r6, r2
 8000f56:	d903      	bls.n	8000f60 <HAL_NVIC_SetPriority+0x14>
 8000f58:	21aa      	movs	r1, #170	; 0xaa
 8000f5a:	481b      	ldr	r0, [pc, #108]	; (8000fc8 <HAL_NVIC_SetPriority+0x7c>)
 8000f5c:	f007 fade 	bl	800851c <assert_failed>
 8000f60:	2c0f      	cmp	r4, #15
 8000f62:	d903      	bls.n	8000f6c <HAL_NVIC_SetPriority+0x20>
 8000f64:	21ab      	movs	r1, #171	; 0xab
 8000f66:	4818      	ldr	r0, [pc, #96]	; (8000fc8 <HAL_NVIC_SetPriority+0x7c>)
 8000f68:	f007 fad8 	bl	800851c <assert_failed>
 8000f6c:	4b17      	ldr	r3, [pc, #92]	; (8000fcc <HAL_NVIC_SetPriority+0x80>)
 8000f6e:	68da      	ldr	r2, [r3, #12]
 8000f70:	f3c2 2202 	ubfx	r2, r2, #8, #3
 8000f74:	f1c2 0307 	rsb	r3, r2, #7
 8000f78:	1d11      	adds	r1, r2, #4
 8000f7a:	2b04      	cmp	r3, #4
 8000f7c:	bf28      	it	cs
 8000f7e:	2304      	movcs	r3, #4
 8000f80:	2906      	cmp	r1, #6
 8000f82:	f04f 31ff 	mov.w	r1, #4294967295
 8000f86:	fa01 f303 	lsl.w	r3, r1, r3
 8000f8a:	bf8c      	ite	hi
 8000f8c:	3a03      	subhi	r2, #3
 8000f8e:	2200      	movls	r2, #0
 8000f90:	ea24 0303 	bic.w	r3, r4, r3
 8000f94:	4093      	lsls	r3, r2
 8000f96:	fa01 f202 	lsl.w	r2, r1, r2
 8000f9a:	ea26 0602 	bic.w	r6, r6, r2
 8000f9e:	2d00      	cmp	r5, #0
 8000fa0:	ea43 0306 	orr.w	r3, r3, r6
 8000fa4:	bfa8      	it	ge
 8000fa6:	f105 4560 	addge.w	r5, r5, #3758096384	; 0xe0000000
 8000faa:	ea4f 1303 	mov.w	r3, r3, lsl #4
 8000fae:	bfbc      	itt	lt
 8000fb0:	f005 050f 	andlt.w	r5, r5, #15
 8000fb4:	4a06      	ldrlt	r2, [pc, #24]	; (8000fd0 <HAL_NVIC_SetPriority+0x84>)
 8000fb6:	b2db      	uxtb	r3, r3
 8000fb8:	bfaa      	itet	ge
 8000fba:	f505 4561 	addge.w	r5, r5, #57600	; 0xe100
 8000fbe:	5553      	strblt	r3, [r2, r5]
 8000fc0:	f885 3300 	strbge.w	r3, [r5, #768]	; 0x300
 8000fc4:	bd70      	pop	{r4, r5, r6, pc}
 8000fc6:	bf00      	nop
 8000fc8:	0800b094 	.word	0x0800b094
 8000fcc:	e000ed00 	.word	0xe000ed00
 8000fd0:	e000ed14 	.word	0xe000ed14

08000fd4 <HAL_NVIC_EnableIRQ>:
 8000fd4:	2800      	cmp	r0, #0
 8000fd6:	da03      	bge.n	8000fe0 <HAL_NVIC_EnableIRQ+0xc>
 8000fd8:	21be      	movs	r1, #190	; 0xbe
 8000fda:	4806      	ldr	r0, [pc, #24]	; (8000ff4 <HAL_NVIC_EnableIRQ+0x20>)
 8000fdc:	f007 ba9e 	b.w	800851c <assert_failed>
 8000fe0:	0942      	lsrs	r2, r0, #5
 8000fe2:	2301      	movs	r3, #1
 8000fe4:	f000 001f 	and.w	r0, r0, #31
 8000fe8:	fa03 f000 	lsl.w	r0, r3, r0
 8000fec:	4b02      	ldr	r3, [pc, #8]	; (8000ff8 <HAL_NVIC_EnableIRQ+0x24>)
 8000fee:	f843 0022 	str.w	r0, [r3, r2, lsl #2]
 8000ff2:	4770      	bx	lr
 8000ff4:	0800b094 	.word	0x0800b094
 8000ff8:	e000e100 	.word	0xe000e100

08000ffc <HAL_CRC_Init>:
 8000ffc:	b510      	push	{r4, lr}
 8000ffe:	4604      	mov	r4, r0
 8001000:	b198      	cbz	r0, 800102a <HAL_CRC_Init+0x2e>
 8001002:	6802      	ldr	r2, [r0, #0]
 8001004:	4b0a      	ldr	r3, [pc, #40]	; (8001030 <HAL_CRC_Init+0x34>)
 8001006:	429a      	cmp	r2, r3
 8001008:	d003      	beq.n	8001012 <HAL_CRC_Init+0x16>
 800100a:	2168      	movs	r1, #104	; 0x68
 800100c:	4809      	ldr	r0, [pc, #36]	; (8001034 <HAL_CRC_Init+0x38>)
 800100e:	f007 fa85 	bl	800851c <assert_failed>
 8001012:	7963      	ldrb	r3, [r4, #5]
 8001014:	f003 02ff 	and.w	r2, r3, #255	; 0xff
 8001018:	b91b      	cbnz	r3, 8001022 <HAL_CRC_Init+0x26>
 800101a:	7122      	strb	r2, [r4, #4]
 800101c:	4620      	mov	r0, r4
 800101e:	f006 f8a5 	bl	800716c <HAL_CRC_MspInit>
 8001022:	2301      	movs	r3, #1
 8001024:	7163      	strb	r3, [r4, #5]
 8001026:	2000      	movs	r0, #0
 8001028:	bd10      	pop	{r4, pc}
 800102a:	2001      	movs	r0, #1
 800102c:	e7fc      	b.n	8001028 <HAL_CRC_Init+0x2c>
 800102e:	bf00      	nop
 8001030:	40023000 	.word	0x40023000
 8001034:	0800b0cf 	.word	0x0800b0cf

08001038 <HAL_CRC_Calculate>:
 8001038:	2302      	movs	r3, #2
 800103a:	b510      	push	{r4, lr}
 800103c:	7143      	strb	r3, [r0, #5]
 800103e:	6803      	ldr	r3, [r0, #0]
 8001040:	689c      	ldr	r4, [r3, #8]
 8001042:	f044 0401 	orr.w	r4, r4, #1
 8001046:	609c      	str	r4, [r3, #8]
 8001048:	eb01 0282 	add.w	r2, r1, r2, lsl #2
 800104c:	4291      	cmp	r1, r2
 800104e:	d104      	bne.n	800105a <HAL_CRC_Calculate+0x22>
 8001050:	681b      	ldr	r3, [r3, #0]
 8001052:	2201      	movs	r2, #1
 8001054:	7142      	strb	r2, [r0, #5]
 8001056:	4618      	mov	r0, r3
 8001058:	bd10      	pop	{r4, pc}
 800105a:	f851 4b04 	ldr.w	r4, [r1], #4
 800105e:	601c      	str	r4, [r3, #0]
 8001060:	e7f4      	b.n	800104c <HAL_CRC_Calculate+0x14>
	...

08001064 <DMA_CalcBaseAndBitshift>:
 8001064:	6803      	ldr	r3, [r0, #0]
 8001066:	b2da      	uxtb	r2, r3
 8001068:	f423 737f 	bic.w	r3, r3, #1020	; 0x3fc
 800106c:	f023 0303 	bic.w	r3, r3, #3
 8001070:	2118      	movs	r1, #24
 8001072:	3a10      	subs	r2, #16
 8001074:	fbb2 f2f1 	udiv	r2, r2, r1
 8001078:	4904      	ldr	r1, [pc, #16]	; (800108c <DMA_CalcBaseAndBitshift+0x28>)
 800107a:	2a03      	cmp	r2, #3
 800107c:	bf88      	it	hi
 800107e:	3304      	addhi	r3, #4
 8001080:	5c89      	ldrb	r1, [r1, r2]
 8001082:	6583      	str	r3, [r0, #88]	; 0x58
 8001084:	65c1      	str	r1, [r0, #92]	; 0x5c
 8001086:	6d80      	ldr	r0, [r0, #88]	; 0x58
 8001088:	4770      	bx	lr
 800108a:	bf00      	nop
 800108c:	0800b13f 	.word	0x0800b13f

08001090 <HAL_DMA_Init>:
 8001090:	b570      	push	{r4, r5, r6, lr}
 8001092:	4604      	mov	r4, r0
 8001094:	f7ff ff36 	bl	8000f04 <HAL_GetTick>
 8001098:	4605      	mov	r5, r0
 800109a:	2c00      	cmp	r4, #0
 800109c:	f000 8117 	beq.w	80012ce <HAL_DMA_Init+0x23e>
 80010a0:	6823      	ldr	r3, [r4, #0]
 80010a2:	4a8c      	ldr	r2, [pc, #560]	; (80012d4 <HAL_DMA_Init+0x244>)
 80010a4:	4293      	cmp	r3, r2
 80010a6:	d031      	beq.n	800110c <HAL_DMA_Init+0x7c>
 80010a8:	3218      	adds	r2, #24
 80010aa:	4293      	cmp	r3, r2
 80010ac:	d02e      	beq.n	800110c <HAL_DMA_Init+0x7c>
 80010ae:	3218      	adds	r2, #24
 80010b0:	4293      	cmp	r3, r2
 80010b2:	d02b      	beq.n	800110c <HAL_DMA_Init+0x7c>
 80010b4:	3218      	adds	r2, #24
 80010b6:	4293      	cmp	r3, r2
 80010b8:	d028      	beq.n	800110c <HAL_DMA_Init+0x7c>
 80010ba:	3218      	adds	r2, #24
 80010bc:	4293      	cmp	r3, r2
 80010be:	d025      	beq.n	800110c <HAL_DMA_Init+0x7c>
 80010c0:	3218      	adds	r2, #24
 80010c2:	4293      	cmp	r3, r2
 80010c4:	d022      	beq.n	800110c <HAL_DMA_Init+0x7c>
 80010c6:	3218      	adds	r2, #24
 80010c8:	4293      	cmp	r3, r2
 80010ca:	d01f      	beq.n	800110c <HAL_DMA_Init+0x7c>
 80010cc:	3218      	adds	r2, #24
 80010ce:	4293      	cmp	r3, r2
 80010d0:	d01c      	beq.n	800110c <HAL_DMA_Init+0x7c>
 80010d2:	f502 7256 	add.w	r2, r2, #856	; 0x358
 80010d6:	4293      	cmp	r3, r2
 80010d8:	d018      	beq.n	800110c <HAL_DMA_Init+0x7c>
 80010da:	3218      	adds	r2, #24
 80010dc:	4293      	cmp	r3, r2
 80010de:	d015      	beq.n	800110c <HAL_DMA_Init+0x7c>
 80010e0:	3218      	adds	r2, #24
 80010e2:	4293      	cmp	r3, r2
 80010e4:	d012      	beq.n	800110c <HAL_DMA_Init+0x7c>
 80010e6:	3218      	adds	r2, #24
 80010e8:	4293      	cmp	r3, r2
 80010ea:	d00f      	beq.n	800110c <HAL_DMA_Init+0x7c>
 80010ec:	3218      	adds	r2, #24
 80010ee:	4293      	cmp	r3, r2
 80010f0:	d00c      	beq.n	800110c <HAL_DMA_Init+0x7c>
 80010f2:	3218      	adds	r2, #24
 80010f4:	4293      	cmp	r3, r2
 80010f6:	d009      	beq.n	800110c <HAL_DMA_Init+0x7c>
 80010f8:	3218      	adds	r2, #24
 80010fa:	4293      	cmp	r3, r2
 80010fc:	d006      	beq.n	800110c <HAL_DMA_Init+0x7c>
 80010fe:	3218      	adds	r2, #24
 8001100:	4293      	cmp	r3, r2
 8001102:	d003      	beq.n	800110c <HAL_DMA_Init+0x7c>
 8001104:	21b8      	movs	r1, #184	; 0xb8
 8001106:	4874      	ldr	r0, [pc, #464]	; (80012d8 <HAL_DMA_Init+0x248>)
 8001108:	f007 fa08 	bl	800851c <assert_failed>
 800110c:	6863      	ldr	r3, [r4, #4]
 800110e:	f033 63c0 	bics.w	r3, r3, #100663296	; 0x6000000
 8001112:	d006      	beq.n	8001122 <HAL_DMA_Init+0x92>
 8001114:	f1b3 6f00 	cmp.w	r3, #134217728	; 0x8000000
 8001118:	d003      	beq.n	8001122 <HAL_DMA_Init+0x92>
 800111a:	21b9      	movs	r1, #185	; 0xb9
 800111c:	486e      	ldr	r0, [pc, #440]	; (80012d8 <HAL_DMA_Init+0x248>)
 800111e:	f007 f9fd 	bl	800851c <assert_failed>
 8001122:	68a3      	ldr	r3, [r4, #8]
 8001124:	f033 0240 	bics.w	r2, r3, #64	; 0x40
 8001128:	d005      	beq.n	8001136 <HAL_DMA_Init+0xa6>
 800112a:	2b80      	cmp	r3, #128	; 0x80
 800112c:	d003      	beq.n	8001136 <HAL_DMA_Init+0xa6>
 800112e:	21ba      	movs	r1, #186	; 0xba
 8001130:	4869      	ldr	r0, [pc, #420]	; (80012d8 <HAL_DMA_Init+0x248>)
 8001132:	f007 f9f3 	bl	800851c <assert_failed>
 8001136:	68e3      	ldr	r3, [r4, #12]
 8001138:	f433 7300 	bics.w	r3, r3, #512	; 0x200
 800113c:	d003      	beq.n	8001146 <HAL_DMA_Init+0xb6>
 800113e:	21bb      	movs	r1, #187	; 0xbb
 8001140:	4865      	ldr	r0, [pc, #404]	; (80012d8 <HAL_DMA_Init+0x248>)
 8001142:	f007 f9eb 	bl	800851c <assert_failed>
 8001146:	6923      	ldr	r3, [r4, #16]
 8001148:	f433 6380 	bics.w	r3, r3, #1024	; 0x400
 800114c:	d003      	beq.n	8001156 <HAL_DMA_Init+0xc6>
 800114e:	21bc      	movs	r1, #188	; 0xbc
 8001150:	4861      	ldr	r0, [pc, #388]	; (80012d8 <HAL_DMA_Init+0x248>)
 8001152:	f007 f9e3 	bl	800851c <assert_failed>
 8001156:	6963      	ldr	r3, [r4, #20]
 8001158:	f433 6200 	bics.w	r2, r3, #2048	; 0x800
 800115c:	d006      	beq.n	800116c <HAL_DMA_Init+0xdc>
 800115e:	f5b3 5f80 	cmp.w	r3, #4096	; 0x1000
 8001162:	d003      	beq.n	800116c <HAL_DMA_Init+0xdc>
 8001164:	21bd      	movs	r1, #189	; 0xbd
 8001166:	485c      	ldr	r0, [pc, #368]	; (80012d8 <HAL_DMA_Init+0x248>)
 8001168:	f007 f9d8 	bl	800851c <assert_failed>
 800116c:	69a3      	ldr	r3, [r4, #24]
 800116e:	f433 5200 	bics.w	r2, r3, #8192	; 0x2000
 8001172:	d006      	beq.n	8001182 <HAL_DMA_Init+0xf2>
 8001174:	f5b3 4f80 	cmp.w	r3, #16384	; 0x4000
 8001178:	d003      	beq.n	8001182 <HAL_DMA_Init+0xf2>
 800117a:	21be      	movs	r1, #190	; 0xbe
 800117c:	4856      	ldr	r0, [pc, #344]	; (80012d8 <HAL_DMA_Init+0x248>)
 800117e:	f007 f9cd 	bl	800851c <assert_failed>
 8001182:	69e3      	ldr	r3, [r4, #28]
 8001184:	f033 0220 	bics.w	r2, r3, #32
 8001188:	d006      	beq.n	8001198 <HAL_DMA_Init+0x108>
 800118a:	f5b3 7f80 	cmp.w	r3, #256	; 0x100
 800118e:	d003      	beq.n	8001198 <HAL_DMA_Init+0x108>
 8001190:	21bf      	movs	r1, #191	; 0xbf
 8001192:	4851      	ldr	r0, [pc, #324]	; (80012d8 <HAL_DMA_Init+0x248>)
 8001194:	f007 f9c2 	bl	800851c <assert_failed>
 8001198:	6a23      	ldr	r3, [r4, #32]
 800119a:	f433 3340 	bics.w	r3, r3, #196608	; 0x30000
 800119e:	d003      	beq.n	80011a8 <HAL_DMA_Init+0x118>
 80011a0:	21c0      	movs	r1, #192	; 0xc0
 80011a2:	484d      	ldr	r0, [pc, #308]	; (80012d8 <HAL_DMA_Init+0x248>)
 80011a4:	f007 f9ba 	bl	800851c <assert_failed>
 80011a8:	6a63      	ldr	r3, [r4, #36]	; 0x24
 80011aa:	f033 0304 	bics.w	r3, r3, #4
 80011ae:	d003      	beq.n	80011b8 <HAL_DMA_Init+0x128>
 80011b0:	21c1      	movs	r1, #193	; 0xc1
 80011b2:	4849      	ldr	r0, [pc, #292]	; (80012d8 <HAL_DMA_Init+0x248>)
 80011b4:	f007 f9b2 	bl	800851c <assert_failed>
 80011b8:	6a63      	ldr	r3, [r4, #36]	; 0x24
 80011ba:	b1b3      	cbz	r3, 80011ea <HAL_DMA_Init+0x15a>
 80011bc:	6aa3      	ldr	r3, [r4, #40]	; 0x28
 80011be:	2b03      	cmp	r3, #3
 80011c0:	d903      	bls.n	80011ca <HAL_DMA_Init+0x13a>
 80011c2:	21c6      	movs	r1, #198	; 0xc6
 80011c4:	4844      	ldr	r0, [pc, #272]	; (80012d8 <HAL_DMA_Init+0x248>)
 80011c6:	f007 f9a9 	bl	800851c <assert_failed>
 80011ca:	6ae3      	ldr	r3, [r4, #44]	; 0x2c
 80011cc:	f033 73c0 	bics.w	r3, r3, #25165824	; 0x1800000
 80011d0:	d003      	beq.n	80011da <HAL_DMA_Init+0x14a>
 80011d2:	21c7      	movs	r1, #199	; 0xc7
 80011d4:	4840      	ldr	r0, [pc, #256]	; (80012d8 <HAL_DMA_Init+0x248>)
 80011d6:	f007 f9a1 	bl	800851c <assert_failed>
 80011da:	6b23      	ldr	r3, [r4, #48]	; 0x30
 80011dc:	f433 03c0 	bics.w	r3, r3, #6291456	; 0x600000
 80011e0:	d003      	beq.n	80011ea <HAL_DMA_Init+0x15a>
 80011e2:	21c8      	movs	r1, #200	; 0xc8
 80011e4:	483c      	ldr	r0, [pc, #240]	; (80012d8 <HAL_DMA_Init+0x248>)
 80011e6:	f007 f999 	bl	800851c <assert_failed>
 80011ea:	2300      	movs	r3, #0
 80011ec:	f884 3034 	strb.w	r3, [r4, #52]	; 0x34
 80011f0:	6822      	ldr	r2, [r4, #0]
 80011f2:	2302      	movs	r3, #2
 80011f4:	f884 3035 	strb.w	r3, [r4, #53]	; 0x35
 80011f8:	6813      	ldr	r3, [r2, #0]
 80011fa:	f023 0301 	bic.w	r3, r3, #1
 80011fe:	6013      	str	r3, [r2, #0]
 8001200:	6821      	ldr	r1, [r4, #0]
 8001202:	680b      	ldr	r3, [r1, #0]
 8001204:	07d8      	lsls	r0, r3, #31
 8001206:	d43c      	bmi.n	8001282 <HAL_DMA_Init+0x1f2>
 8001208:	680b      	ldr	r3, [r1, #0]
 800120a:	4d34      	ldr	r5, [pc, #208]	; (80012dc <HAL_DMA_Init+0x24c>)
 800120c:	69a0      	ldr	r0, [r4, #24]
 800120e:	401d      	ands	r5, r3
 8001210:	e9d4 2301 	ldrd	r2, r3, [r4, #4]
 8001214:	4313      	orrs	r3, r2
 8001216:	68e2      	ldr	r2, [r4, #12]
 8001218:	4313      	orrs	r3, r2
 800121a:	6922      	ldr	r2, [r4, #16]
 800121c:	4313      	orrs	r3, r2
 800121e:	6962      	ldr	r2, [r4, #20]
 8001220:	4313      	orrs	r3, r2
 8001222:	69e2      	ldr	r2, [r4, #28]
 8001224:	4303      	orrs	r3, r0
 8001226:	4313      	orrs	r3, r2
 8001228:	6a22      	ldr	r2, [r4, #32]
 800122a:	4313      	orrs	r3, r2
 800122c:	6a62      	ldr	r2, [r4, #36]	; 0x24
 800122e:	2a04      	cmp	r2, #4
 8001230:	ea43 0305 	orr.w	r3, r3, r5
 8001234:	bf02      	ittt	eq
 8001236:	e9d4 560b 	ldrdeq	r5, r6, [r4, #44]	; 0x2c
 800123a:	4335      	orreq	r5, r6
 800123c:	432b      	orreq	r3, r5
 800123e:	600b      	str	r3, [r1, #0]
 8001240:	694b      	ldr	r3, [r1, #20]
 8001242:	2a04      	cmp	r2, #4
 8001244:	f023 0307 	bic.w	r3, r3, #7
 8001248:	ea43 0302 	orr.w	r3, r3, r2
 800124c:	d10b      	bne.n	8001266 <HAL_DMA_Init+0x1d6>
 800124e:	6aa2      	ldr	r2, [r4, #40]	; 0x28
 8001250:	6ae5      	ldr	r5, [r4, #44]	; 0x2c
 8001252:	4313      	orrs	r3, r2
 8001254:	b13d      	cbz	r5, 8001266 <HAL_DMA_Init+0x1d6>
 8001256:	b9f8      	cbnz	r0, 8001298 <HAL_DMA_Init+0x208>
 8001258:	2a01      	cmp	r2, #1
 800125a:	d02d      	beq.n	80012b8 <HAL_DMA_Init+0x228>
 800125c:	d301      	bcc.n	8001262 <HAL_DMA_Init+0x1d2>
 800125e:	2a02      	cmp	r2, #2
 8001260:	d101      	bne.n	8001266 <HAL_DMA_Init+0x1d6>
 8001262:	01ea      	lsls	r2, r5, #7
 8001264:	d42b      	bmi.n	80012be <HAL_DMA_Init+0x22e>
 8001266:	614b      	str	r3, [r1, #20]
 8001268:	4620      	mov	r0, r4
 800126a:	f7ff fefb 	bl	8001064 <DMA_CalcBaseAndBitshift>
 800126e:	6de2      	ldr	r2, [r4, #92]	; 0x5c
 8001270:	233f      	movs	r3, #63	; 0x3f
 8001272:	4093      	lsls	r3, r2
 8001274:	6083      	str	r3, [r0, #8]
 8001276:	2000      	movs	r0, #0
 8001278:	2301      	movs	r3, #1
 800127a:	6560      	str	r0, [r4, #84]	; 0x54
 800127c:	f884 3035 	strb.w	r3, [r4, #53]	; 0x35
 8001280:	e009      	b.n	8001296 <HAL_DMA_Init+0x206>
 8001282:	f7ff fe3f 	bl	8000f04 <HAL_GetTick>
 8001286:	1b40      	subs	r0, r0, r5
 8001288:	2805      	cmp	r0, #5
 800128a:	d9b9      	bls.n	8001200 <HAL_DMA_Init+0x170>
 800128c:	2320      	movs	r3, #32
 800128e:	6563      	str	r3, [r4, #84]	; 0x54
 8001290:	2003      	movs	r0, #3
 8001292:	f884 0035 	strb.w	r0, [r4, #53]	; 0x35
 8001296:	bd70      	pop	{r4, r5, r6, pc}
 8001298:	f5b0 5f00 	cmp.w	r0, #8192	; 0x2000
 800129c:	d113      	bne.n	80012c6 <HAL_DMA_Init+0x236>
 800129e:	2a03      	cmp	r2, #3
 80012a0:	d8e1      	bhi.n	8001266 <HAL_DMA_Init+0x1d6>
 80012a2:	a001      	add	r0, pc, #4	; (adr r0, 80012a8 <HAL_DMA_Init+0x218>)
 80012a4:	f850 f022 	ldr.w	pc, [r0, r2, lsl #2]
 80012a8:	080012bf 	.word	0x080012bf
 80012ac:	08001263 	.word	0x08001263
 80012b0:	080012bf 	.word	0x080012bf
 80012b4:	080012b9 	.word	0x080012b9
 80012b8:	f1b5 7fc0 	cmp.w	r5, #25165824	; 0x1800000
 80012bc:	d1d3      	bne.n	8001266 <HAL_DMA_Init+0x1d6>
 80012be:	2340      	movs	r3, #64	; 0x40
 80012c0:	6563      	str	r3, [r4, #84]	; 0x54
 80012c2:	2001      	movs	r0, #1
 80012c4:	e7e5      	b.n	8001292 <HAL_DMA_Init+0x202>
 80012c6:	2a02      	cmp	r2, #2
 80012c8:	d9f9      	bls.n	80012be <HAL_DMA_Init+0x22e>
 80012ca:	2a03      	cmp	r2, #3
 80012cc:	e7c8      	b.n	8001260 <HAL_DMA_Init+0x1d0>
 80012ce:	2001      	movs	r0, #1
 80012d0:	e7e1      	b.n	8001296 <HAL_DMA_Init+0x206>
 80012d2:	bf00      	nop
 80012d4:	40026010 	.word	0x40026010
 80012d8:	0800b107 	.word	0x0800b107
 80012dc:	f010803f 	.word	0xf010803f

080012e0 <HAL_DMA_Start_IT>:
 80012e0:	e92d 41f0 	stmdb	sp!, {r4, r5, r6, r7, r8, lr}
 80012e4:	4617      	mov	r7, r2
 80012e6:	4698      	mov	r8, r3
 80012e8:	1e5a      	subs	r2, r3, #1
 80012ea:	f64f 73fe 	movw	r3, #65534	; 0xfffe
 80012ee:	429a      	cmp	r2, r3
 80012f0:	4604      	mov	r4, r0
 80012f2:	460d      	mov	r5, r1
 80012f4:	6d86      	ldr	r6, [r0, #88]	; 0x58
 80012f6:	d904      	bls.n	8001302 <HAL_DMA_Start_IT+0x22>
 80012f8:	f44f 71e6 	mov.w	r1, #460	; 0x1cc
 80012fc:	481f      	ldr	r0, [pc, #124]	; (800137c <HAL_DMA_Start_IT+0x9c>)
 80012fe:	f007 f90d 	bl	800851c <assert_failed>
 8001302:	f894 3034 	ldrb.w	r3, [r4, #52]	; 0x34
 8001306:	2b01      	cmp	r3, #1
 8001308:	d035      	beq.n	8001376 <HAL_DMA_Start_IT+0x96>
 800130a:	2301      	movs	r3, #1
 800130c:	f884 3034 	strb.w	r3, [r4, #52]	; 0x34
 8001310:	f894 3035 	ldrb.w	r3, [r4, #53]	; 0x35
 8001314:	2b01      	cmp	r3, #1
 8001316:	f04f 0002 	mov.w	r0, #2
 800131a:	f04f 0100 	mov.w	r1, #0
 800131e:	d127      	bne.n	8001370 <HAL_DMA_Start_IT+0x90>
 8001320:	f884 0035 	strb.w	r0, [r4, #53]	; 0x35
 8001324:	6561      	str	r1, [r4, #84]	; 0x54
 8001326:	6821      	ldr	r1, [r4, #0]
 8001328:	68a3      	ldr	r3, [r4, #8]
 800132a:	6808      	ldr	r0, [r1, #0]
 800132c:	6de2      	ldr	r2, [r4, #92]	; 0x5c
 800132e:	2b40      	cmp	r3, #64	; 0x40
 8001330:	f04f 033f 	mov.w	r3, #63	; 0x3f
 8001334:	fa03 f302 	lsl.w	r3, r3, r2
 8001338:	f420 2080 	bic.w	r0, r0, #262144	; 0x40000
 800133c:	6008      	str	r0, [r1, #0]
 800133e:	f8c1 8004 	str.w	r8, [r1, #4]
 8001342:	bf0b      	itete	eq
 8001344:	608f      	streq	r7, [r1, #8]
 8001346:	608d      	strne	r5, [r1, #8]
 8001348:	60cd      	streq	r5, [r1, #12]
 800134a:	60cf      	strne	r7, [r1, #12]
 800134c:	60b3      	str	r3, [r6, #8]
 800134e:	680b      	ldr	r3, [r1, #0]
 8001350:	f043 0316 	orr.w	r3, r3, #22
 8001354:	600b      	str	r3, [r1, #0]
 8001356:	6c23      	ldr	r3, [r4, #64]	; 0x40
 8001358:	b11b      	cbz	r3, 8001362 <HAL_DMA_Start_IT+0x82>
 800135a:	680b      	ldr	r3, [r1, #0]
 800135c:	f043 0308 	orr.w	r3, r3, #8
 8001360:	600b      	str	r3, [r1, #0]
 8001362:	680b      	ldr	r3, [r1, #0]
 8001364:	f043 0301 	orr.w	r3, r3, #1
 8001368:	600b      	str	r3, [r1, #0]
 800136a:	2000      	movs	r0, #0
 800136c:	e8bd 81f0 	ldmia.w	sp!, {r4, r5, r6, r7, r8, pc}
 8001370:	f884 1034 	strb.w	r1, [r4, #52]	; 0x34
 8001374:	e7fa      	b.n	800136c <HAL_DMA_Start_IT+0x8c>
 8001376:	2002      	movs	r0, #2
 8001378:	e7f8      	b.n	800136c <HAL_DMA_Start_IT+0x8c>
 800137a:	bf00      	nop
 800137c:	0800b107 	.word	0x0800b107

08001380 <HAL_DMA_Abort_IT>:
 8001380:	f890 3035 	ldrb.w	r3, [r0, #53]	; 0x35
 8001384:	2b02      	cmp	r3, #2
 8001386:	d003      	beq.n	8001390 <HAL_DMA_Abort_IT+0x10>
 8001388:	2380      	movs	r3, #128	; 0x80
 800138a:	6543      	str	r3, [r0, #84]	; 0x54
 800138c:	2001      	movs	r0, #1
 800138e:	4770      	bx	lr
 8001390:	6802      	ldr	r2, [r0, #0]
 8001392:	2305      	movs	r3, #5
 8001394:	f880 3035 	strb.w	r3, [r0, #53]	; 0x35
 8001398:	6813      	ldr	r3, [r2, #0]
 800139a:	f023 0301 	bic.w	r3, r3, #1
 800139e:	6013      	str	r3, [r2, #0]
 80013a0:	2000      	movs	r0, #0
 80013a2:	4770      	bx	lr

080013a4 <HAL_DMA_IRQHandler>:
 80013a4:	b5f7      	push	{r0, r1, r2, r4, r5, r6, r7, lr}
 80013a6:	2300      	movs	r3, #0
 80013a8:	9301      	str	r3, [sp, #4]
 80013aa:	4b5c      	ldr	r3, [pc, #368]	; (800151c <HAL_DMA_IRQHandler+0x178>)
 80013ac:	6d85      	ldr	r5, [r0, #88]	; 0x58
 80013ae:	681f      	ldr	r7, [r3, #0]
 80013b0:	6dc3      	ldr	r3, [r0, #92]	; 0x5c
 80013b2:	682e      	ldr	r6, [r5, #0]
 80013b4:	2208      	movs	r2, #8
 80013b6:	409a      	lsls	r2, r3
 80013b8:	4232      	tst	r2, r6
 80013ba:	4604      	mov	r4, r0
 80013bc:	d00c      	beq.n	80013d8 <HAL_DMA_IRQHandler+0x34>
 80013be:	6801      	ldr	r1, [r0, #0]
 80013c0:	6808      	ldr	r0, [r1, #0]
 80013c2:	0740      	lsls	r0, r0, #29
 80013c4:	d508      	bpl.n	80013d8 <HAL_DMA_IRQHandler+0x34>
 80013c6:	6808      	ldr	r0, [r1, #0]
 80013c8:	f020 0004 	bic.w	r0, r0, #4
 80013cc:	6008      	str	r0, [r1, #0]
 80013ce:	60aa      	str	r2, [r5, #8]
 80013d0:	6d62      	ldr	r2, [r4, #84]	; 0x54
 80013d2:	f042 0201 	orr.w	r2, r2, #1
 80013d6:	6562      	str	r2, [r4, #84]	; 0x54
 80013d8:	2201      	movs	r2, #1
 80013da:	409a      	lsls	r2, r3
 80013dc:	4232      	tst	r2, r6
 80013de:	d008      	beq.n	80013f2 <HAL_DMA_IRQHandler+0x4e>
 80013e0:	6821      	ldr	r1, [r4, #0]
 80013e2:	6949      	ldr	r1, [r1, #20]
 80013e4:	0609      	lsls	r1, r1, #24
 80013e6:	bf41      	itttt	mi
 80013e8:	60aa      	strmi	r2, [r5, #8]
 80013ea:	6d62      	ldrmi	r2, [r4, #84]	; 0x54
 80013ec:	f042 0202 	orrmi.w	r2, r2, #2
 80013f0:	6562      	strmi	r2, [r4, #84]	; 0x54
 80013f2:	2204      	movs	r2, #4
 80013f4:	409a      	lsls	r2, r3
 80013f6:	4232      	tst	r2, r6
 80013f8:	d008      	beq.n	800140c <HAL_DMA_IRQHandler+0x68>
 80013fa:	6821      	ldr	r1, [r4, #0]
 80013fc:	6809      	ldr	r1, [r1, #0]
 80013fe:	0788      	lsls	r0, r1, #30
 8001400:	bf41      	itttt	mi
 8001402:	60aa      	strmi	r2, [r5, #8]
 8001404:	6d62      	ldrmi	r2, [r4, #84]	; 0x54
 8001406:	f042 0204 	orrmi.w	r2, r2, #4
 800140a:	6562      	strmi	r2, [r4, #84]	; 0x54
 800140c:	2210      	movs	r2, #16
 800140e:	409a      	lsls	r2, r3
 8001410:	4232      	tst	r2, r6
 8001412:	d010      	beq.n	8001436 <HAL_DMA_IRQHandler+0x92>
 8001414:	6823      	ldr	r3, [r4, #0]
 8001416:	6819      	ldr	r1, [r3, #0]
 8001418:	0709      	lsls	r1, r1, #28
 800141a:	d50c      	bpl.n	8001436 <HAL_DMA_IRQHandler+0x92>
 800141c:	60aa      	str	r2, [r5, #8]
 800141e:	681a      	ldr	r2, [r3, #0]
 8001420:	0350      	lsls	r0, r2, #13
 8001422:	d537      	bpl.n	8001494 <HAL_DMA_IRQHandler+0xf0>
 8001424:	681b      	ldr	r3, [r3, #0]
 8001426:	0319      	lsls	r1, r3, #12
 8001428:	d401      	bmi.n	800142e <HAL_DMA_IRQHandler+0x8a>
 800142a:	6c23      	ldr	r3, [r4, #64]	; 0x40
 800142c:	e000      	b.n	8001430 <HAL_DMA_IRQHandler+0x8c>
 800142e:	6ca3      	ldr	r3, [r4, #72]	; 0x48
 8001430:	b10b      	cbz	r3, 8001436 <HAL_DMA_IRQHandler+0x92>
 8001432:	4620      	mov	r0, r4
 8001434:	4798      	blx	r3
 8001436:	6de1      	ldr	r1, [r4, #92]	; 0x5c
 8001438:	2220      	movs	r2, #32
 800143a:	408a      	lsls	r2, r1
 800143c:	4232      	tst	r2, r6
 800143e:	d03a      	beq.n	80014b6 <HAL_DMA_IRQHandler+0x112>
 8001440:	6823      	ldr	r3, [r4, #0]
 8001442:	6818      	ldr	r0, [r3, #0]
 8001444:	06c6      	lsls	r6, r0, #27
 8001446:	d536      	bpl.n	80014b6 <HAL_DMA_IRQHandler+0x112>
 8001448:	60aa      	str	r2, [r5, #8]
 800144a:	f894 2035 	ldrb.w	r2, [r4, #53]	; 0x35
 800144e:	2a05      	cmp	r2, #5
 8001450:	681a      	ldr	r2, [r3, #0]
 8001452:	d127      	bne.n	80014a4 <HAL_DMA_IRQHandler+0x100>
 8001454:	f022 0216 	bic.w	r2, r2, #22
 8001458:	601a      	str	r2, [r3, #0]
 800145a:	695a      	ldr	r2, [r3, #20]
 800145c:	f022 0280 	bic.w	r2, r2, #128	; 0x80
 8001460:	615a      	str	r2, [r3, #20]
 8001462:	6c22      	ldr	r2, [r4, #64]	; 0x40
 8001464:	b90a      	cbnz	r2, 800146a <HAL_DMA_IRQHandler+0xc6>
 8001466:	6ca2      	ldr	r2, [r4, #72]	; 0x48
 8001468:	b11a      	cbz	r2, 8001472 <HAL_DMA_IRQHandler+0xce>
 800146a:	681a      	ldr	r2, [r3, #0]
 800146c:	f022 0208 	bic.w	r2, r2, #8
 8001470:	601a      	str	r2, [r3, #0]
 8001472:	233f      	movs	r3, #63	; 0x3f
 8001474:	408b      	lsls	r3, r1
 8001476:	60ab      	str	r3, [r5, #8]
 8001478:	2300      	movs	r3, #0
 800147a:	f884 3034 	strb.w	r3, [r4, #52]	; 0x34
 800147e:	2301      	movs	r3, #1
 8001480:	f884 3035 	strb.w	r3, [r4, #53]	; 0x35
 8001484:	6d23      	ldr	r3, [r4, #80]	; 0x50
 8001486:	2b00      	cmp	r3, #0
 8001488:	d045      	beq.n	8001516 <HAL_DMA_IRQHandler+0x172>
 800148a:	4620      	mov	r0, r4
 800148c:	b003      	add	sp, #12
 800148e:	e8bd 40f0 	ldmia.w	sp!, {r4, r5, r6, r7, lr}
 8001492:	4718      	bx	r3
 8001494:	681a      	ldr	r2, [r3, #0]
 8001496:	05d2      	lsls	r2, r2, #23
 8001498:	bf5e      	ittt	pl
 800149a:	681a      	ldrpl	r2, [r3, #0]
 800149c:	f022 0208 	bicpl.w	r2, r2, #8
 80014a0:	601a      	strpl	r2, [r3, #0]
 80014a2:	e7c2      	b.n	800142a <HAL_DMA_IRQHandler+0x86>
 80014a4:	0350      	lsls	r0, r2, #13
 80014a6:	d527      	bpl.n	80014f8 <HAL_DMA_IRQHandler+0x154>
 80014a8:	681b      	ldr	r3, [r3, #0]
 80014aa:	0319      	lsls	r1, r3, #12
 80014ac:	d431      	bmi.n	8001512 <HAL_DMA_IRQHandler+0x16e>
 80014ae:	6c63      	ldr	r3, [r4, #68]	; 0x44
 80014b0:	b10b      	cbz	r3, 80014b6 <HAL_DMA_IRQHandler+0x112>
 80014b2:	4620      	mov	r0, r4
 80014b4:	4798      	blx	r3
 80014b6:	6d63      	ldr	r3, [r4, #84]	; 0x54
 80014b8:	b36b      	cbz	r3, 8001516 <HAL_DMA_IRQHandler+0x172>
 80014ba:	6d63      	ldr	r3, [r4, #84]	; 0x54
 80014bc:	07da      	lsls	r2, r3, #31
 80014be:	d519      	bpl.n	80014f4 <HAL_DMA_IRQHandler+0x150>
 80014c0:	2305      	movs	r3, #5
 80014c2:	6822      	ldr	r2, [r4, #0]
 80014c4:	f884 3035 	strb.w	r3, [r4, #53]	; 0x35
 80014c8:	6813      	ldr	r3, [r2, #0]
 80014ca:	f023 0301 	bic.w	r3, r3, #1
 80014ce:	6013      	str	r3, [r2, #0]
 80014d0:	f44f 5316 	mov.w	r3, #9600	; 0x2580
 80014d4:	fbb7 f7f3 	udiv	r7, r7, r3
 80014d8:	9b01      	ldr	r3, [sp, #4]
 80014da:	3301      	adds	r3, #1
 80014dc:	42bb      	cmp	r3, r7
 80014de:	9301      	str	r3, [sp, #4]
 80014e0:	d802      	bhi.n	80014e8 <HAL_DMA_IRQHandler+0x144>
 80014e2:	6813      	ldr	r3, [r2, #0]
 80014e4:	07db      	lsls	r3, r3, #31
 80014e6:	d4f7      	bmi.n	80014d8 <HAL_DMA_IRQHandler+0x134>
 80014e8:	2300      	movs	r3, #0
 80014ea:	f884 3034 	strb.w	r3, [r4, #52]	; 0x34
 80014ee:	2301      	movs	r3, #1
 80014f0:	f884 3035 	strb.w	r3, [r4, #53]	; 0x35
 80014f4:	6ce3      	ldr	r3, [r4, #76]	; 0x4c
 80014f6:	e7c6      	b.n	8001486 <HAL_DMA_IRQHandler+0xe2>
 80014f8:	681a      	ldr	r2, [r3, #0]
 80014fa:	f412 7280 	ands.w	r2, r2, #256	; 0x100
 80014fe:	d108      	bne.n	8001512 <HAL_DMA_IRQHandler+0x16e>
 8001500:	6819      	ldr	r1, [r3, #0]
 8001502:	f021 0110 	bic.w	r1, r1, #16
 8001506:	6019      	str	r1, [r3, #0]
 8001508:	2301      	movs	r3, #1
 800150a:	f884 2034 	strb.w	r2, [r4, #52]	; 0x34
 800150e:	f884 3035 	strb.w	r3, [r4, #53]	; 0x35
 8001512:	6be3      	ldr	r3, [r4, #60]	; 0x3c
 8001514:	e7cc      	b.n	80014b0 <HAL_DMA_IRQHandler+0x10c>
 8001516:	b003      	add	sp, #12
 8001518:	bdf0      	pop	{r4, r5, r6, r7, pc}
 800151a:	bf00      	nop
 800151c:	20000090 	.word	0x20000090

08001520 <FLASH_SetErrorCode>:
 8001520:	4b20      	ldr	r3, [pc, #128]	; (80015a4 <FLASH_SetErrorCode+0x84>)
 8001522:	68da      	ldr	r2, [r3, #12]
 8001524:	06d0      	lsls	r0, r2, #27
 8001526:	d506      	bpl.n	8001536 <FLASH_SetErrorCode+0x16>
 8001528:	491f      	ldr	r1, [pc, #124]	; (80015a8 <FLASH_SetErrorCode+0x88>)
 800152a:	69ca      	ldr	r2, [r1, #28]
 800152c:	f042 0210 	orr.w	r2, r2, #16
 8001530:	61ca      	str	r2, [r1, #28]
 8001532:	2210      	movs	r2, #16
 8001534:	60da      	str	r2, [r3, #12]
 8001536:	68da      	ldr	r2, [r3, #12]
 8001538:	0691      	lsls	r1, r2, #26
 800153a:	d506      	bpl.n	800154a <FLASH_SetErrorCode+0x2a>
 800153c:	491a      	ldr	r1, [pc, #104]	; (80015a8 <FLASH_SetErrorCode+0x88>)
 800153e:	69ca      	ldr	r2, [r1, #28]
 8001540:	f042 0208 	orr.w	r2, r2, #8
 8001544:	61ca      	str	r2, [r1, #28]
 8001546:	2220      	movs	r2, #32
 8001548:	60da      	str	r2, [r3, #12]
 800154a:	4b16      	ldr	r3, [pc, #88]	; (80015a4 <FLASH_SetErrorCode+0x84>)
 800154c:	68da      	ldr	r2, [r3, #12]
 800154e:	0652      	lsls	r2, r2, #25
 8001550:	d506      	bpl.n	8001560 <FLASH_SetErrorCode+0x40>
 8001552:	4915      	ldr	r1, [pc, #84]	; (80015a8 <FLASH_SetErrorCode+0x88>)
 8001554:	69ca      	ldr	r2, [r1, #28]
 8001556:	f042 0204 	orr.w	r2, r2, #4
 800155a:	61ca      	str	r2, [r1, #28]
 800155c:	2240      	movs	r2, #64	; 0x40
 800155e:	60da      	str	r2, [r3, #12]
 8001560:	68da      	ldr	r2, [r3, #12]
 8001562:	0610      	lsls	r0, r2, #24
 8001564:	d506      	bpl.n	8001574 <FLASH_SetErrorCode+0x54>
 8001566:	4910      	ldr	r1, [pc, #64]	; (80015a8 <FLASH_SetErrorCode+0x88>)
 8001568:	69ca      	ldr	r2, [r1, #28]
 800156a:	f042 0202 	orr.w	r2, r2, #2
 800156e:	61ca      	str	r2, [r1, #28]
 8001570:	2280      	movs	r2, #128	; 0x80
 8001572:	60da      	str	r2, [r3, #12]
 8001574:	4b0b      	ldr	r3, [pc, #44]	; (80015a4 <FLASH_SetErrorCode+0x84>)
 8001576:	68da      	ldr	r2, [r3, #12]
 8001578:	05d1      	lsls	r1, r2, #23
 800157a:	d507      	bpl.n	800158c <FLASH_SetErrorCode+0x6c>
 800157c:	490a      	ldr	r1, [pc, #40]	; (80015a8 <FLASH_SetErrorCode+0x88>)
 800157e:	69ca      	ldr	r2, [r1, #28]
 8001580:	f042 0201 	orr.w	r2, r2, #1
 8001584:	61ca      	str	r2, [r1, #28]
 8001586:	f44f 7280 	mov.w	r2, #256	; 0x100
 800158a:	60da      	str	r2, [r3, #12]
 800158c:	68da      	ldr	r2, [r3, #12]
 800158e:	0792      	lsls	r2, r2, #30
 8001590:	d506      	bpl.n	80015a0 <FLASH_SetErrorCode+0x80>
 8001592:	4905      	ldr	r1, [pc, #20]	; (80015a8 <FLASH_SetErrorCode+0x88>)
 8001594:	69ca      	ldr	r2, [r1, #28]
 8001596:	f042 0220 	orr.w	r2, r2, #32
 800159a:	61ca      	str	r2, [r1, #28]
 800159c:	2202      	movs	r2, #2
 800159e:	60da      	str	r2, [r3, #12]
 80015a0:	4770      	bx	lr
 80015a2:	bf00      	nop
 80015a4:	40023c00 	.word	0x40023c00
 80015a8:	20001080 	.word	0x20001080

080015ac <FLASH_Program_Byte>:
 80015ac:	b538      	push	{r3, r4, r5, lr}
 80015ae:	f100 4378 	add.w	r3, r0, #4160749568	; 0xf8000000
 80015b2:	f5b3 2f00 	cmp.w	r3, #524288	; 0x80000
 80015b6:	4604      	mov	r4, r0
 80015b8:	460d      	mov	r5, r1
 80015ba:	d30b      	bcc.n	80015d4 <FLASH_Program_Byte+0x28>
 80015bc:	f100 4360 	add.w	r3, r0, #3758096384	; 0xe0000000
 80015c0:	f503 4308 	add.w	r3, r3, #34816	; 0x8800
 80015c4:	f5b3 7f04 	cmp.w	r3, #528	; 0x210
 80015c8:	d304      	bcc.n	80015d4 <FLASH_Program_Byte+0x28>
 80015ca:	f240 21bb 	movw	r1, #699	; 0x2bb
 80015ce:	4808      	ldr	r0, [pc, #32]	; (80015f0 <FLASH_Program_Byte+0x44>)
 80015d0:	f006 ffa4 	bl	800851c <assert_failed>
 80015d4:	4b07      	ldr	r3, [pc, #28]	; (80015f4 <FLASH_Program_Byte+0x48>)
 80015d6:	691a      	ldr	r2, [r3, #16]
 80015d8:	f422 7240 	bic.w	r2, r2, #768	; 0x300
 80015dc:	611a      	str	r2, [r3, #16]
 80015de:	691a      	ldr	r2, [r3, #16]
 80015e0:	611a      	str	r2, [r3, #16]
 80015e2:	691a      	ldr	r2, [r3, #16]
 80015e4:	f042 0201 	orr.w	r2, r2, #1
 80015e8:	611a      	str	r2, [r3, #16]
 80015ea:	7025      	strb	r5, [r4, #0]
 80015ec:	bd38      	pop	{r3, r4, r5, pc}
 80015ee:	bf00      	nop
 80015f0:	0800b147 	.word	0x0800b147
 80015f4:	40023c00 	.word	0x40023c00

080015f8 <FLASH_Program_HalfWord>:
 80015f8:	b538      	push	{r3, r4, r5, lr}
 80015fa:	f100 4378 	add.w	r3, r0, #4160749568	; 0xf8000000
 80015fe:	f5b3 2f00 	cmp.w	r3, #524288	; 0x80000
 8001602:	4604      	mov	r4, r0
 8001604:	460d      	mov	r5, r1
 8001606:	d30b      	bcc.n	8001620 <FLASH_Program_HalfWord+0x28>
 8001608:	f100 4360 	add.w	r3, r0, #3758096384	; 0xe0000000
 800160c:	f503 4308 	add.w	r3, r3, #34816	; 0x8800
 8001610:	f5b3 7f04 	cmp.w	r3, #528	; 0x210
 8001614:	d304      	bcc.n	8001620 <FLASH_Program_HalfWord+0x28>
 8001616:	f240 21a2 	movw	r1, #674	; 0x2a2
 800161a:	4809      	ldr	r0, [pc, #36]	; (8001640 <FLASH_Program_HalfWord+0x48>)
 800161c:	f006 ff7e 	bl	800851c <assert_failed>
 8001620:	4b08      	ldr	r3, [pc, #32]	; (8001644 <FLASH_Program_HalfWord+0x4c>)
 8001622:	691a      	ldr	r2, [r3, #16]
 8001624:	f422 7240 	bic.w	r2, r2, #768	; 0x300
 8001628:	611a      	str	r2, [r3, #16]
 800162a:	691a      	ldr	r2, [r3, #16]
 800162c:	f442 7280 	orr.w	r2, r2, #256	; 0x100
 8001630:	611a      	str	r2, [r3, #16]
 8001632:	691a      	ldr	r2, [r3, #16]
 8001634:	f042 0201 	orr.w	r2, r2, #1
 8001638:	611a      	str	r2, [r3, #16]
 800163a:	8025      	strh	r5, [r4, #0]
 800163c:	bd38      	pop	{r3, r4, r5, pc}
 800163e:	bf00      	nop
 8001640:	0800b147 	.word	0x0800b147
 8001644:	40023c00 	.word	0x40023c00

08001648 <FLASH_Program_Word>:
 8001648:	b538      	push	{r3, r4, r5, lr}
 800164a:	f100 4378 	add.w	r3, r0, #4160749568	; 0xf8000000
 800164e:	f5b3 2f00 	cmp.w	r3, #524288	; 0x80000
 8001652:	4604      	mov	r4, r0
 8001654:	460d      	mov	r5, r1
 8001656:	d30b      	bcc.n	8001670 <FLASH_Program_Word+0x28>
 8001658:	f100 4360 	add.w	r3, r0, #3758096384	; 0xe0000000
 800165c:	f503 4308 	add.w	r3, r3, #34816	; 0x8800
 8001660:	f5b3 7f04 	cmp.w	r3, #528	; 0x210
 8001664:	d304      	bcc.n	8001670 <FLASH_Program_Word+0x28>
 8001666:	f240 2189 	movw	r1, #649	; 0x289
 800166a:	4809      	ldr	r0, [pc, #36]	; (8001690 <FLASH_Program_Word+0x48>)
 800166c:	f006 ff56 	bl	800851c <assert_failed>
 8001670:	4b08      	ldr	r3, [pc, #32]	; (8001694 <FLASH_Program_Word+0x4c>)
 8001672:	691a      	ldr	r2, [r3, #16]
 8001674:	f422 7240 	bic.w	r2, r2, #768	; 0x300
 8001678:	611a      	str	r2, [r3, #16]
 800167a:	691a      	ldr	r2, [r3, #16]
 800167c:	f442 7200 	orr.w	r2, r2, #512	; 0x200
 8001680:	611a      	str	r2, [r3, #16]
 8001682:	691a      	ldr	r2, [r3, #16]
 8001684:	f042 0201 	orr.w	r2, r2, #1
 8001688:	611a      	str	r2, [r3, #16]
 800168a:	6025      	str	r5, [r4, #0]
 800168c:	bd38      	pop	{r3, r4, r5, pc}
 800168e:	bf00      	nop
 8001690:	0800b147 	.word	0x0800b147
 8001694:	40023c00 	.word	0x40023c00

08001698 <FLASH_Program_DoubleWord>:
 8001698:	b570      	push	{r4, r5, r6, lr}
 800169a:	461e      	mov	r6, r3
 800169c:	f100 4378 	add.w	r3, r0, #4160749568	; 0xf8000000
 80016a0:	f5b3 2f00 	cmp.w	r3, #524288	; 0x80000
 80016a4:	4604      	mov	r4, r0
 80016a6:	4615      	mov	r5, r2
 80016a8:	d30b      	bcc.n	80016c2 <FLASH_Program_DoubleWord+0x2a>
 80016aa:	f100 4360 	add.w	r3, r0, #3758096384	; 0xe0000000
 80016ae:	f503 4308 	add.w	r3, r3, #34816	; 0x8800
 80016b2:	f5b3 7f04 	cmp.w	r3, #528	; 0x210
 80016b6:	d304      	bcc.n	80016c2 <FLASH_Program_DoubleWord+0x2a>
 80016b8:	f240 2167 	movw	r1, #615	; 0x267
 80016bc:	480a      	ldr	r0, [pc, #40]	; (80016e8 <FLASH_Program_DoubleWord+0x50>)
 80016be:	f006 ff2d 	bl	800851c <assert_failed>
 80016c2:	490a      	ldr	r1, [pc, #40]	; (80016ec <FLASH_Program_DoubleWord+0x54>)
 80016c4:	6908      	ldr	r0, [r1, #16]
 80016c6:	f420 7040 	bic.w	r0, r0, #768	; 0x300
 80016ca:	6108      	str	r0, [r1, #16]
 80016cc:	6908      	ldr	r0, [r1, #16]
 80016ce:	f440 7040 	orr.w	r0, r0, #768	; 0x300
 80016d2:	6108      	str	r0, [r1, #16]
 80016d4:	6908      	ldr	r0, [r1, #16]
 80016d6:	f040 0001 	orr.w	r0, r0, #1
 80016da:	6108      	str	r0, [r1, #16]
 80016dc:	6025      	str	r5, [r4, #0]
 80016de:	f3bf 8f6f 	isb	sy
 80016e2:	6066      	str	r6, [r4, #4]
 80016e4:	bd70      	pop	{r4, r5, r6, pc}
 80016e6:	bf00      	nop
 80016e8:	0800b147 	.word	0x0800b147
 80016ec:	40023c00 	.word	0x40023c00

080016f0 <HAL_FLASH_Unlock>:
 80016f0:	4b06      	ldr	r3, [pc, #24]	; (800170c <HAL_FLASH_Unlock+0x1c>)
 80016f2:	691a      	ldr	r2, [r3, #16]
 80016f4:	2a00      	cmp	r2, #0
 80016f6:	bfbf      	itttt	lt
 80016f8:	4a05      	ldrlt	r2, [pc, #20]	; (8001710 <HAL_FLASH_Unlock+0x20>)
 80016fa:	605a      	strlt	r2, [r3, #4]
 80016fc:	f102 3288 	addlt.w	r2, r2, #2290649224	; 0x88888888
 8001700:	605a      	strlt	r2, [r3, #4]
 8001702:	bfba      	itte	lt
 8001704:	6918      	ldrlt	r0, [r3, #16]
 8001706:	0fc0      	lsrlt	r0, r0, #31
 8001708:	2000      	movge	r0, #0
 800170a:	4770      	bx	lr
 800170c:	40023c00 	.word	0x40023c00
 8001710:	45670123 	.word	0x45670123

08001714 <HAL_FLASH_Lock>:
 8001714:	4a03      	ldr	r2, [pc, #12]	; (8001724 <HAL_FLASH_Lock+0x10>)
 8001716:	6913      	ldr	r3, [r2, #16]
 8001718:	f043 4300 	orr.w	r3, r3, #2147483648	; 0x80000000
 800171c:	6113      	str	r3, [r2, #16]
 800171e:	2000      	movs	r0, #0
 8001720:	4770      	bx	lr
 8001722:	bf00      	nop
 8001724:	40023c00 	.word	0x40023c00

08001728 <HAL_FLASH_OB_Unlock>:
 8001728:	4b06      	ldr	r3, [pc, #24]	; (8001744 <HAL_FLASH_OB_Unlock+0x1c>)
 800172a:	695a      	ldr	r2, [r3, #20]
 800172c:	07d2      	lsls	r2, r2, #31
 800172e:	bf41      	itttt	mi
 8001730:	4a05      	ldrmi	r2, [pc, #20]	; (8001748 <HAL_FLASH_OB_Unlock+0x20>)
 8001732:	609a      	strmi	r2, [r3, #8]
 8001734:	f102 3244 	addmi.w	r2, r2, #1145324612	; 0x44444444
 8001738:	2000      	movmi	r0, #0
 800173a:	bf4c      	ite	mi
 800173c:	609a      	strmi	r2, [r3, #8]
 800173e:	2001      	movpl	r0, #1
 8001740:	4770      	bx	lr
 8001742:	bf00      	nop
 8001744:	40023c00 	.word	0x40023c00
 8001748:	08192a3b 	.word	0x08192a3b

0800174c <HAL_FLASH_OB_Lock>:
 800174c:	4a03      	ldr	r2, [pc, #12]	; (800175c <HAL_FLASH_OB_Lock+0x10>)
 800174e:	6953      	ldr	r3, [r2, #20]
 8001750:	f043 0301 	orr.w	r3, r3, #1
 8001754:	6153      	str	r3, [r2, #20]
 8001756:	2000      	movs	r0, #0
 8001758:	4770      	bx	lr
 800175a:	bf00      	nop
 800175c:	40023c00 	.word	0x40023c00

08001760 <FLASH_WaitForLastOperation>:
 8001760:	b5f8      	push	{r3, r4, r5, r6, r7, lr}
 8001762:	4b12      	ldr	r3, [pc, #72]	; (80017ac <FLASH_WaitForLastOperation+0x4c>)
 8001764:	4c12      	ldr	r4, [pc, #72]	; (80017b0 <FLASH_WaitForLastOperation+0x50>)
 8001766:	2200      	movs	r2, #0
 8001768:	4605      	mov	r5, r0
 800176a:	61da      	str	r2, [r3, #28]
 800176c:	f7ff fbca 	bl	8000f04 <HAL_GetTick>
 8001770:	4626      	mov	r6, r4
 8001772:	4607      	mov	r7, r0
 8001774:	68e3      	ldr	r3, [r4, #12]
 8001776:	03da      	lsls	r2, r3, #15
 8001778:	d40c      	bmi.n	8001794 <FLASH_WaitForLastOperation+0x34>
 800177a:	68e3      	ldr	r3, [r4, #12]
 800177c:	07db      	lsls	r3, r3, #31
 800177e:	bf44      	itt	mi
 8001780:	2301      	movmi	r3, #1
 8001782:	60e3      	strmi	r3, [r4, #12]
 8001784:	68f0      	ldr	r0, [r6, #12]
 8001786:	f410 70f9 	ands.w	r0, r0, #498	; 0x1f2
 800178a:	d007      	beq.n	800179c <FLASH_WaitForLastOperation+0x3c>
 800178c:	f7ff fec8 	bl	8001520 <FLASH_SetErrorCode>
 8001790:	2001      	movs	r0, #1
 8001792:	e003      	b.n	800179c <FLASH_WaitForLastOperation+0x3c>
 8001794:	1c69      	adds	r1, r5, #1
 8001796:	d0ed      	beq.n	8001774 <FLASH_WaitForLastOperation+0x14>
 8001798:	b90d      	cbnz	r5, 800179e <FLASH_WaitForLastOperation+0x3e>
 800179a:	2003      	movs	r0, #3
 800179c:	bdf8      	pop	{r3, r4, r5, r6, r7, pc}
 800179e:	f7ff fbb1 	bl	8000f04 <HAL_GetTick>
 80017a2:	1bc0      	subs	r0, r0, r7
 80017a4:	42a8      	cmp	r0, r5
 80017a6:	d9e5      	bls.n	8001774 <FLASH_WaitForLastOperation+0x14>
 80017a8:	e7f7      	b.n	800179a <FLASH_WaitForLastOperation+0x3a>
 80017aa:	bf00      	nop
 80017ac:	20001080 	.word	0x20001080
 80017b0:	40023c00 	.word	0x40023c00

080017b4 <HAL_FLASH_Program>:
 80017b4:	e92d 41f0 	stmdb	sp!, {r4, r5, r6, r7, r8, lr}
 80017b8:	4c1e      	ldr	r4, [pc, #120]	; (8001834 <HAL_FLASH_Program+0x80>)
 80017ba:	4698      	mov	r8, r3
 80017bc:	7e23      	ldrb	r3, [r4, #24]
 80017be:	2b01      	cmp	r3, #1
 80017c0:	4607      	mov	r7, r0
 80017c2:	460d      	mov	r5, r1
 80017c4:	4616      	mov	r6, r2
 80017c6:	d032      	beq.n	800182e <HAL_FLASH_Program+0x7a>
 80017c8:	2301      	movs	r3, #1
 80017ca:	2803      	cmp	r0, #3
 80017cc:	7623      	strb	r3, [r4, #24]
 80017ce:	d903      	bls.n	80017d8 <HAL_FLASH_Program+0x24>
 80017d0:	21a4      	movs	r1, #164	; 0xa4
 80017d2:	4819      	ldr	r0, [pc, #100]	; (8001838 <HAL_FLASH_Program+0x84>)
 80017d4:	f006 fea2 	bl	800851c <assert_failed>
 80017d8:	f24c 3050 	movw	r0, #50000	; 0xc350
 80017dc:	f7ff ffc0 	bl	8001760 <FLASH_WaitForLastOperation>
 80017e0:	b968      	cbnz	r0, 80017fe <HAL_FLASH_Program+0x4a>
 80017e2:	b987      	cbnz	r7, 8001806 <HAL_FLASH_Program+0x52>
 80017e4:	b2f1      	uxtb	r1, r6
 80017e6:	4628      	mov	r0, r5
 80017e8:	f7ff fee0 	bl	80015ac <FLASH_Program_Byte>
 80017ec:	f24c 3050 	movw	r0, #50000	; 0xc350
 80017f0:	f7ff ffb6 	bl	8001760 <FLASH_WaitForLastOperation>
 80017f4:	4a11      	ldr	r2, [pc, #68]	; (800183c <HAL_FLASH_Program+0x88>)
 80017f6:	6913      	ldr	r3, [r2, #16]
 80017f8:	f023 0301 	bic.w	r3, r3, #1
 80017fc:	6113      	str	r3, [r2, #16]
 80017fe:	2300      	movs	r3, #0
 8001800:	7623      	strb	r3, [r4, #24]
 8001802:	e8bd 81f0 	ldmia.w	sp!, {r4, r5, r6, r7, r8, pc}
 8001806:	2f01      	cmp	r7, #1
 8001808:	d104      	bne.n	8001814 <HAL_FLASH_Program+0x60>
 800180a:	b2b1      	uxth	r1, r6
 800180c:	4628      	mov	r0, r5
 800180e:	f7ff fef3 	bl	80015f8 <FLASH_Program_HalfWord>
 8001812:	e7eb      	b.n	80017ec <HAL_FLASH_Program+0x38>
 8001814:	2f02      	cmp	r7, #2
 8001816:	d104      	bne.n	8001822 <HAL_FLASH_Program+0x6e>
 8001818:	4631      	mov	r1, r6
 800181a:	4628      	mov	r0, r5
 800181c:	f7ff ff14 	bl	8001648 <FLASH_Program_Word>
 8001820:	e7e4      	b.n	80017ec <HAL_FLASH_Program+0x38>
 8001822:	4632      	mov	r2, r6
 8001824:	4643      	mov	r3, r8
 8001826:	4628      	mov	r0, r5
 8001828:	f7ff ff36 	bl	8001698 <FLASH_Program_DoubleWord>
 800182c:	e7de      	b.n	80017ec <HAL_FLASH_Program+0x38>
 800182e:	2002      	movs	r0, #2
 8001830:	e7e7      	b.n	8001802 <HAL_FLASH_Program+0x4e>
 8001832:	bf00      	nop
 8001834:	20001080 	.word	0x20001080
 8001838:	0800b147 	.word	0x0800b147
 800183c:	40023c00 	.word	0x40023c00

08001840 <HAL_FLASH_OB_Launch>:
 8001840:	4a04      	ldr	r2, [pc, #16]	; (8001854 <HAL_FLASH_OB_Launch+0x14>)
 8001842:	7813      	ldrb	r3, [r2, #0]
 8001844:	f043 0302 	orr.w	r3, r3, #2
 8001848:	7013      	strb	r3, [r2, #0]
 800184a:	f24c 3050 	movw	r0, #50000	; 0xc350
 800184e:	f7ff bf87 	b.w	8001760 <FLASH_WaitForLastOperation>
 8001852:	bf00      	nop
 8001854:	40023c14 	.word	0x40023c14

08001858 <HAL_FLASHEx_OBProgram>:
 8001858:	b5f8      	push	{r3, r4, r5, r6, r7, lr}
 800185a:	4e4d      	ldr	r6, [pc, #308]	; (8001990 <HAL_FLASHEx_OBProgram+0x138>)
 800185c:	7e33      	ldrb	r3, [r6, #24]
 800185e:	2b01      	cmp	r3, #1
 8001860:	4604      	mov	r4, r0
 8001862:	f000 8092 	beq.w	800198a <HAL_FLASHEx_OBProgram+0x132>
 8001866:	2301      	movs	r3, #1
 8001868:	7633      	strb	r3, [r6, #24]
 800186a:	6803      	ldr	r3, [r0, #0]
 800186c:	2b0f      	cmp	r3, #15
 800186e:	d904      	bls.n	800187a <HAL_FLASHEx_OBProgram+0x22>
 8001870:	f44f 7193 	mov.w	r1, #294	; 0x126
 8001874:	4847      	ldr	r0, [pc, #284]	; (8001994 <HAL_FLASHEx_OBProgram+0x13c>)
 8001876:	f006 fe51 	bl	800851c <assert_failed>
 800187a:	6823      	ldr	r3, [r4, #0]
 800187c:	07d8      	lsls	r0, r3, #31
 800187e:	f140 8082 	bpl.w	8001986 <HAL_FLASHEx_OBProgram+0x12e>
 8001882:	6863      	ldr	r3, [r4, #4]
 8001884:	2b01      	cmp	r3, #1
 8001886:	d904      	bls.n	8001892 <HAL_FLASHEx_OBProgram+0x3a>
 8001888:	f240 112b 	movw	r1, #299	; 0x12b
 800188c:	4841      	ldr	r0, [pc, #260]	; (8001994 <HAL_FLASHEx_OBProgram+0x13c>)
 800188e:	f006 fe45 	bl	800851c <assert_failed>
 8001892:	e9d4 5702 	ldrd	r5, r7, [r4, #8]
 8001896:	6862      	ldr	r2, [r4, #4]
 8001898:	f425 637f 	bic.w	r3, r5, #4080	; 0xff0
 800189c:	2a01      	cmp	r2, #1
 800189e:	f023 030f 	bic.w	r3, r3, #15
 80018a2:	d156      	bne.n	8001952 <HAL_FLASHEx_OBProgram+0xfa>
 80018a4:	b903      	cbnz	r3, 80018a8 <HAL_FLASHEx_OBProgram+0x50>
 80018a6:	b925      	cbnz	r5, 80018b2 <HAL_FLASHEx_OBProgram+0x5a>
 80018a8:	f240 410d 	movw	r1, #1037	; 0x40d
 80018ac:	4839      	ldr	r0, [pc, #228]	; (8001994 <HAL_FLASHEx_OBProgram+0x13c>)
 80018ae:	f006 fe35 	bl	800851c <assert_failed>
 80018b2:	2f01      	cmp	r7, #1
 80018b4:	d004      	beq.n	80018c0 <HAL_FLASHEx_OBProgram+0x68>
 80018b6:	f240 410e 	movw	r1, #1038	; 0x40e
 80018ba:	4836      	ldr	r0, [pc, #216]	; (8001994 <HAL_FLASHEx_OBProgram+0x13c>)
 80018bc:	f006 fe2e 	bl	800851c <assert_failed>
 80018c0:	f24c 3050 	movw	r0, #50000	; 0xc350
 80018c4:	f7ff ff4c 	bl	8001760 <FLASH_WaitForLastOperation>
 80018c8:	b920      	cbnz	r0, 80018d4 <HAL_FLASHEx_OBProgram+0x7c>
 80018ca:	4a33      	ldr	r2, [pc, #204]	; (8001998 <HAL_FLASHEx_OBProgram+0x140>)
 80018cc:	8813      	ldrh	r3, [r2, #0]
 80018ce:	ea23 0505 	bic.w	r5, r3, r5
 80018d2:	8015      	strh	r5, [r2, #0]
 80018d4:	6823      	ldr	r3, [r4, #0]
 80018d6:	0799      	lsls	r1, r3, #30
 80018d8:	d512      	bpl.n	8001900 <HAL_FLASHEx_OBProgram+0xa8>
 80018da:	7c25      	ldrb	r5, [r4, #16]
 80018dc:	2daa      	cmp	r5, #170	; 0xaa
 80018de:	d008      	beq.n	80018f2 <HAL_FLASHEx_OBProgram+0x9a>
 80018e0:	2d55      	cmp	r5, #85	; 0x55
 80018e2:	d006      	beq.n	80018f2 <HAL_FLASHEx_OBProgram+0x9a>
 80018e4:	2dcc      	cmp	r5, #204	; 0xcc
 80018e6:	d004      	beq.n	80018f2 <HAL_FLASHEx_OBProgram+0x9a>
 80018e8:	f240 418f 	movw	r1, #1167	; 0x48f
 80018ec:	4829      	ldr	r0, [pc, #164]	; (8001994 <HAL_FLASHEx_OBProgram+0x13c>)
 80018ee:	f006 fe15 	bl	800851c <assert_failed>
 80018f2:	f24c 3050 	movw	r0, #50000	; 0xc350
 80018f6:	f7ff ff33 	bl	8001760 <FLASH_WaitForLastOperation>
 80018fa:	b908      	cbnz	r0, 8001900 <HAL_FLASHEx_OBProgram+0xa8>
 80018fc:	4b27      	ldr	r3, [pc, #156]	; (800199c <HAL_FLASHEx_OBProgram+0x144>)
 80018fe:	701d      	strb	r5, [r3, #0]
 8001900:	6823      	ldr	r3, [r4, #0]
 8001902:	075a      	lsls	r2, r3, #29
 8001904:	d50d      	bpl.n	8001922 <HAL_FLASHEx_OBProgram+0xca>
 8001906:	f24c 3050 	movw	r0, #50000	; 0xc350
 800190a:	7e25      	ldrb	r5, [r4, #24]
 800190c:	f7ff ff28 	bl	8001760 <FLASH_WaitForLastOperation>
 8001910:	b938      	cbnz	r0, 8001922 <HAL_FLASHEx_OBProgram+0xca>
 8001912:	4a23      	ldr	r2, [pc, #140]	; (80019a0 <HAL_FLASHEx_OBProgram+0x148>)
 8001914:	7813      	ldrb	r3, [r2, #0]
 8001916:	f025 051f 	bic.w	r5, r5, #31
 800191a:	f003 031f 	and.w	r3, r3, #31
 800191e:	432b      	orrs	r3, r5
 8001920:	7013      	strb	r3, [r2, #0]
 8001922:	6823      	ldr	r3, [r4, #0]
 8001924:	071b      	lsls	r3, r3, #28
 8001926:	d511      	bpl.n	800194c <HAL_FLASHEx_OBProgram+0xf4>
 8001928:	7d24      	ldrb	r4, [r4, #20]
 800192a:	f014 0ff3 	tst.w	r4, #243	; 0xf3
 800192e:	d004      	beq.n	800193a <HAL_FLASHEx_OBProgram+0xe2>
 8001930:	f240 41d2 	movw	r1, #1234	; 0x4d2
 8001934:	4817      	ldr	r0, [pc, #92]	; (8001994 <HAL_FLASHEx_OBProgram+0x13c>)
 8001936:	f006 fdf1 	bl	800851c <assert_failed>
 800193a:	4b19      	ldr	r3, [pc, #100]	; (80019a0 <HAL_FLASHEx_OBProgram+0x148>)
 800193c:	781a      	ldrb	r2, [r3, #0]
 800193e:	f002 02f3 	and.w	r2, r2, #243	; 0xf3
 8001942:	701a      	strb	r2, [r3, #0]
 8001944:	781a      	ldrb	r2, [r3, #0]
 8001946:	4314      	orrs	r4, r2
 8001948:	701c      	strb	r4, [r3, #0]
 800194a:	2000      	movs	r0, #0
 800194c:	2300      	movs	r3, #0
 800194e:	7633      	strb	r3, [r6, #24]
 8001950:	bdf8      	pop	{r3, r4, r5, r6, r7, pc}
 8001952:	b903      	cbnz	r3, 8001956 <HAL_FLASHEx_OBProgram+0xfe>
 8001954:	b925      	cbnz	r5, 8001960 <HAL_FLASHEx_OBProgram+0x108>
 8001956:	f240 4131 	movw	r1, #1073	; 0x431
 800195a:	480e      	ldr	r0, [pc, #56]	; (8001994 <HAL_FLASHEx_OBProgram+0x13c>)
 800195c:	f006 fdde 	bl	800851c <assert_failed>
 8001960:	2f01      	cmp	r7, #1
 8001962:	d004      	beq.n	800196e <HAL_FLASHEx_OBProgram+0x116>
 8001964:	f240 4132 	movw	r1, #1074	; 0x432
 8001968:	480a      	ldr	r0, [pc, #40]	; (8001994 <HAL_FLASHEx_OBProgram+0x13c>)
 800196a:	f006 fdd7 	bl	800851c <assert_failed>
 800196e:	f24c 3050 	movw	r0, #50000	; 0xc350
 8001972:	f7ff fef5 	bl	8001760 <FLASH_WaitForLastOperation>
 8001976:	2800      	cmp	r0, #0
 8001978:	d1ac      	bne.n	80018d4 <HAL_FLASHEx_OBProgram+0x7c>
 800197a:	4b07      	ldr	r3, [pc, #28]	; (8001998 <HAL_FLASHEx_OBProgram+0x140>)
 800197c:	881a      	ldrh	r2, [r3, #0]
 800197e:	4315      	orrs	r5, r2
 8001980:	b2ad      	uxth	r5, r5
 8001982:	801d      	strh	r5, [r3, #0]
 8001984:	e7a6      	b.n	80018d4 <HAL_FLASHEx_OBProgram+0x7c>
 8001986:	2001      	movs	r0, #1
 8001988:	e7a4      	b.n	80018d4 <HAL_FLASHEx_OBProgram+0x7c>
 800198a:	2002      	movs	r0, #2
 800198c:	e7e0      	b.n	8001950 <HAL_FLASHEx_OBProgram+0xf8>
 800198e:	bf00      	nop
 8001990:	20001080 	.word	0x20001080
 8001994:	0800b181 	.word	0x0800b181
 8001998:	40023c16 	.word	0x40023c16
 800199c:	40023c15 	.word	0x40023c15
 80019a0:	40023c14 	.word	0x40023c14

080019a4 <HAL_FLASHEx_OBGetConfig>:
 80019a4:	230f      	movs	r3, #15
 80019a6:	6003      	str	r3, [r0, #0]
 80019a8:	4b0c      	ldr	r3, [pc, #48]	; (80019dc <HAL_FLASHEx_OBGetConfig+0x38>)
 80019aa:	4a0d      	ldr	r2, [pc, #52]	; (80019e0 <HAL_FLASHEx_OBGetConfig+0x3c>)
 80019ac:	881b      	ldrh	r3, [r3, #0]
 80019ae:	6083      	str	r3, [r0, #8]
 80019b0:	7813      	ldrb	r3, [r2, #0]
 80019b2:	b2db      	uxtb	r3, r3
 80019b4:	2bcc      	cmp	r3, #204	; 0xcc
 80019b6:	d004      	beq.n	80019c2 <HAL_FLASHEx_OBGetConfig+0x1e>
 80019b8:	7813      	ldrb	r3, [r2, #0]
 80019ba:	2baa      	cmp	r3, #170	; 0xaa
 80019bc:	bf0c      	ite	eq
 80019be:	23aa      	moveq	r3, #170	; 0xaa
 80019c0:	2355      	movne	r3, #85	; 0x55
 80019c2:	6103      	str	r3, [r0, #16]
 80019c4:	4b07      	ldr	r3, [pc, #28]	; (80019e4 <HAL_FLASHEx_OBGetConfig+0x40>)
 80019c6:	695b      	ldr	r3, [r3, #20]
 80019c8:	f023 031f 	bic.w	r3, r3, #31
 80019cc:	7603      	strb	r3, [r0, #24]
 80019ce:	4b06      	ldr	r3, [pc, #24]	; (80019e8 <HAL_FLASHEx_OBGetConfig+0x44>)
 80019d0:	781b      	ldrb	r3, [r3, #0]
 80019d2:	f003 030c 	and.w	r3, r3, #12
 80019d6:	6143      	str	r3, [r0, #20]
 80019d8:	4770      	bx	lr
 80019da:	bf00      	nop
 80019dc:	40023c16 	.word	0x40023c16
 80019e0:	40023c15 	.word	0x40023c15
 80019e4:	40023c00 	.word	0x40023c00
 80019e8:	40023c14 	.word	0x40023c14

080019ec <FLASH_Erase_Sector>:
 80019ec:	2807      	cmp	r0, #7
 80019ee:	b538      	push	{r3, r4, r5, lr}
 80019f0:	4605      	mov	r5, r0
 80019f2:	460c      	mov	r4, r1
 80019f4:	d904      	bls.n	8001a00 <FLASH_Erase_Sector+0x14>
 80019f6:	f240 31db 	movw	r1, #987	; 0x3db
 80019fa:	4817      	ldr	r0, [pc, #92]	; (8001a58 <FLASH_Erase_Sector+0x6c>)
 80019fc:	f006 fd8e 	bl	800851c <assert_failed>
 8001a00:	2c03      	cmp	r4, #3
 8001a02:	d921      	bls.n	8001a48 <FLASH_Erase_Sector+0x5c>
 8001a04:	f44f 7177 	mov.w	r1, #988	; 0x3dc
 8001a08:	4813      	ldr	r0, [pc, #76]	; (8001a58 <FLASH_Erase_Sector+0x6c>)
 8001a0a:	f006 fd87 	bl	800851c <assert_failed>
 8001a0e:	2c02      	cmp	r4, #2
 8001a10:	bf0c      	ite	eq
 8001a12:	f44f 7400 	moveq.w	r4, #512	; 0x200
 8001a16:	f44f 7440 	movne.w	r4, #768	; 0x300
 8001a1a:	4b10      	ldr	r3, [pc, #64]	; (8001a5c <FLASH_Erase_Sector+0x70>)
 8001a1c:	691a      	ldr	r2, [r3, #16]
 8001a1e:	f422 7240 	bic.w	r2, r2, #768	; 0x300
 8001a22:	611a      	str	r2, [r3, #16]
 8001a24:	691a      	ldr	r2, [r3, #16]
 8001a26:	4314      	orrs	r4, r2
 8001a28:	611c      	str	r4, [r3, #16]
 8001a2a:	691a      	ldr	r2, [r3, #16]
 8001a2c:	f022 02f8 	bic.w	r2, r2, #248	; 0xf8
 8001a30:	611a      	str	r2, [r3, #16]
 8001a32:	6918      	ldr	r0, [r3, #16]
 8001a34:	f040 0002 	orr.w	r0, r0, #2
 8001a38:	ea40 00c5 	orr.w	r0, r0, r5, lsl #3
 8001a3c:	6118      	str	r0, [r3, #16]
 8001a3e:	691a      	ldr	r2, [r3, #16]
 8001a40:	f442 3280 	orr.w	r2, r2, #65536	; 0x10000
 8001a44:	611a      	str	r2, [r3, #16]
 8001a46:	bd38      	pop	{r3, r4, r5, pc}
 8001a48:	2c00      	cmp	r4, #0
 8001a4a:	d0e6      	beq.n	8001a1a <FLASH_Erase_Sector+0x2e>
 8001a4c:	2c01      	cmp	r4, #1
 8001a4e:	d1de      	bne.n	8001a0e <FLASH_Erase_Sector+0x22>
 8001a50:	f44f 7480 	mov.w	r4, #256	; 0x100
 8001a54:	e7e1      	b.n	8001a1a <FLASH_Erase_Sector+0x2e>
 8001a56:	bf00      	nop
 8001a58:	0800b181 	.word	0x0800b181
 8001a5c:	40023c00 	.word	0x40023c00

08001a60 <HAL_GPIO_Init>:
 8001a60:	4b90      	ldr	r3, [pc, #576]	; (8001ca4 <HAL_GPIO_Init+0x244>)
 8001a62:	4298      	cmp	r0, r3
 8001a64:	e92d 4ff7 	stmdb	sp!, {r0, r1, r2, r4, r5, r6, r7, r8, r9, sl, fp, lr}
 8001a68:	4604      	mov	r4, r0
 8001a6a:	460d      	mov	r5, r1
 8001a6c:	d017      	beq.n	8001a9e <HAL_GPIO_Init+0x3e>
 8001a6e:	f503 6380 	add.w	r3, r3, #1024	; 0x400
 8001a72:	4298      	cmp	r0, r3
 8001a74:	d013      	beq.n	8001a9e <HAL_GPIO_Init+0x3e>
 8001a76:	f503 6380 	add.w	r3, r3, #1024	; 0x400
 8001a7a:	4298      	cmp	r0, r3
 8001a7c:	d00f      	beq.n	8001a9e <HAL_GPIO_Init+0x3e>
 8001a7e:	f503 6380 	add.w	r3, r3, #1024	; 0x400
 8001a82:	4298      	cmp	r0, r3
 8001a84:	d00b      	beq.n	8001a9e <HAL_GPIO_Init+0x3e>
 8001a86:	f503 6380 	add.w	r3, r3, #1024	; 0x400
 8001a8a:	4298      	cmp	r0, r3
 8001a8c:	d007      	beq.n	8001a9e <HAL_GPIO_Init+0x3e>
 8001a8e:	f503 6340 	add.w	r3, r3, #3072	; 0xc00
 8001a92:	4298      	cmp	r0, r3
 8001a94:	d003      	beq.n	8001a9e <HAL_GPIO_Init+0x3e>
 8001a96:	21b3      	movs	r1, #179	; 0xb3
 8001a98:	4883      	ldr	r0, [pc, #524]	; (8001ca8 <HAL_GPIO_Init+0x248>)
 8001a9a:	f006 fd3f 	bl	800851c <assert_failed>
 8001a9e:	682b      	ldr	r3, [r5, #0]
 8001aa0:	b29a      	uxth	r2, r3
 8001aa2:	b112      	cbz	r2, 8001aaa <HAL_GPIO_Init+0x4a>
 8001aa4:	0c1b      	lsrs	r3, r3, #16
 8001aa6:	041b      	lsls	r3, r3, #16
 8001aa8:	b11b      	cbz	r3, 8001ab2 <HAL_GPIO_Init+0x52>
 8001aaa:	21b4      	movs	r1, #180	; 0xb4
 8001aac:	487e      	ldr	r0, [pc, #504]	; (8001ca8 <HAL_GPIO_Init+0x248>)
 8001aae:	f006 fd35 	bl	800851c <assert_failed>
 8001ab2:	686b      	ldr	r3, [r5, #4]
 8001ab4:	2b03      	cmp	r3, #3
 8001ab6:	d917      	bls.n	8001ae8 <HAL_GPIO_Init+0x88>
 8001ab8:	f1a3 0211 	sub.w	r2, r3, #17
 8001abc:	2a01      	cmp	r2, #1
 8001abe:	d913      	bls.n	8001ae8 <HAL_GPIO_Init+0x88>
 8001ac0:	497a      	ldr	r1, [pc, #488]	; (8001cac <HAL_GPIO_Init+0x24c>)
 8001ac2:	f423 1200 	bic.w	r2, r3, #2097152	; 0x200000
 8001ac6:	428a      	cmp	r2, r1
 8001ac8:	d00e      	beq.n	8001ae8 <HAL_GPIO_Init+0x88>
 8001aca:	f501 1180 	add.w	r1, r1, #1048576	; 0x100000
 8001ace:	428b      	cmp	r3, r1
 8001ad0:	d00a      	beq.n	8001ae8 <HAL_GPIO_Init+0x88>
 8001ad2:	f5a1 2170 	sub.w	r1, r1, #983040	; 0xf0000
 8001ad6:	428a      	cmp	r2, r1
 8001ad8:	d006      	beq.n	8001ae8 <HAL_GPIO_Init+0x88>
 8001ada:	4a75      	ldr	r2, [pc, #468]	; (8001cb0 <HAL_GPIO_Init+0x250>)
 8001adc:	4293      	cmp	r3, r2
 8001ade:	d003      	beq.n	8001ae8 <HAL_GPIO_Init+0x88>
 8001ae0:	21b5      	movs	r1, #181	; 0xb5
 8001ae2:	4871      	ldr	r0, [pc, #452]	; (8001ca8 <HAL_GPIO_Init+0x248>)
 8001ae4:	f006 fd1a 	bl	800851c <assert_failed>
 8001ae8:	68ab      	ldr	r3, [r5, #8]
 8001aea:	2b02      	cmp	r3, #2
 8001aec:	d903      	bls.n	8001af6 <HAL_GPIO_Init+0x96>
 8001aee:	21b6      	movs	r1, #182	; 0xb6
 8001af0:	486d      	ldr	r0, [pc, #436]	; (8001ca8 <HAL_GPIO_Init+0x248>)
 8001af2:	f006 fd13 	bl	800851c <assert_failed>
 8001af6:	f8df 81c4 	ldr.w	r8, [pc, #452]	; 8001cbc <HAL_GPIO_Init+0x25c>
 8001afa:	4f6e      	ldr	r7, [pc, #440]	; (8001cb4 <HAL_GPIO_Init+0x254>)
 8001afc:	2600      	movs	r6, #0
 8001afe:	f04f 0a01 	mov.w	sl, #1
 8001b02:	682b      	ldr	r3, [r5, #0]
 8001b04:	fa0a fa06 	lsl.w	sl, sl, r6
 8001b08:	ea0a 0903 	and.w	r9, sl, r3
 8001b0c:	45ca      	cmp	sl, r9
 8001b0e:	f040 80bc 	bne.w	8001c8a <HAL_GPIO_Init+0x22a>
 8001b12:	686b      	ldr	r3, [r5, #4]
 8001b14:	f023 0310 	bic.w	r3, r3, #16
 8001b18:	3b01      	subs	r3, #1
 8001b1a:	2b01      	cmp	r3, #1
 8001b1c:	ea4f 0b46 	mov.w	fp, r6, lsl #1
 8001b20:	d81b      	bhi.n	8001b5a <HAL_GPIO_Init+0xfa>
 8001b22:	68eb      	ldr	r3, [r5, #12]
 8001b24:	2b03      	cmp	r3, #3
 8001b26:	d903      	bls.n	8001b30 <HAL_GPIO_Init+0xd0>
 8001b28:	21c8      	movs	r1, #200	; 0xc8
 8001b2a:	485f      	ldr	r0, [pc, #380]	; (8001ca8 <HAL_GPIO_Init+0x248>)
 8001b2c:	f006 fcf6 	bl	800851c <assert_failed>
 8001b30:	68a3      	ldr	r3, [r4, #8]
 8001b32:	2203      	movs	r2, #3
 8001b34:	fa02 f20b 	lsl.w	r2, r2, fp
 8001b38:	ea23 0202 	bic.w	r2, r3, r2
 8001b3c:	68eb      	ldr	r3, [r5, #12]
 8001b3e:	fa03 f30b 	lsl.w	r3, r3, fp
 8001b42:	4313      	orrs	r3, r2
 8001b44:	60a3      	str	r3, [r4, #8]
 8001b46:	6863      	ldr	r3, [r4, #4]
 8001b48:	ea23 0a0a 	bic.w	sl, r3, sl
 8001b4c:	686b      	ldr	r3, [r5, #4]
 8001b4e:	f3c3 1300 	ubfx	r3, r3, #4, #1
 8001b52:	40b3      	lsls	r3, r6
 8001b54:	ea43 030a 	orr.w	r3, r3, sl
 8001b58:	6063      	str	r3, [r4, #4]
 8001b5a:	f04f 0a03 	mov.w	sl, #3
 8001b5e:	68e2      	ldr	r2, [r4, #12]
 8001b60:	68ab      	ldr	r3, [r5, #8]
 8001b62:	fa0a fa0b 	lsl.w	sl, sl, fp
 8001b66:	ea6f 0a0a 	mvn.w	sl, sl
 8001b6a:	ea0a 0202 	and.w	r2, sl, r2
 8001b6e:	fa03 f30b 	lsl.w	r3, r3, fp
 8001b72:	4313      	orrs	r3, r2
 8001b74:	60e3      	str	r3, [r4, #12]
 8001b76:	686b      	ldr	r3, [r5, #4]
 8001b78:	f023 0310 	bic.w	r3, r3, #16
 8001b7c:	2b02      	cmp	r3, #2
 8001b7e:	d11a      	bne.n	8001bb6 <HAL_GPIO_Init+0x156>
 8001b80:	692a      	ldr	r2, [r5, #16]
 8001b82:	2a0f      	cmp	r2, #15
 8001b84:	d804      	bhi.n	8001b90 <HAL_GPIO_Init+0x130>
 8001b86:	f249 73f7 	movw	r3, #38903	; 0x97f7
 8001b8a:	40d3      	lsrs	r3, r2
 8001b8c:	07d9      	lsls	r1, r3, #31
 8001b8e:	d403      	bmi.n	8001b98 <HAL_GPIO_Init+0x138>
 8001b90:	21e0      	movs	r1, #224	; 0xe0
 8001b92:	4845      	ldr	r0, [pc, #276]	; (8001ca8 <HAL_GPIO_Init+0x248>)
 8001b94:	f006 fcc2 	bl	800851c <assert_failed>
 8001b98:	08f2      	lsrs	r2, r6, #3
 8001b9a:	eb04 0282 	add.w	r2, r4, r2, lsl #2
 8001b9e:	f006 0307 	and.w	r3, r6, #7
 8001ba2:	0099      	lsls	r1, r3, #2
 8001ba4:	6a10      	ldr	r0, [r2, #32]
 8001ba6:	230f      	movs	r3, #15
 8001ba8:	408b      	lsls	r3, r1
 8001baa:	ea20 0003 	bic.w	r0, r0, r3
 8001bae:	692b      	ldr	r3, [r5, #16]
 8001bb0:	408b      	lsls	r3, r1
 8001bb2:	4303      	orrs	r3, r0
 8001bb4:	6213      	str	r3, [r2, #32]
 8001bb6:	6823      	ldr	r3, [r4, #0]
 8001bb8:	6869      	ldr	r1, [r5, #4]
 8001bba:	ea0a 0a03 	and.w	sl, sl, r3
 8001bbe:	f001 0303 	and.w	r3, r1, #3
 8001bc2:	fa03 fb0b 	lsl.w	fp, r3, fp
 8001bc6:	ea4b 030a 	orr.w	r3, fp, sl
 8001bca:	00ca      	lsls	r2, r1, #3
 8001bcc:	6023      	str	r3, [r4, #0]
 8001bce:	d55c      	bpl.n	8001c8a <HAL_GPIO_Init+0x22a>
 8001bd0:	4a39      	ldr	r2, [pc, #228]	; (8001cb8 <HAL_GPIO_Init+0x258>)
 8001bd2:	2300      	movs	r3, #0
 8001bd4:	9301      	str	r3, [sp, #4]
 8001bd6:	6c50      	ldr	r0, [r2, #68]	; 0x44
 8001bd8:	f440 4080 	orr.w	r0, r0, #16384	; 0x4000
 8001bdc:	6450      	str	r0, [r2, #68]	; 0x44
 8001bde:	6c52      	ldr	r2, [r2, #68]	; 0x44
 8001be0:	f026 0003 	bic.w	r0, r6, #3
 8001be4:	f100 4080 	add.w	r0, r0, #1073741824	; 0x40000000
 8001be8:	f402 4280 	and.w	r2, r2, #16384	; 0x4000
 8001bec:	f500 309c 	add.w	r0, r0, #79872	; 0x13800
 8001bf0:	9201      	str	r2, [sp, #4]
 8001bf2:	f006 0c03 	and.w	ip, r6, #3
 8001bf6:	9a01      	ldr	r2, [sp, #4]
 8001bf8:	f8d0 e008 	ldr.w	lr, [r0, #8]
 8001bfc:	ea4f 0c8c 	mov.w	ip, ip, lsl #2
 8001c00:	220f      	movs	r2, #15
 8001c02:	fa02 f20c 	lsl.w	r2, r2, ip
 8001c06:	ea2e 0e02 	bic.w	lr, lr, r2
 8001c0a:	4a26      	ldr	r2, [pc, #152]	; (8001ca4 <HAL_GPIO_Init+0x244>)
 8001c0c:	4294      	cmp	r4, r2
 8001c0e:	d011      	beq.n	8001c34 <HAL_GPIO_Init+0x1d4>
 8001c10:	42bc      	cmp	r4, r7
 8001c12:	d041      	beq.n	8001c98 <HAL_GPIO_Init+0x238>
 8001c14:	f103 4380 	add.w	r3, r3, #1073741824	; 0x40000000
 8001c18:	f503 3302 	add.w	r3, r3, #133120	; 0x20800
 8001c1c:	429c      	cmp	r4, r3
 8001c1e:	d03d      	beq.n	8001c9c <HAL_GPIO_Init+0x23c>
 8001c20:	f503 6380 	add.w	r3, r3, #1024	; 0x400
 8001c24:	429c      	cmp	r4, r3
 8001c26:	d03b      	beq.n	8001ca0 <HAL_GPIO_Init+0x240>
 8001c28:	f503 6380 	add.w	r3, r3, #1024	; 0x400
 8001c2c:	429c      	cmp	r4, r3
 8001c2e:	bf14      	ite	ne
 8001c30:	2307      	movne	r3, #7
 8001c32:	2304      	moveq	r3, #4
 8001c34:	fa03 f30c 	lsl.w	r3, r3, ip
 8001c38:	ea43 030e 	orr.w	r3, r3, lr
 8001c3c:	6083      	str	r3, [r0, #8]
 8001c3e:	f8d8 2000 	ldr.w	r2, [r8]
 8001c42:	ea6f 0009 	mvn.w	r0, r9
 8001c46:	03cb      	lsls	r3, r1, #15
 8001c48:	bf54      	ite	pl
 8001c4a:	4002      	andpl	r2, r0
 8001c4c:	ea49 0202 	orrmi.w	r2, r9, r2
 8001c50:	f8c8 2000 	str.w	r2, [r8]
 8001c54:	f8d8 2004 	ldr.w	r2, [r8, #4]
 8001c58:	038b      	lsls	r3, r1, #14
 8001c5a:	bf54      	ite	pl
 8001c5c:	4002      	andpl	r2, r0
 8001c5e:	ea49 0202 	orrmi.w	r2, r9, r2
 8001c62:	f8c8 2004 	str.w	r2, [r8, #4]
 8001c66:	f8d8 2008 	ldr.w	r2, [r8, #8]
 8001c6a:	02cb      	lsls	r3, r1, #11
 8001c6c:	bf54      	ite	pl
 8001c6e:	4002      	andpl	r2, r0
 8001c70:	ea49 0202 	orrmi.w	r2, r9, r2
 8001c74:	f8c8 2008 	str.w	r2, [r8, #8]
 8001c78:	f8d8 300c 	ldr.w	r3, [r8, #12]
 8001c7c:	028a      	lsls	r2, r1, #10
 8001c7e:	bf54      	ite	pl
 8001c80:	4003      	andpl	r3, r0
 8001c82:	ea49 0303 	orrmi.w	r3, r9, r3
 8001c86:	f8c8 300c 	str.w	r3, [r8, #12]
 8001c8a:	3601      	adds	r6, #1
 8001c8c:	2e10      	cmp	r6, #16
 8001c8e:	f47f af36 	bne.w	8001afe <HAL_GPIO_Init+0x9e>
 8001c92:	b003      	add	sp, #12
 8001c94:	e8bd 8ff0 	ldmia.w	sp!, {r4, r5, r6, r7, r8, r9, sl, fp, pc}
 8001c98:	2301      	movs	r3, #1
 8001c9a:	e7cb      	b.n	8001c34 <HAL_GPIO_Init+0x1d4>
 8001c9c:	2302      	movs	r3, #2
 8001c9e:	e7c9      	b.n	8001c34 <HAL_GPIO_Init+0x1d4>
 8001ca0:	2303      	movs	r3, #3
 8001ca2:	e7c7      	b.n	8001c34 <HAL_GPIO_Init+0x1d4>
 8001ca4:	40020000 	.word	0x40020000
 8001ca8:	0800b1be 	.word	0x0800b1be
 8001cac:	10110000 	.word	0x10110000
 8001cb0:	10220000 	.word	0x10220000
 8001cb4:	40020400 	.word	0x40020400
 8001cb8:	40023800 	.word	0x40023800
 8001cbc:	40013c00 	.word	0x40013c00

08001cc0 <HAL_GPIO_WritePin>:
 8001cc0:	b570      	push	{r4, r5, r6, lr}
 8001cc2:	4605      	mov	r5, r0
 8001cc4:	4616      	mov	r6, r2
 8001cc6:	460c      	mov	r4, r1
 8001cc8:	b921      	cbnz	r1, 8001cd4 <HAL_GPIO_WritePin+0x14>
 8001cca:	f240 119f 	movw	r1, #415	; 0x19f
 8001cce:	4808      	ldr	r0, [pc, #32]	; (8001cf0 <HAL_GPIO_WritePin+0x30>)
 8001cd0:	f006 fc24 	bl	800851c <assert_failed>
 8001cd4:	2e01      	cmp	r6, #1
 8001cd6:	d906      	bls.n	8001ce6 <HAL_GPIO_WritePin+0x26>
 8001cd8:	f44f 71d0 	mov.w	r1, #416	; 0x1a0
 8001cdc:	4804      	ldr	r0, [pc, #16]	; (8001cf0 <HAL_GPIO_WritePin+0x30>)
 8001cde:	f006 fc1d 	bl	800851c <assert_failed>
 8001ce2:	61ac      	str	r4, [r5, #24]
 8001ce4:	bd70      	pop	{r4, r5, r6, pc}
 8001ce6:	2e00      	cmp	r6, #0
 8001ce8:	d1fb      	bne.n	8001ce2 <HAL_GPIO_WritePin+0x22>
 8001cea:	0424      	lsls	r4, r4, #16
 8001cec:	e7f9      	b.n	8001ce2 <HAL_GPIO_WritePin+0x22>
 8001cee:	bf00      	nop
 8001cf0:	0800b1be 	.word	0x0800b1be

08001cf4 <HAL_GPIO_EXTI_IRQHandler>:
 8001cf4:	b508      	push	{r3, lr}
 8001cf6:	4b04      	ldr	r3, [pc, #16]	; (8001d08 <HAL_GPIO_EXTI_IRQHandler+0x14>)
 8001cf8:	6959      	ldr	r1, [r3, #20]
 8001cfa:	4201      	tst	r1, r0
 8001cfc:	d002      	beq.n	8001d04 <HAL_GPIO_EXTI_IRQHandler+0x10>
 8001cfe:	6158      	str	r0, [r3, #20]
 8001d00:	f006 fe50 	bl	80089a4 <HAL_GPIO_EXTI_Callback>
 8001d04:	bd08      	pop	{r3, pc}
 8001d06:	bf00      	nop
 8001d08:	40013c00 	.word	0x40013c00

08001d0c <I2C_IsAcknowledgeFailed>:
 8001d0c:	6801      	ldr	r1, [r0, #0]
 8001d0e:	694b      	ldr	r3, [r1, #20]
 8001d10:	f413 6380 	ands.w	r3, r3, #1024	; 0x400
 8001d14:	f04f 0200 	mov.w	r2, #0
 8001d18:	d010      	beq.n	8001d3c <I2C_IsAcknowledgeFailed+0x30>
 8001d1a:	f46f 6380 	mvn.w	r3, #1024	; 0x400
 8001d1e:	614b      	str	r3, [r1, #20]
 8001d20:	2320      	movs	r3, #32
 8001d22:	6302      	str	r2, [r0, #48]	; 0x30
 8001d24:	f880 303d 	strb.w	r3, [r0, #61]	; 0x3d
 8001d28:	f880 203e 	strb.w	r2, [r0, #62]	; 0x3e
 8001d2c:	6c03      	ldr	r3, [r0, #64]	; 0x40
 8001d2e:	f880 203c 	strb.w	r2, [r0, #60]	; 0x3c
 8001d32:	f043 0304 	orr.w	r3, r3, #4
 8001d36:	6403      	str	r3, [r0, #64]	; 0x40
 8001d38:	2001      	movs	r0, #1
 8001d3a:	4770      	bx	lr
 8001d3c:	4618      	mov	r0, r3
 8001d3e:	4770      	bx	lr

08001d40 <I2C_WaitOnMasterAddressFlagUntilTimeout>:
 8001d40:	e92d 41f0 	stmdb	sp!, {r4, r5, r6, r7, r8, lr}
 8001d44:	4604      	mov	r4, r0
 8001d46:	4616      	mov	r6, r2
 8001d48:	4698      	mov	r8, r3
 8001d4a:	b28f      	uxth	r7, r1
 8001d4c:	6825      	ldr	r5, [r4, #0]
 8001d4e:	6968      	ldr	r0, [r5, #20]
 8001d50:	ea37 0000 	bics.w	r0, r7, r0
 8001d54:	d017      	beq.n	8001d86 <I2C_WaitOnMasterAddressFlagUntilTimeout+0x46>
 8001d56:	696b      	ldr	r3, [r5, #20]
 8001d58:	055a      	lsls	r2, r3, #21
 8001d5a:	d516      	bpl.n	8001d8a <I2C_WaitOnMasterAddressFlagUntilTimeout+0x4a>
 8001d5c:	682b      	ldr	r3, [r5, #0]
 8001d5e:	f443 7300 	orr.w	r3, r3, #512	; 0x200
 8001d62:	602b      	str	r3, [r5, #0]
 8001d64:	f46f 6380 	mvn.w	r3, #1024	; 0x400
 8001d68:	616b      	str	r3, [r5, #20]
 8001d6a:	2220      	movs	r2, #32
 8001d6c:	2300      	movs	r3, #0
 8001d6e:	6323      	str	r3, [r4, #48]	; 0x30
 8001d70:	f884 203d 	strb.w	r2, [r4, #61]	; 0x3d
 8001d74:	f884 303e 	strb.w	r3, [r4, #62]	; 0x3e
 8001d78:	6c22      	ldr	r2, [r4, #64]	; 0x40
 8001d7a:	f042 0204 	orr.w	r2, r2, #4
 8001d7e:	6422      	str	r2, [r4, #64]	; 0x40
 8001d80:	f884 303c 	strb.w	r3, [r4, #60]	; 0x3c
 8001d84:	2001      	movs	r0, #1
 8001d86:	e8bd 81f0 	ldmia.w	sp!, {r4, r5, r6, r7, r8, pc}
 8001d8a:	1c73      	adds	r3, r6, #1
 8001d8c:	d0df      	beq.n	8001d4e <I2C_WaitOnMasterAddressFlagUntilTimeout+0xe>
 8001d8e:	f7ff f8b9 	bl	8000f04 <HAL_GetTick>
 8001d92:	eba0 0008 	sub.w	r0, r0, r8
 8001d96:	42b0      	cmp	r0, r6
 8001d98:	d801      	bhi.n	8001d9e <I2C_WaitOnMasterAddressFlagUntilTimeout+0x5e>
 8001d9a:	2e00      	cmp	r6, #0
 8001d9c:	d1d6      	bne.n	8001d4c <I2C_WaitOnMasterAddressFlagUntilTimeout+0xc>
 8001d9e:	2300      	movs	r3, #0
 8001da0:	2220      	movs	r2, #32
 8001da2:	6323      	str	r3, [r4, #48]	; 0x30
 8001da4:	f884 203d 	strb.w	r2, [r4, #61]	; 0x3d
 8001da8:	f884 303e 	strb.w	r3, [r4, #62]	; 0x3e
 8001dac:	6c22      	ldr	r2, [r4, #64]	; 0x40
 8001dae:	f042 0220 	orr.w	r2, r2, #32
 8001db2:	e7e4      	b.n	8001d7e <I2C_WaitOnMasterAddressFlagUntilTimeout+0x3e>

08001db4 <I2C_WaitOnBTFFlagUntilTimeout>:
 8001db4:	b570      	push	{r4, r5, r6, lr}
 8001db6:	4604      	mov	r4, r0
 8001db8:	460d      	mov	r5, r1
 8001dba:	4616      	mov	r6, r2
 8001dbc:	6823      	ldr	r3, [r4, #0]
 8001dbe:	695b      	ldr	r3, [r3, #20]
 8001dc0:	075b      	lsls	r3, r3, #29
 8001dc2:	d501      	bpl.n	8001dc8 <I2C_WaitOnBTFFlagUntilTimeout+0x14>
 8001dc4:	2000      	movs	r0, #0
 8001dc6:	bd70      	pop	{r4, r5, r6, pc}
 8001dc8:	4620      	mov	r0, r4
 8001dca:	f7ff ff9f 	bl	8001d0c <I2C_IsAcknowledgeFailed>
 8001dce:	b9a8      	cbnz	r0, 8001dfc <I2C_WaitOnBTFFlagUntilTimeout+0x48>
 8001dd0:	1c6a      	adds	r2, r5, #1
 8001dd2:	d0f3      	beq.n	8001dbc <I2C_WaitOnBTFFlagUntilTimeout+0x8>
 8001dd4:	f7ff f896 	bl	8000f04 <HAL_GetTick>
 8001dd8:	1b80      	subs	r0, r0, r6
 8001dda:	42a8      	cmp	r0, r5
 8001ddc:	d801      	bhi.n	8001de2 <I2C_WaitOnBTFFlagUntilTimeout+0x2e>
 8001dde:	2d00      	cmp	r5, #0
 8001de0:	d1ec      	bne.n	8001dbc <I2C_WaitOnBTFFlagUntilTimeout+0x8>
 8001de2:	2300      	movs	r3, #0
 8001de4:	2220      	movs	r2, #32
 8001de6:	6323      	str	r3, [r4, #48]	; 0x30
 8001de8:	f884 203d 	strb.w	r2, [r4, #61]	; 0x3d
 8001dec:	f884 303e 	strb.w	r3, [r4, #62]	; 0x3e
 8001df0:	6c22      	ldr	r2, [r4, #64]	; 0x40
 8001df2:	f884 303c 	strb.w	r3, [r4, #60]	; 0x3c
 8001df6:	f042 0220 	orr.w	r2, r2, #32
 8001dfa:	6422      	str	r2, [r4, #64]	; 0x40
 8001dfc:	2001      	movs	r0, #1
 8001dfe:	e7e2      	b.n	8001dc6 <I2C_WaitOnBTFFlagUntilTimeout+0x12>

08001e00 <I2C_WaitOnRXNEFlagUntilTimeout>:
 8001e00:	b570      	push	{r4, r5, r6, lr}
 8001e02:	4604      	mov	r4, r0
 8001e04:	460d      	mov	r5, r1
 8001e06:	4616      	mov	r6, r2
 8001e08:	6820      	ldr	r0, [r4, #0]
 8001e0a:	6943      	ldr	r3, [r0, #20]
 8001e0c:	f013 0340 	ands.w	r3, r3, #64	; 0x40
 8001e10:	d001      	beq.n	8001e16 <I2C_WaitOnRXNEFlagUntilTimeout+0x16>
 8001e12:	2000      	movs	r0, #0
 8001e14:	e010      	b.n	8001e38 <I2C_WaitOnRXNEFlagUntilTimeout+0x38>
 8001e16:	6942      	ldr	r2, [r0, #20]
 8001e18:	06d2      	lsls	r2, r2, #27
 8001e1a:	d50e      	bpl.n	8001e3a <I2C_WaitOnRXNEFlagUntilTimeout+0x3a>
 8001e1c:	f06f 0210 	mvn.w	r2, #16
 8001e20:	6142      	str	r2, [r0, #20]
 8001e22:	2220      	movs	r2, #32
 8001e24:	6323      	str	r3, [r4, #48]	; 0x30
 8001e26:	f884 203d 	strb.w	r2, [r4, #61]	; 0x3d
 8001e2a:	f884 303e 	strb.w	r3, [r4, #62]	; 0x3e
 8001e2e:	6c22      	ldr	r2, [r4, #64]	; 0x40
 8001e30:	6422      	str	r2, [r4, #64]	; 0x40
 8001e32:	f884 303c 	strb.w	r3, [r4, #60]	; 0x3c
 8001e36:	2001      	movs	r0, #1
 8001e38:	bd70      	pop	{r4, r5, r6, pc}
 8001e3a:	f7ff f863 	bl	8000f04 <HAL_GetTick>
 8001e3e:	1b80      	subs	r0, r0, r6
 8001e40:	42a8      	cmp	r0, r5
 8001e42:	d801      	bhi.n	8001e48 <I2C_WaitOnRXNEFlagUntilTimeout+0x48>
 8001e44:	2d00      	cmp	r5, #0
 8001e46:	d1df      	bne.n	8001e08 <I2C_WaitOnRXNEFlagUntilTimeout+0x8>
 8001e48:	2300      	movs	r3, #0
 8001e4a:	2220      	movs	r2, #32
 8001e4c:	6323      	str	r3, [r4, #48]	; 0x30
 8001e4e:	f884 203d 	strb.w	r2, [r4, #61]	; 0x3d
 8001e52:	f884 303e 	strb.w	r3, [r4, #62]	; 0x3e
 8001e56:	6c22      	ldr	r2, [r4, #64]	; 0x40
 8001e58:	f042 0220 	orr.w	r2, r2, #32
 8001e5c:	e7e8      	b.n	8001e30 <I2C_WaitOnRXNEFlagUntilTimeout+0x30>

08001e5e <I2C_WaitOnFlagUntilTimeout>:
 8001e5e:	e92d 43f8 	stmdb	sp!, {r3, r4, r5, r6, r7, r8, r9, lr}
 8001e62:	9e08      	ldr	r6, [sp, #32]
 8001e64:	4604      	mov	r4, r0
 8001e66:	4690      	mov	r8, r2
 8001e68:	461f      	mov	r7, r3
 8001e6a:	ea4f 4911 	mov.w	r9, r1, lsr #16
 8001e6e:	b28d      	uxth	r5, r1
 8001e70:	6821      	ldr	r1, [r4, #0]
 8001e72:	f1b9 0f01 	cmp.w	r9, #1
 8001e76:	bf0c      	ite	eq
 8001e78:	694b      	ldreq	r3, [r1, #20]
 8001e7a:	698b      	ldrne	r3, [r1, #24]
 8001e7c:	ea35 0303 	bics.w	r3, r5, r3
 8001e80:	bf0c      	ite	eq
 8001e82:	2301      	moveq	r3, #1
 8001e84:	2300      	movne	r3, #0
 8001e86:	4598      	cmp	r8, r3
 8001e88:	d001      	beq.n	8001e8e <I2C_WaitOnFlagUntilTimeout+0x30>
 8001e8a:	2000      	movs	r0, #0
 8001e8c:	e016      	b.n	8001ebc <I2C_WaitOnFlagUntilTimeout+0x5e>
 8001e8e:	1c7b      	adds	r3, r7, #1
 8001e90:	d0ef      	beq.n	8001e72 <I2C_WaitOnFlagUntilTimeout+0x14>
 8001e92:	f7ff f837 	bl	8000f04 <HAL_GetTick>
 8001e96:	1b80      	subs	r0, r0, r6
 8001e98:	42b8      	cmp	r0, r7
 8001e9a:	d801      	bhi.n	8001ea0 <I2C_WaitOnFlagUntilTimeout+0x42>
 8001e9c:	2f00      	cmp	r7, #0
 8001e9e:	d1e7      	bne.n	8001e70 <I2C_WaitOnFlagUntilTimeout+0x12>
 8001ea0:	2300      	movs	r3, #0
 8001ea2:	2220      	movs	r2, #32
 8001ea4:	6323      	str	r3, [r4, #48]	; 0x30
 8001ea6:	f884 203d 	strb.w	r2, [r4, #61]	; 0x3d
 8001eaa:	f884 303e 	strb.w	r3, [r4, #62]	; 0x3e
 8001eae:	6c22      	ldr	r2, [r4, #64]	; 0x40
 8001eb0:	f884 303c 	strb.w	r3, [r4, #60]	; 0x3c
 8001eb4:	f042 0220 	orr.w	r2, r2, #32
 8001eb8:	6422      	str	r2, [r4, #64]	; 0x40
 8001eba:	2001      	movs	r0, #1
 8001ebc:	e8bd 83f8 	ldmia.w	sp!, {r3, r4, r5, r6, r7, r8, r9, pc}

08001ec0 <I2C_WaitOnTXEFlagUntilTimeout>:
 8001ec0:	b570      	push	{r4, r5, r6, lr}
 8001ec2:	4604      	mov	r4, r0
 8001ec4:	460d      	mov	r5, r1
 8001ec6:	4616      	mov	r6, r2
 8001ec8:	6823      	ldr	r3, [r4, #0]
 8001eca:	695b      	ldr	r3, [r3, #20]
 8001ecc:	061b      	lsls	r3, r3, #24
 8001ece:	d501      	bpl.n	8001ed4 <I2C_WaitOnTXEFlagUntilTimeout+0x14>
 8001ed0:	2000      	movs	r0, #0
 8001ed2:	bd70      	pop	{r4, r5, r6, pc}
 8001ed4:	4620      	mov	r0, r4
 8001ed6:	f7ff ff19 	bl	8001d0c <I2C_IsAcknowledgeFailed>
 8001eda:	b9a8      	cbnz	r0, 8001f08 <I2C_WaitOnTXEFlagUntilTimeout+0x48>
 8001edc:	1c6a      	adds	r2, r5, #1
 8001ede:	d0f3      	beq.n	8001ec8 <I2C_WaitOnTXEFlagUntilTimeout+0x8>
 8001ee0:	f7ff f810 	bl	8000f04 <HAL_GetTick>
 8001ee4:	1b80      	subs	r0, r0, r6
 8001ee6:	42a8      	cmp	r0, r5
 8001ee8:	d801      	bhi.n	8001eee <I2C_WaitOnTXEFlagUntilTimeout+0x2e>
 8001eea:	2d00      	cmp	r5, #0
 8001eec:	d1ec      	bne.n	8001ec8 <I2C_WaitOnTXEFlagUntilTimeout+0x8>
 8001eee:	2300      	movs	r3, #0
 8001ef0:	2220      	movs	r2, #32
 8001ef2:	6323      	str	r3, [r4, #48]	; 0x30
 8001ef4:	f884 203d 	strb.w	r2, [r4, #61]	; 0x3d
 8001ef8:	f884 303e 	strb.w	r3, [r4, #62]	; 0x3e
 8001efc:	6c22      	ldr	r2, [r4, #64]	; 0x40
 8001efe:	f884 303c 	strb.w	r3, [r4, #60]	; 0x3c
 8001f02:	f042 0220 	orr.w	r2, r2, #32
 8001f06:	6422      	str	r2, [r4, #64]	; 0x40
 8001f08:	2001      	movs	r0, #1
 8001f0a:	e7e2      	b.n	8001ed2 <I2C_WaitOnTXEFlagUntilTimeout+0x12>

08001f0c <I2C_RequestMemoryWrite>:
 8001f0c:	e92d 41ff 	stmdb	sp!, {r0, r1, r2, r3, r4, r5, r6, r7, r8, lr}
 8001f10:	4615      	mov	r5, r2
 8001f12:	6802      	ldr	r2, [r0, #0]
 8001f14:	9e0b      	ldr	r6, [sp, #44]	; 0x2c
 8001f16:	4698      	mov	r8, r3
 8001f18:	6813      	ldr	r3, [r2, #0]
 8001f1a:	f443 7380 	orr.w	r3, r3, #256	; 0x100
 8001f1e:	6013      	str	r3, [r2, #0]
 8001f20:	460f      	mov	r7, r1
 8001f22:	9b0a      	ldr	r3, [sp, #40]	; 0x28
 8001f24:	9600      	str	r6, [sp, #0]
 8001f26:	2200      	movs	r2, #0
 8001f28:	f04f 1101 	mov.w	r1, #65537	; 0x10001
 8001f2c:	4604      	mov	r4, r0
 8001f2e:	f7ff ff96 	bl	8001e5e <I2C_WaitOnFlagUntilTimeout>
 8001f32:	6823      	ldr	r3, [r4, #0]
 8001f34:	b138      	cbz	r0, 8001f46 <I2C_RequestMemoryWrite+0x3a>
 8001f36:	681b      	ldr	r3, [r3, #0]
 8001f38:	05db      	lsls	r3, r3, #23
 8001f3a:	d502      	bpl.n	8001f42 <I2C_RequestMemoryWrite+0x36>
 8001f3c:	f44f 7300 	mov.w	r3, #512	; 0x200
 8001f40:	6423      	str	r3, [r4, #64]	; 0x40
 8001f42:	2003      	movs	r0, #3
 8001f44:	e00a      	b.n	8001f5c <I2C_RequestMemoryWrite+0x50>
 8001f46:	f007 07fe 	and.w	r7, r7, #254	; 0xfe
 8001f4a:	611f      	str	r7, [r3, #16]
 8001f4c:	9a0a      	ldr	r2, [sp, #40]	; 0x28
 8001f4e:	4919      	ldr	r1, [pc, #100]	; (8001fb4 <I2C_RequestMemoryWrite+0xa8>)
 8001f50:	4633      	mov	r3, r6
 8001f52:	4620      	mov	r0, r4
 8001f54:	f7ff fef4 	bl	8001d40 <I2C_WaitOnMasterAddressFlagUntilTimeout>
 8001f58:	b118      	cbz	r0, 8001f62 <I2C_RequestMemoryWrite+0x56>
 8001f5a:	2001      	movs	r0, #1
 8001f5c:	b004      	add	sp, #16
 8001f5e:	e8bd 81f0 	ldmia.w	sp!, {r4, r5, r6, r7, r8, pc}
 8001f62:	6823      	ldr	r3, [r4, #0]
 8001f64:	9003      	str	r0, [sp, #12]
 8001f66:	695a      	ldr	r2, [r3, #20]
 8001f68:	9203      	str	r2, [sp, #12]
 8001f6a:	699b      	ldr	r3, [r3, #24]
 8001f6c:	9303      	str	r3, [sp, #12]
 8001f6e:	4632      	mov	r2, r6
 8001f70:	990a      	ldr	r1, [sp, #40]	; 0x28
 8001f72:	9b03      	ldr	r3, [sp, #12]
 8001f74:	4620      	mov	r0, r4
 8001f76:	f7ff ffa3 	bl	8001ec0 <I2C_WaitOnTXEFlagUntilTimeout>
 8001f7a:	b140      	cbz	r0, 8001f8e <I2C_RequestMemoryWrite+0x82>
 8001f7c:	6c23      	ldr	r3, [r4, #64]	; 0x40
 8001f7e:	2b04      	cmp	r3, #4
 8001f80:	bf01      	itttt	eq
 8001f82:	6822      	ldreq	r2, [r4, #0]
 8001f84:	6813      	ldreq	r3, [r2, #0]
 8001f86:	f443 7300 	orreq.w	r3, r3, #512	; 0x200
 8001f8a:	6013      	streq	r3, [r2, #0]
 8001f8c:	e7e5      	b.n	8001f5a <I2C_RequestMemoryWrite+0x4e>
 8001f8e:	f1b8 0f01 	cmp.w	r8, #1
 8001f92:	6823      	ldr	r3, [r4, #0]
 8001f94:	d102      	bne.n	8001f9c <I2C_RequestMemoryWrite+0x90>
 8001f96:	b2ed      	uxtb	r5, r5
 8001f98:	611d      	str	r5, [r3, #16]
 8001f9a:	e7df      	b.n	8001f5c <I2C_RequestMemoryWrite+0x50>
 8001f9c:	0a2a      	lsrs	r2, r5, #8
 8001f9e:	611a      	str	r2, [r3, #16]
 8001fa0:	990a      	ldr	r1, [sp, #40]	; 0x28
 8001fa2:	4632      	mov	r2, r6
 8001fa4:	4620      	mov	r0, r4
 8001fa6:	f7ff ff8b 	bl	8001ec0 <I2C_WaitOnTXEFlagUntilTimeout>
 8001faa:	2800      	cmp	r0, #0
 8001fac:	d1e6      	bne.n	8001f7c <I2C_RequestMemoryWrite+0x70>
 8001fae:	6823      	ldr	r3, [r4, #0]
 8001fb0:	e7f1      	b.n	8001f96 <I2C_RequestMemoryWrite+0x8a>
 8001fb2:	bf00      	nop
 8001fb4:	00010002 	.word	0x00010002

08001fb8 <I2C_RequestMemoryRead>:
 8001fb8:	e92d 41ff 	stmdb	sp!, {r0, r1, r2, r3, r4, r5, r6, r7, r8, lr}
 8001fbc:	4698      	mov	r8, r3
 8001fbe:	6803      	ldr	r3, [r0, #0]
 8001fc0:	9d0b      	ldr	r5, [sp, #44]	; 0x2c
 8001fc2:	4616      	mov	r6, r2
 8001fc4:	681a      	ldr	r2, [r3, #0]
 8001fc6:	f442 6280 	orr.w	r2, r2, #1024	; 0x400
 8001fca:	601a      	str	r2, [r3, #0]
 8001fcc:	681a      	ldr	r2, [r3, #0]
 8001fce:	f442 7280 	orr.w	r2, r2, #256	; 0x100
 8001fd2:	601a      	str	r2, [r3, #0]
 8001fd4:	460f      	mov	r7, r1
 8001fd6:	9b0a      	ldr	r3, [sp, #40]	; 0x28
 8001fd8:	9500      	str	r5, [sp, #0]
 8001fda:	2200      	movs	r2, #0
 8001fdc:	f04f 1101 	mov.w	r1, #65537	; 0x10001
 8001fe0:	4604      	mov	r4, r0
 8001fe2:	f7ff ff3c 	bl	8001e5e <I2C_WaitOnFlagUntilTimeout>
 8001fe6:	6823      	ldr	r3, [r4, #0]
 8001fe8:	b148      	cbz	r0, 8001ffe <I2C_RequestMemoryRead+0x46>
 8001fea:	681b      	ldr	r3, [r3, #0]
 8001fec:	05db      	lsls	r3, r3, #23
 8001fee:	d502      	bpl.n	8001ff6 <I2C_RequestMemoryRead+0x3e>
 8001ff0:	f44f 7300 	mov.w	r3, #512	; 0x200
 8001ff4:	6423      	str	r3, [r4, #64]	; 0x40
 8001ff6:	2003      	movs	r0, #3
 8001ff8:	b004      	add	sp, #16
 8001ffa:	e8bd 81f0 	ldmia.w	sp!, {r4, r5, r6, r7, r8, pc}
 8001ffe:	b2ff      	uxtb	r7, r7
 8002000:	f007 02fe 	and.w	r2, r7, #254	; 0xfe
 8002004:	611a      	str	r2, [r3, #16]
 8002006:	492a      	ldr	r1, [pc, #168]	; (80020b0 <I2C_RequestMemoryRead+0xf8>)
 8002008:	9a0a      	ldr	r2, [sp, #40]	; 0x28
 800200a:	462b      	mov	r3, r5
 800200c:	4620      	mov	r0, r4
 800200e:	f7ff fe97 	bl	8001d40 <I2C_WaitOnMasterAddressFlagUntilTimeout>
 8002012:	b108      	cbz	r0, 8002018 <I2C_RequestMemoryRead+0x60>
 8002014:	2001      	movs	r0, #1
 8002016:	e7ef      	b.n	8001ff8 <I2C_RequestMemoryRead+0x40>
 8002018:	6823      	ldr	r3, [r4, #0]
 800201a:	9003      	str	r0, [sp, #12]
 800201c:	695a      	ldr	r2, [r3, #20]
 800201e:	9203      	str	r2, [sp, #12]
 8002020:	699b      	ldr	r3, [r3, #24]
 8002022:	9303      	str	r3, [sp, #12]
 8002024:	462a      	mov	r2, r5
 8002026:	990a      	ldr	r1, [sp, #40]	; 0x28
 8002028:	9b03      	ldr	r3, [sp, #12]
 800202a:	4620      	mov	r0, r4
 800202c:	f7ff ff48 	bl	8001ec0 <I2C_WaitOnTXEFlagUntilTimeout>
 8002030:	b140      	cbz	r0, 8002044 <I2C_RequestMemoryRead+0x8c>
 8002032:	6c23      	ldr	r3, [r4, #64]	; 0x40
 8002034:	2b04      	cmp	r3, #4
 8002036:	bf01      	itttt	eq
 8002038:	6822      	ldreq	r2, [r4, #0]
 800203a:	6813      	ldreq	r3, [r2, #0]
 800203c:	f443 7300 	orreq.w	r3, r3, #512	; 0x200
 8002040:	6013      	streq	r3, [r2, #0]
 8002042:	e7e7      	b.n	8002014 <I2C_RequestMemoryRead+0x5c>
 8002044:	f1b8 0f01 	cmp.w	r8, #1
 8002048:	6823      	ldr	r3, [r4, #0]
 800204a:	d125      	bne.n	8002098 <I2C_RequestMemoryRead+0xe0>
 800204c:	b2f6      	uxtb	r6, r6
 800204e:	611e      	str	r6, [r3, #16]
 8002050:	462a      	mov	r2, r5
 8002052:	990a      	ldr	r1, [sp, #40]	; 0x28
 8002054:	4620      	mov	r0, r4
 8002056:	f7ff ff33 	bl	8001ec0 <I2C_WaitOnTXEFlagUntilTimeout>
 800205a:	4602      	mov	r2, r0
 800205c:	2800      	cmp	r0, #0
 800205e:	d1e8      	bne.n	8002032 <I2C_RequestMemoryRead+0x7a>
 8002060:	6821      	ldr	r1, [r4, #0]
 8002062:	680b      	ldr	r3, [r1, #0]
 8002064:	f443 7380 	orr.w	r3, r3, #256	; 0x100
 8002068:	600b      	str	r3, [r1, #0]
 800206a:	4620      	mov	r0, r4
 800206c:	9b0a      	ldr	r3, [sp, #40]	; 0x28
 800206e:	9500      	str	r5, [sp, #0]
 8002070:	f04f 1101 	mov.w	r1, #65537	; 0x10001
 8002074:	f7ff fef3 	bl	8001e5e <I2C_WaitOnFlagUntilTimeout>
 8002078:	6823      	ldr	r3, [r4, #0]
 800207a:	2800      	cmp	r0, #0
 800207c:	d1b5      	bne.n	8001fea <I2C_RequestMemoryRead+0x32>
 800207e:	f047 0701 	orr.w	r7, r7, #1
 8002082:	611f      	str	r7, [r3, #16]
 8002084:	9a0a      	ldr	r2, [sp, #40]	; 0x28
 8002086:	490a      	ldr	r1, [pc, #40]	; (80020b0 <I2C_RequestMemoryRead+0xf8>)
 8002088:	462b      	mov	r3, r5
 800208a:	4620      	mov	r0, r4
 800208c:	f7ff fe58 	bl	8001d40 <I2C_WaitOnMasterAddressFlagUntilTimeout>
 8002090:	3000      	adds	r0, #0
 8002092:	bf18      	it	ne
 8002094:	2001      	movne	r0, #1
 8002096:	e7af      	b.n	8001ff8 <I2C_RequestMemoryRead+0x40>
 8002098:	0a32      	lsrs	r2, r6, #8
 800209a:	611a      	str	r2, [r3, #16]
 800209c:	990a      	ldr	r1, [sp, #40]	; 0x28
 800209e:	462a      	mov	r2, r5
 80020a0:	4620      	mov	r0, r4
 80020a2:	f7ff ff0d 	bl	8001ec0 <I2C_WaitOnTXEFlagUntilTimeout>
 80020a6:	2800      	cmp	r0, #0
 80020a8:	d1c3      	bne.n	8002032 <I2C_RequestMemoryRead+0x7a>
 80020aa:	6823      	ldr	r3, [r4, #0]
 80020ac:	e7ce      	b.n	800204c <I2C_RequestMemoryRead+0x94>
 80020ae:	bf00      	nop
 80020b0:	00010002 	.word	0x00010002

080020b4 <HAL_I2C_Init>:
 80020b4:	b570      	push	{r4, r5, r6, lr}
 80020b6:	4604      	mov	r4, r0
 80020b8:	b908      	cbnz	r0, 80020be <HAL_I2C_Init+0xa>
 80020ba:	2001      	movs	r0, #1
 80020bc:	bd70      	pop	{r4, r5, r6, pc}
 80020be:	6803      	ldr	r3, [r0, #0]
 80020c0:	4a7e      	ldr	r2, [pc, #504]	; (80022bc <HAL_I2C_Init+0x208>)
 80020c2:	4293      	cmp	r3, r2
 80020c4:	d00c      	beq.n	80020e0 <HAL_I2C_Init+0x2c>
 80020c6:	f502 6280 	add.w	r2, r2, #1024	; 0x400
 80020ca:	4293      	cmp	r3, r2
 80020cc:	d008      	beq.n	80020e0 <HAL_I2C_Init+0x2c>
 80020ce:	f502 6280 	add.w	r2, r2, #1024	; 0x400
 80020d2:	4293      	cmp	r3, r2
 80020d4:	d004      	beq.n	80020e0 <HAL_I2C_Init+0x2c>
 80020d6:	f240 11bd 	movw	r1, #445	; 0x1bd
 80020da:	4879      	ldr	r0, [pc, #484]	; (80022c0 <HAL_I2C_Init+0x20c>)
 80020dc:	f006 fa1e 	bl	800851c <assert_failed>
 80020e0:	6863      	ldr	r3, [r4, #4]
 80020e2:	4a78      	ldr	r2, [pc, #480]	; (80022c4 <HAL_I2C_Init+0x210>)
 80020e4:	3b01      	subs	r3, #1
 80020e6:	4293      	cmp	r3, r2
 80020e8:	d904      	bls.n	80020f4 <HAL_I2C_Init+0x40>
 80020ea:	f44f 71df 	mov.w	r1, #446	; 0x1be
 80020ee:	4874      	ldr	r0, [pc, #464]	; (80022c0 <HAL_I2C_Init+0x20c>)
 80020f0:	f006 fa14 	bl	800851c <assert_failed>
 80020f4:	68a3      	ldr	r3, [r4, #8]
 80020f6:	f433 4380 	bics.w	r3, r3, #16384	; 0x4000
 80020fa:	d004      	beq.n	8002106 <HAL_I2C_Init+0x52>
 80020fc:	f240 11bf 	movw	r1, #447	; 0x1bf
 8002100:	486f      	ldr	r0, [pc, #444]	; (80022c0 <HAL_I2C_Init+0x20c>)
 8002102:	f006 fa0b 	bl	800851c <assert_failed>
 8002106:	68e3      	ldr	r3, [r4, #12]
 8002108:	f423 737f 	bic.w	r3, r3, #1020	; 0x3fc
 800210c:	f023 0303 	bic.w	r3, r3, #3
 8002110:	b123      	cbz	r3, 800211c <HAL_I2C_Init+0x68>
 8002112:	f44f 71e0 	mov.w	r1, #448	; 0x1c0
 8002116:	486a      	ldr	r0, [pc, #424]	; (80022c0 <HAL_I2C_Init+0x20c>)
 8002118:	f006 fa00 	bl	800851c <assert_failed>
 800211c:	6923      	ldr	r3, [r4, #16]
 800211e:	f423 4300 	bic.w	r3, r3, #32768	; 0x8000
 8002122:	f5b3 4f80 	cmp.w	r3, #16384	; 0x4000
 8002126:	d004      	beq.n	8002132 <HAL_I2C_Init+0x7e>
 8002128:	f240 11c1 	movw	r1, #449	; 0x1c1
 800212c:	4864      	ldr	r0, [pc, #400]	; (80022c0 <HAL_I2C_Init+0x20c>)
 800212e:	f006 f9f5 	bl	800851c <assert_failed>
 8002132:	6963      	ldr	r3, [r4, #20]
 8002134:	2b01      	cmp	r3, #1
 8002136:	d904      	bls.n	8002142 <HAL_I2C_Init+0x8e>
 8002138:	f44f 71e1 	mov.w	r1, #450	; 0x1c2
 800213c:	4860      	ldr	r0, [pc, #384]	; (80022c0 <HAL_I2C_Init+0x20c>)
 800213e:	f006 f9ed 	bl	800851c <assert_failed>
 8002142:	69a3      	ldr	r3, [r4, #24]
 8002144:	f033 03fe 	bics.w	r3, r3, #254	; 0xfe
 8002148:	d004      	beq.n	8002154 <HAL_I2C_Init+0xa0>
 800214a:	f240 11c3 	movw	r1, #451	; 0x1c3
 800214e:	485c      	ldr	r0, [pc, #368]	; (80022c0 <HAL_I2C_Init+0x20c>)
 8002150:	f006 f9e4 	bl	800851c <assert_failed>
 8002154:	69e3      	ldr	r3, [r4, #28]
 8002156:	f033 0340 	bics.w	r3, r3, #64	; 0x40
 800215a:	d004      	beq.n	8002166 <HAL_I2C_Init+0xb2>
 800215c:	f44f 71e2 	mov.w	r1, #452	; 0x1c4
 8002160:	4857      	ldr	r0, [pc, #348]	; (80022c0 <HAL_I2C_Init+0x20c>)
 8002162:	f006 f9db 	bl	800851c <assert_failed>
 8002166:	6a23      	ldr	r3, [r4, #32]
 8002168:	f033 0380 	bics.w	r3, r3, #128	; 0x80
 800216c:	d004      	beq.n	8002178 <HAL_I2C_Init+0xc4>
 800216e:	f240 11c5 	movw	r1, #453	; 0x1c5
 8002172:	4853      	ldr	r0, [pc, #332]	; (80022c0 <HAL_I2C_Init+0x20c>)
 8002174:	f006 f9d2 	bl	800851c <assert_failed>
 8002178:	f894 303d 	ldrb.w	r3, [r4, #61]	; 0x3d
 800217c:	f003 02ff 	and.w	r2, r3, #255	; 0xff
 8002180:	b923      	cbnz	r3, 800218c <HAL_I2C_Init+0xd8>
 8002182:	f884 203c 	strb.w	r2, [r4, #60]	; 0x3c
 8002186:	4620      	mov	r0, r4
 8002188:	f005 f9d8 	bl	800753c <HAL_I2C_MspInit>
 800218c:	2324      	movs	r3, #36	; 0x24
 800218e:	f884 303d 	strb.w	r3, [r4, #61]	; 0x3d
 8002192:	6823      	ldr	r3, [r4, #0]
 8002194:	681a      	ldr	r2, [r3, #0]
 8002196:	f022 0201 	bic.w	r2, r2, #1
 800219a:	601a      	str	r2, [r3, #0]
 800219c:	681a      	ldr	r2, [r3, #0]
 800219e:	f442 4200 	orr.w	r2, r2, #32768	; 0x8000
 80021a2:	601a      	str	r2, [r3, #0]
 80021a4:	681a      	ldr	r2, [r3, #0]
 80021a6:	f422 4200 	bic.w	r2, r2, #32768	; 0x8000
 80021aa:	601a      	str	r2, [r3, #0]
 80021ac:	f000 fde8 	bl	8002d80 <HAL_RCC_GetPCLK1Freq>
 80021b0:	6863      	ldr	r3, [r4, #4]
 80021b2:	4a45      	ldr	r2, [pc, #276]	; (80022c8 <HAL_I2C_Init+0x214>)
 80021b4:	4293      	cmp	r3, r2
 80021b6:	d810      	bhi.n	80021da <HAL_I2C_Init+0x126>
 80021b8:	4a44      	ldr	r2, [pc, #272]	; (80022cc <HAL_I2C_Init+0x218>)
 80021ba:	4290      	cmp	r0, r2
 80021bc:	f67f af7d 	bls.w	80020ba <HAL_I2C_Init+0x6>
 80021c0:	6822      	ldr	r2, [r4, #0]
 80021c2:	4943      	ldr	r1, [pc, #268]	; (80022d0 <HAL_I2C_Init+0x21c>)
 80021c4:	6855      	ldr	r5, [r2, #4]
 80021c6:	fbb0 f1f1 	udiv	r1, r0, r1
 80021ca:	f025 053f 	bic.w	r5, r5, #63	; 0x3f
 80021ce:	430d      	orrs	r5, r1
 80021d0:	6055      	str	r5, [r2, #4]
 80021d2:	6a15      	ldr	r5, [r2, #32]
 80021d4:	f025 053f 	bic.w	r5, r5, #63	; 0x3f
 80021d8:	e016      	b.n	8002208 <HAL_I2C_Init+0x154>
 80021da:	4a3e      	ldr	r2, [pc, #248]	; (80022d4 <HAL_I2C_Init+0x220>)
 80021dc:	4290      	cmp	r0, r2
 80021de:	f67f af6c 	bls.w	80020ba <HAL_I2C_Init+0x6>
 80021e2:	6822      	ldr	r2, [r4, #0]
 80021e4:	4e3a      	ldr	r6, [pc, #232]	; (80022d0 <HAL_I2C_Init+0x21c>)
 80021e6:	6855      	ldr	r5, [r2, #4]
 80021e8:	fbb0 f6f6 	udiv	r6, r0, r6
 80021ec:	f025 053f 	bic.w	r5, r5, #63	; 0x3f
 80021f0:	4335      	orrs	r5, r6
 80021f2:	6055      	str	r5, [r2, #4]
 80021f4:	6a15      	ldr	r5, [r2, #32]
 80021f6:	f44f 7196 	mov.w	r1, #300	; 0x12c
 80021fa:	f025 053f 	bic.w	r5, r5, #63	; 0x3f
 80021fe:	4371      	muls	r1, r6
 8002200:	f44f 767a 	mov.w	r6, #1000	; 0x3e8
 8002204:	fbb1 f1f6 	udiv	r1, r1, r6
 8002208:	3101      	adds	r1, #1
 800220a:	4329      	orrs	r1, r5
 800220c:	6211      	str	r1, [r2, #32]
 800220e:	69d1      	ldr	r1, [r2, #28]
 8002210:	4d2d      	ldr	r5, [pc, #180]	; (80022c8 <HAL_I2C_Init+0x214>)
 8002212:	f421 414f 	bic.w	r1, r1, #52992	; 0xcf00
 8002216:	42ab      	cmp	r3, r5
 8002218:	f021 01ff 	bic.w	r1, r1, #255	; 0xff
 800221c:	f100 30ff 	add.w	r0, r0, #4294967295
 8002220:	d831      	bhi.n	8002286 <HAL_I2C_Init+0x1d2>
 8002222:	005b      	lsls	r3, r3, #1
 8002224:	fbb0 f0f3 	udiv	r0, r0, r3
 8002228:	1c43      	adds	r3, r0, #1
 800222a:	f3c3 030b 	ubfx	r3, r3, #0, #12
 800222e:	2b04      	cmp	r3, #4
 8002230:	bf38      	it	cc
 8002232:	2304      	movcc	r3, #4
 8002234:	430b      	orrs	r3, r1
 8002236:	61d3      	str	r3, [r2, #28]
 8002238:	e9d4 3007 	ldrd	r3, r0, [r4, #28]
 800223c:	6811      	ldr	r1, [r2, #0]
 800223e:	4303      	orrs	r3, r0
 8002240:	f021 01c0 	bic.w	r1, r1, #192	; 0xc0
 8002244:	430b      	orrs	r3, r1
 8002246:	6013      	str	r3, [r2, #0]
 8002248:	6891      	ldr	r1, [r2, #8]
 800224a:	e9d4 0303 	ldrd	r0, r3, [r4, #12]
 800224e:	f421 4103 	bic.w	r1, r1, #33536	; 0x8300
 8002252:	4303      	orrs	r3, r0
 8002254:	f021 01ff 	bic.w	r1, r1, #255	; 0xff
 8002258:	430b      	orrs	r3, r1
 800225a:	6093      	str	r3, [r2, #8]
 800225c:	e9d4 3005 	ldrd	r3, r0, [r4, #20]
 8002260:	68d1      	ldr	r1, [r2, #12]
 8002262:	4303      	orrs	r3, r0
 8002264:	f021 01ff 	bic.w	r1, r1, #255	; 0xff
 8002268:	430b      	orrs	r3, r1
 800226a:	60d3      	str	r3, [r2, #12]
 800226c:	6813      	ldr	r3, [r2, #0]
 800226e:	f043 0301 	orr.w	r3, r3, #1
 8002272:	6013      	str	r3, [r2, #0]
 8002274:	2000      	movs	r0, #0
 8002276:	2320      	movs	r3, #32
 8002278:	6420      	str	r0, [r4, #64]	; 0x40
 800227a:	f884 303d 	strb.w	r3, [r4, #61]	; 0x3d
 800227e:	6320      	str	r0, [r4, #48]	; 0x30
 8002280:	f884 003e 	strb.w	r0, [r4, #62]	; 0x3e
 8002284:	e71a      	b.n	80020bc <HAL_I2C_Init+0x8>
 8002286:	68a5      	ldr	r5, [r4, #8]
 8002288:	b955      	cbnz	r5, 80022a0 <HAL_I2C_Init+0x1ec>
 800228a:	eb03 0343 	add.w	r3, r3, r3, lsl #1
 800228e:	fbb0 f0f3 	udiv	r0, r0, r3
 8002292:	1c43      	adds	r3, r0, #1
 8002294:	f3c3 030b 	ubfx	r3, r3, #0, #12
 8002298:	b16b      	cbz	r3, 80022b6 <HAL_I2C_Init+0x202>
 800229a:	f443 4300 	orr.w	r3, r3, #32768	; 0x8000
 800229e:	e7c9      	b.n	8002234 <HAL_I2C_Init+0x180>
 80022a0:	2519      	movs	r5, #25
 80022a2:	436b      	muls	r3, r5
 80022a4:	fbb0 f0f3 	udiv	r0, r0, r3
 80022a8:	1c43      	adds	r3, r0, #1
 80022aa:	f3c3 030b 	ubfx	r3, r3, #0, #12
 80022ae:	b113      	cbz	r3, 80022b6 <HAL_I2C_Init+0x202>
 80022b0:	f443 4340 	orr.w	r3, r3, #49152	; 0xc000
 80022b4:	e7be      	b.n	8002234 <HAL_I2C_Init+0x180>
 80022b6:	2301      	movs	r3, #1
 80022b8:	e7bc      	b.n	8002234 <HAL_I2C_Init+0x180>
 80022ba:	bf00      	nop
 80022bc:	40005400 	.word	0x40005400
 80022c0:	0800b1f7 	.word	0x0800b1f7
 80022c4:	00061a7f 	.word	0x00061a7f
 80022c8:	000186a0 	.word	0x000186a0
 80022cc:	001e847f 	.word	0x001e847f
 80022d0:	000f4240 	.word	0x000f4240
 80022d4:	003d08ff 	.word	0x003d08ff

080022d8 <HAL_I2C_Mem_Write>:
 80022d8:	e92d 43f7 	stmdb	sp!, {r0, r1, r2, r4, r5, r6, r7, r8, r9, lr}
 80022dc:	9e0c      	ldr	r6, [sp, #48]	; 0x30
 80022de:	461f      	mov	r7, r3
 80022e0:	4604      	mov	r4, r0
 80022e2:	4688      	mov	r8, r1
 80022e4:	4691      	mov	r9, r2
 80022e6:	f7fe fe0d 	bl	8000f04 <HAL_GetTick>
 80022ea:	2f01      	cmp	r7, #1
 80022ec:	4605      	mov	r5, r0
 80022ee:	d006      	beq.n	80022fe <HAL_I2C_Mem_Write+0x26>
 80022f0:	2f10      	cmp	r7, #16
 80022f2:	d004      	beq.n	80022fe <HAL_I2C_Mem_Write+0x26>
 80022f4:	f640 1173 	movw	r1, #2419	; 0x973
 80022f8:	4841      	ldr	r0, [pc, #260]	; (8002400 <HAL_I2C_Mem_Write+0x128>)
 80022fa:	f006 f90f 	bl	800851c <assert_failed>
 80022fe:	f894 303d 	ldrb.w	r3, [r4, #61]	; 0x3d
 8002302:	2b20      	cmp	r3, #32
 8002304:	d003      	beq.n	800230e <HAL_I2C_Mem_Write+0x36>
 8002306:	2002      	movs	r0, #2
 8002308:	b003      	add	sp, #12
 800230a:	e8bd 83f0 	ldmia.w	sp!, {r4, r5, r6, r7, r8, r9, pc}
 800230e:	9500      	str	r5, [sp, #0]
 8002310:	2319      	movs	r3, #25
 8002312:	2201      	movs	r2, #1
 8002314:	493b      	ldr	r1, [pc, #236]	; (8002404 <HAL_I2C_Mem_Write+0x12c>)
 8002316:	4620      	mov	r0, r4
 8002318:	f7ff fda1 	bl	8001e5e <I2C_WaitOnFlagUntilTimeout>
 800231c:	2800      	cmp	r0, #0
 800231e:	d1f2      	bne.n	8002306 <HAL_I2C_Mem_Write+0x2e>
 8002320:	f894 303c 	ldrb.w	r3, [r4, #60]	; 0x3c
 8002324:	2b01      	cmp	r3, #1
 8002326:	d0ee      	beq.n	8002306 <HAL_I2C_Mem_Write+0x2e>
 8002328:	2301      	movs	r3, #1
 800232a:	f884 303c 	strb.w	r3, [r4, #60]	; 0x3c
 800232e:	6823      	ldr	r3, [r4, #0]
 8002330:	681a      	ldr	r2, [r3, #0]
 8002332:	07d1      	lsls	r1, r2, #31
 8002334:	bf5e      	ittt	pl
 8002336:	681a      	ldrpl	r2, [r3, #0]
 8002338:	f042 0201 	orrpl.w	r2, r2, #1
 800233c:	601a      	strpl	r2, [r3, #0]
 800233e:	681a      	ldr	r2, [r3, #0]
 8002340:	f422 6200 	bic.w	r2, r2, #2048	; 0x800
 8002344:	601a      	str	r2, [r3, #0]
 8002346:	2321      	movs	r3, #33	; 0x21
 8002348:	f884 303d 	strb.w	r3, [r4, #61]	; 0x3d
 800234c:	2340      	movs	r3, #64	; 0x40
 800234e:	f884 303e 	strb.w	r3, [r4, #62]	; 0x3e
 8002352:	2300      	movs	r3, #0
 8002354:	6423      	str	r3, [r4, #64]	; 0x40
 8002356:	9b0a      	ldr	r3, [sp, #40]	; 0x28
 8002358:	6263      	str	r3, [r4, #36]	; 0x24
 800235a:	f8bd 302c 	ldrh.w	r3, [sp, #44]	; 0x2c
 800235e:	8563      	strh	r3, [r4, #42]	; 0x2a
 8002360:	8d63      	ldrh	r3, [r4, #42]	; 0x2a
 8002362:	8523      	strh	r3, [r4, #40]	; 0x28
 8002364:	4b28      	ldr	r3, [pc, #160]	; (8002408 <HAL_I2C_Mem_Write+0x130>)
 8002366:	62e3      	str	r3, [r4, #44]	; 0x2c
 8002368:	e9cd 6500 	strd	r6, r5, [sp]
 800236c:	463b      	mov	r3, r7
 800236e:	464a      	mov	r2, r9
 8002370:	4641      	mov	r1, r8
 8002372:	4620      	mov	r0, r4
 8002374:	f7ff fdca 	bl	8001f0c <I2C_RequestMemoryWrite>
 8002378:	2800      	cmp	r0, #0
 800237a:	d02a      	beq.n	80023d2 <HAL_I2C_Mem_Write+0xfa>
 800237c:	2001      	movs	r0, #1
 800237e:	e7c3      	b.n	8002308 <HAL_I2C_Mem_Write+0x30>
 8002380:	f7ff fd9e 	bl	8001ec0 <I2C_WaitOnTXEFlagUntilTimeout>
 8002384:	b140      	cbz	r0, 8002398 <HAL_I2C_Mem_Write+0xc0>
 8002386:	6c23      	ldr	r3, [r4, #64]	; 0x40
 8002388:	2b04      	cmp	r3, #4
 800238a:	bf01      	itttt	eq
 800238c:	6822      	ldreq	r2, [r4, #0]
 800238e:	6813      	ldreq	r3, [r2, #0]
 8002390:	f443 7300 	orreq.w	r3, r3, #512	; 0x200
 8002394:	6013      	streq	r3, [r2, #0]
 8002396:	e7f1      	b.n	800237c <HAL_I2C_Mem_Write+0xa4>
 8002398:	6a63      	ldr	r3, [r4, #36]	; 0x24
 800239a:	6827      	ldr	r7, [r4, #0]
 800239c:	461a      	mov	r2, r3
 800239e:	f812 1b01 	ldrb.w	r1, [r2], #1
 80023a2:	6139      	str	r1, [r7, #16]
 80023a4:	6262      	str	r2, [r4, #36]	; 0x24
 80023a6:	8d62      	ldrh	r2, [r4, #42]	; 0x2a
 80023a8:	8d21      	ldrh	r1, [r4, #40]	; 0x28
 80023aa:	3a01      	subs	r2, #1
 80023ac:	b292      	uxth	r2, r2
 80023ae:	8562      	strh	r2, [r4, #42]	; 0x2a
 80023b0:	697a      	ldr	r2, [r7, #20]
 80023b2:	1e48      	subs	r0, r1, #1
 80023b4:	b280      	uxth	r0, r0
 80023b6:	0752      	lsls	r2, r2, #29
 80023b8:	8520      	strh	r0, [r4, #40]	; 0x28
 80023ba:	d50a      	bpl.n	80023d2 <HAL_I2C_Mem_Write+0xfa>
 80023bc:	b148      	cbz	r0, 80023d2 <HAL_I2C_Mem_Write+0xfa>
 80023be:	785a      	ldrb	r2, [r3, #1]
 80023c0:	613a      	str	r2, [r7, #16]
 80023c2:	3302      	adds	r3, #2
 80023c4:	6263      	str	r3, [r4, #36]	; 0x24
 80023c6:	8d63      	ldrh	r3, [r4, #42]	; 0x2a
 80023c8:	3b01      	subs	r3, #1
 80023ca:	3902      	subs	r1, #2
 80023cc:	b29b      	uxth	r3, r3
 80023ce:	8521      	strh	r1, [r4, #40]	; 0x28
 80023d0:	8563      	strh	r3, [r4, #42]	; 0x2a
 80023d2:	8d23      	ldrh	r3, [r4, #40]	; 0x28
 80023d4:	462a      	mov	r2, r5
 80023d6:	4631      	mov	r1, r6
 80023d8:	4620      	mov	r0, r4
 80023da:	2b00      	cmp	r3, #0
 80023dc:	d1d0      	bne.n	8002380 <HAL_I2C_Mem_Write+0xa8>
 80023de:	f7ff fce9 	bl	8001db4 <I2C_WaitOnBTFFlagUntilTimeout>
 80023e2:	2800      	cmp	r0, #0
 80023e4:	d1cf      	bne.n	8002386 <HAL_I2C_Mem_Write+0xae>
 80023e6:	6822      	ldr	r2, [r4, #0]
 80023e8:	6813      	ldr	r3, [r2, #0]
 80023ea:	f443 7300 	orr.w	r3, r3, #512	; 0x200
 80023ee:	6013      	str	r3, [r2, #0]
 80023f0:	2320      	movs	r3, #32
 80023f2:	f884 303d 	strb.w	r3, [r4, #61]	; 0x3d
 80023f6:	f884 003c 	strb.w	r0, [r4, #60]	; 0x3c
 80023fa:	f884 003e 	strb.w	r0, [r4, #62]	; 0x3e
 80023fe:	e783      	b.n	8002308 <HAL_I2C_Mem_Write+0x30>
 8002400:	0800b1f7 	.word	0x0800b1f7
 8002404:	00100002 	.word	0x00100002
 8002408:	ffff0000 	.word	0xffff0000

0800240c <HAL_I2C_Mem_Read>:
 800240c:	e92d 43f0 	stmdb	sp!, {r4, r5, r6, r7, r8, r9, lr}
 8002410:	b087      	sub	sp, #28
 8002412:	461d      	mov	r5, r3
 8002414:	4604      	mov	r4, r0
 8002416:	4688      	mov	r8, r1
 8002418:	4691      	mov	r9, r2
 800241a:	9f10      	ldr	r7, [sp, #64]	; 0x40
 800241c:	f7fe fd72 	bl	8000f04 <HAL_GetTick>
 8002420:	2d01      	cmp	r5, #1
 8002422:	4606      	mov	r6, r0
 8002424:	d006      	beq.n	8002434 <HAL_I2C_Mem_Read+0x28>
 8002426:	2d10      	cmp	r5, #16
 8002428:	d004      	beq.n	8002434 <HAL_I2C_Mem_Read+0x28>
 800242a:	f640 11ee 	movw	r1, #2542	; 0x9ee
 800242e:	487e      	ldr	r0, [pc, #504]	; (8002628 <HAL_I2C_Mem_Read+0x21c>)
 8002430:	f006 f874 	bl	800851c <assert_failed>
 8002434:	f894 303d 	ldrb.w	r3, [r4, #61]	; 0x3d
 8002438:	2b20      	cmp	r3, #32
 800243a:	d004      	beq.n	8002446 <HAL_I2C_Mem_Read+0x3a>
 800243c:	2502      	movs	r5, #2
 800243e:	4628      	mov	r0, r5
 8002440:	b007      	add	sp, #28
 8002442:	e8bd 83f0 	ldmia.w	sp!, {r4, r5, r6, r7, r8, r9, pc}
 8002446:	9600      	str	r6, [sp, #0]
 8002448:	2319      	movs	r3, #25
 800244a:	2201      	movs	r2, #1
 800244c:	4977      	ldr	r1, [pc, #476]	; (800262c <HAL_I2C_Mem_Read+0x220>)
 800244e:	4620      	mov	r0, r4
 8002450:	f7ff fd05 	bl	8001e5e <I2C_WaitOnFlagUntilTimeout>
 8002454:	2800      	cmp	r0, #0
 8002456:	d1f1      	bne.n	800243c <HAL_I2C_Mem_Read+0x30>
 8002458:	f894 303c 	ldrb.w	r3, [r4, #60]	; 0x3c
 800245c:	2b01      	cmp	r3, #1
 800245e:	d0ed      	beq.n	800243c <HAL_I2C_Mem_Read+0x30>
 8002460:	2301      	movs	r3, #1
 8002462:	f884 303c 	strb.w	r3, [r4, #60]	; 0x3c
 8002466:	6823      	ldr	r3, [r4, #0]
 8002468:	681a      	ldr	r2, [r3, #0]
 800246a:	07d0      	lsls	r0, r2, #31
 800246c:	bf5e      	ittt	pl
 800246e:	681a      	ldrpl	r2, [r3, #0]
 8002470:	f042 0201 	orrpl.w	r2, r2, #1
 8002474:	601a      	strpl	r2, [r3, #0]
 8002476:	681a      	ldr	r2, [r3, #0]
 8002478:	f422 6200 	bic.w	r2, r2, #2048	; 0x800
 800247c:	601a      	str	r2, [r3, #0]
 800247e:	2322      	movs	r3, #34	; 0x22
 8002480:	f884 303d 	strb.w	r3, [r4, #61]	; 0x3d
 8002484:	2340      	movs	r3, #64	; 0x40
 8002486:	f884 303e 	strb.w	r3, [r4, #62]	; 0x3e
 800248a:	2300      	movs	r3, #0
 800248c:	6423      	str	r3, [r4, #64]	; 0x40
 800248e:	9b0e      	ldr	r3, [sp, #56]	; 0x38
 8002490:	6263      	str	r3, [r4, #36]	; 0x24
 8002492:	f8bd 303c 	ldrh.w	r3, [sp, #60]	; 0x3c
 8002496:	8563      	strh	r3, [r4, #42]	; 0x2a
 8002498:	8d63      	ldrh	r3, [r4, #42]	; 0x2a
 800249a:	8523      	strh	r3, [r4, #40]	; 0x28
 800249c:	4b64      	ldr	r3, [pc, #400]	; (8002630 <HAL_I2C_Mem_Read+0x224>)
 800249e:	62e3      	str	r3, [r4, #44]	; 0x2c
 80024a0:	e9cd 7600 	strd	r7, r6, [sp]
 80024a4:	462b      	mov	r3, r5
 80024a6:	464a      	mov	r2, r9
 80024a8:	4641      	mov	r1, r8
 80024aa:	4620      	mov	r0, r4
 80024ac:	f7ff fd84 	bl	8001fb8 <I2C_RequestMemoryRead>
 80024b0:	4605      	mov	r5, r0
 80024b2:	b108      	cbz	r0, 80024b8 <HAL_I2C_Mem_Read+0xac>
 80024b4:	2501      	movs	r5, #1
 80024b6:	e7c2      	b.n	800243e <HAL_I2C_Mem_Read+0x32>
 80024b8:	8d22      	ldrh	r2, [r4, #40]	; 0x28
 80024ba:	6823      	ldr	r3, [r4, #0]
 80024bc:	b992      	cbnz	r2, 80024e4 <HAL_I2C_Mem_Read+0xd8>
 80024be:	9002      	str	r0, [sp, #8]
 80024c0:	695a      	ldr	r2, [r3, #20]
 80024c2:	9202      	str	r2, [sp, #8]
 80024c4:	699a      	ldr	r2, [r3, #24]
 80024c6:	9202      	str	r2, [sp, #8]
 80024c8:	9a02      	ldr	r2, [sp, #8]
 80024ca:	681a      	ldr	r2, [r3, #0]
 80024cc:	f442 7200 	orr.w	r2, r2, #512	; 0x200
 80024d0:	601a      	str	r2, [r3, #0]
 80024d2:	2320      	movs	r3, #32
 80024d4:	f884 303d 	strb.w	r3, [r4, #61]	; 0x3d
 80024d8:	2300      	movs	r3, #0
 80024da:	f884 303e 	strb.w	r3, [r4, #62]	; 0x3e
 80024de:	f884 303c 	strb.w	r3, [r4, #60]	; 0x3c
 80024e2:	e7ac      	b.n	800243e <HAL_I2C_Mem_Read+0x32>
 80024e4:	2a01      	cmp	r2, #1
 80024e6:	d12c      	bne.n	8002542 <HAL_I2C_Mem_Read+0x136>
 80024e8:	681a      	ldr	r2, [r3, #0]
 80024ea:	f422 6280 	bic.w	r2, r2, #1024	; 0x400
 80024ee:	601a      	str	r2, [r3, #0]
 80024f0:	9003      	str	r0, [sp, #12]
 80024f2:	695a      	ldr	r2, [r3, #20]
 80024f4:	9203      	str	r2, [sp, #12]
 80024f6:	699a      	ldr	r2, [r3, #24]
 80024f8:	9203      	str	r2, [sp, #12]
 80024fa:	9a03      	ldr	r2, [sp, #12]
 80024fc:	681a      	ldr	r2, [r3, #0]
 80024fe:	f442 7200 	orr.w	r2, r2, #512	; 0x200
 8002502:	601a      	str	r2, [r3, #0]
 8002504:	f8df 812c 	ldr.w	r8, [pc, #300]	; 8002634 <HAL_I2C_Mem_Read+0x228>
 8002508:	8d23      	ldrh	r3, [r4, #40]	; 0x28
 800250a:	2b00      	cmp	r3, #0
 800250c:	d0e1      	beq.n	80024d2 <HAL_I2C_Mem_Read+0xc6>
 800250e:	2b03      	cmp	r3, #3
 8002510:	d86e      	bhi.n	80025f0 <HAL_I2C_Mem_Read+0x1e4>
 8002512:	2b01      	cmp	r3, #1
 8002514:	d12d      	bne.n	8002572 <HAL_I2C_Mem_Read+0x166>
 8002516:	4632      	mov	r2, r6
 8002518:	4639      	mov	r1, r7
 800251a:	4620      	mov	r0, r4
 800251c:	f7ff fc70 	bl	8001e00 <I2C_WaitOnRXNEFlagUntilTimeout>
 8002520:	2800      	cmp	r0, #0
 8002522:	d1c7      	bne.n	80024b4 <HAL_I2C_Mem_Read+0xa8>
 8002524:	6823      	ldr	r3, [r4, #0]
 8002526:	691a      	ldr	r2, [r3, #16]
 8002528:	6a63      	ldr	r3, [r4, #36]	; 0x24
 800252a:	701a      	strb	r2, [r3, #0]
 800252c:	6a63      	ldr	r3, [r4, #36]	; 0x24
 800252e:	3301      	adds	r3, #1
 8002530:	6263      	str	r3, [r4, #36]	; 0x24
 8002532:	8d23      	ldrh	r3, [r4, #40]	; 0x28
 8002534:	3b01      	subs	r3, #1
 8002536:	8523      	strh	r3, [r4, #40]	; 0x28
 8002538:	8d63      	ldrh	r3, [r4, #42]	; 0x2a
 800253a:	3b01      	subs	r3, #1
 800253c:	b29b      	uxth	r3, r3
 800253e:	8563      	strh	r3, [r4, #42]	; 0x2a
 8002540:	e7e2      	b.n	8002508 <HAL_I2C_Mem_Read+0xfc>
 8002542:	2a02      	cmp	r2, #2
 8002544:	d10e      	bne.n	8002564 <HAL_I2C_Mem_Read+0x158>
 8002546:	681a      	ldr	r2, [r3, #0]
 8002548:	f422 6280 	bic.w	r2, r2, #1024	; 0x400
 800254c:	601a      	str	r2, [r3, #0]
 800254e:	681a      	ldr	r2, [r3, #0]
 8002550:	f442 6200 	orr.w	r2, r2, #2048	; 0x800
 8002554:	601a      	str	r2, [r3, #0]
 8002556:	9004      	str	r0, [sp, #16]
 8002558:	695a      	ldr	r2, [r3, #20]
 800255a:	9204      	str	r2, [sp, #16]
 800255c:	699b      	ldr	r3, [r3, #24]
 800255e:	9304      	str	r3, [sp, #16]
 8002560:	9b04      	ldr	r3, [sp, #16]
 8002562:	e7cf      	b.n	8002504 <HAL_I2C_Mem_Read+0xf8>
 8002564:	9005      	str	r0, [sp, #20]
 8002566:	695a      	ldr	r2, [r3, #20]
 8002568:	9205      	str	r2, [sp, #20]
 800256a:	699b      	ldr	r3, [r3, #24]
 800256c:	9305      	str	r3, [sp, #20]
 800256e:	9b05      	ldr	r3, [sp, #20]
 8002570:	e7c8      	b.n	8002504 <HAL_I2C_Mem_Read+0xf8>
 8002572:	2b02      	cmp	r3, #2
 8002574:	9600      	str	r6, [sp, #0]
 8002576:	463b      	mov	r3, r7
 8002578:	f04f 0200 	mov.w	r2, #0
 800257c:	4641      	mov	r1, r8
 800257e:	4620      	mov	r0, r4
 8002580:	d119      	bne.n	80025b6 <HAL_I2C_Mem_Read+0x1aa>
 8002582:	f7ff fc6c 	bl	8001e5e <I2C_WaitOnFlagUntilTimeout>
 8002586:	2800      	cmp	r0, #0
 8002588:	d194      	bne.n	80024b4 <HAL_I2C_Mem_Read+0xa8>
 800258a:	6823      	ldr	r3, [r4, #0]
 800258c:	681a      	ldr	r2, [r3, #0]
 800258e:	f442 7200 	orr.w	r2, r2, #512	; 0x200
 8002592:	601a      	str	r2, [r3, #0]
 8002594:	691a      	ldr	r2, [r3, #16]
 8002596:	6a63      	ldr	r3, [r4, #36]	; 0x24
 8002598:	701a      	strb	r2, [r3, #0]
 800259a:	6a62      	ldr	r2, [r4, #36]	; 0x24
 800259c:	1c53      	adds	r3, r2, #1
 800259e:	6263      	str	r3, [r4, #36]	; 0x24
 80025a0:	8d23      	ldrh	r3, [r4, #40]	; 0x28
 80025a2:	3b01      	subs	r3, #1
 80025a4:	8523      	strh	r3, [r4, #40]	; 0x28
 80025a6:	8d63      	ldrh	r3, [r4, #42]	; 0x2a
 80025a8:	3b01      	subs	r3, #1
 80025aa:	b29b      	uxth	r3, r3
 80025ac:	8563      	strh	r3, [r4, #42]	; 0x2a
 80025ae:	6823      	ldr	r3, [r4, #0]
 80025b0:	691b      	ldr	r3, [r3, #16]
 80025b2:	7053      	strb	r3, [r2, #1]
 80025b4:	e7ba      	b.n	800252c <HAL_I2C_Mem_Read+0x120>
 80025b6:	f7ff fc52 	bl	8001e5e <I2C_WaitOnFlagUntilTimeout>
 80025ba:	4602      	mov	r2, r0
 80025bc:	2800      	cmp	r0, #0
 80025be:	f47f af79 	bne.w	80024b4 <HAL_I2C_Mem_Read+0xa8>
 80025c2:	6823      	ldr	r3, [r4, #0]
 80025c4:	6819      	ldr	r1, [r3, #0]
 80025c6:	f421 6180 	bic.w	r1, r1, #1024	; 0x400
 80025ca:	6019      	str	r1, [r3, #0]
 80025cc:	6919      	ldr	r1, [r3, #16]
 80025ce:	6a63      	ldr	r3, [r4, #36]	; 0x24
 80025d0:	7019      	strb	r1, [r3, #0]
 80025d2:	6a63      	ldr	r3, [r4, #36]	; 0x24
 80025d4:	9600      	str	r6, [sp, #0]
 80025d6:	3301      	adds	r3, #1
 80025d8:	6263      	str	r3, [r4, #36]	; 0x24
 80025da:	8d23      	ldrh	r3, [r4, #40]	; 0x28
 80025dc:	3b01      	subs	r3, #1
 80025de:	8523      	strh	r3, [r4, #40]	; 0x28
 80025e0:	8d63      	ldrh	r3, [r4, #42]	; 0x2a
 80025e2:	3b01      	subs	r3, #1
 80025e4:	b29b      	uxth	r3, r3
 80025e6:	8563      	strh	r3, [r4, #42]	; 0x2a
 80025e8:	4641      	mov	r1, r8
 80025ea:	463b      	mov	r3, r7
 80025ec:	4620      	mov	r0, r4
 80025ee:	e7c8      	b.n	8002582 <HAL_I2C_Mem_Read+0x176>
 80025f0:	4632      	mov	r2, r6
 80025f2:	4639      	mov	r1, r7
 80025f4:	4620      	mov	r0, r4
 80025f6:	f7ff fc03 	bl	8001e00 <I2C_WaitOnRXNEFlagUntilTimeout>
 80025fa:	2800      	cmp	r0, #0
 80025fc:	f47f af5a 	bne.w	80024b4 <HAL_I2C_Mem_Read+0xa8>
 8002600:	6823      	ldr	r3, [r4, #0]
 8002602:	691a      	ldr	r2, [r3, #16]
 8002604:	6a63      	ldr	r3, [r4, #36]	; 0x24
 8002606:	701a      	strb	r2, [r3, #0]
 8002608:	6a62      	ldr	r2, [r4, #36]	; 0x24
 800260a:	1c53      	adds	r3, r2, #1
 800260c:	6263      	str	r3, [r4, #36]	; 0x24
 800260e:	8d23      	ldrh	r3, [r4, #40]	; 0x28
 8002610:	3b01      	subs	r3, #1
 8002612:	8523      	strh	r3, [r4, #40]	; 0x28
 8002614:	8d63      	ldrh	r3, [r4, #42]	; 0x2a
 8002616:	3b01      	subs	r3, #1
 8002618:	b29b      	uxth	r3, r3
 800261a:	8563      	strh	r3, [r4, #42]	; 0x2a
 800261c:	6823      	ldr	r3, [r4, #0]
 800261e:	6959      	ldr	r1, [r3, #20]
 8002620:	0749      	lsls	r1, r1, #29
 8002622:	f57f af71 	bpl.w	8002508 <HAL_I2C_Mem_Read+0xfc>
 8002626:	e7c3      	b.n	80025b0 <HAL_I2C_Mem_Read+0x1a4>
 8002628:	0800b1f7 	.word	0x0800b1f7
 800262c:	00100002 	.word	0x00100002
 8002630:	ffff0000 	.word	0xffff0000
 8002634:	00010004 	.word	0x00010004

08002638 <HAL_PWR_EnableWakeUpPin>:
 8002638:	f5b0 7f80 	cmp.w	r0, #256	; 0x100
 800263c:	b510      	push	{r4, lr}
 800263e:	4604      	mov	r4, r0
 8002640:	d004      	beq.n	800264c <HAL_PWR_EnableWakeUpPin+0x14>
 8002642:	f240 1141 	movw	r1, #321	; 0x141
 8002646:	4804      	ldr	r0, [pc, #16]	; (8002658 <HAL_PWR_EnableWakeUpPin+0x20>)
 8002648:	f005 ff68 	bl	800851c <assert_failed>
 800264c:	4b03      	ldr	r3, [pc, #12]	; (800265c <HAL_PWR_EnableWakeUpPin+0x24>)
 800264e:	6858      	ldr	r0, [r3, #4]
 8002650:	4320      	orrs	r0, r4
 8002652:	6058      	str	r0, [r3, #4]
 8002654:	bd10      	pop	{r4, pc}
 8002656:	bf00      	nop
 8002658:	0800b22f 	.word	0x0800b22f
 800265c:	40007000 	.word	0x40007000

08002660 <HAL_PWR_DisableWakeUpPin>:
 8002660:	f5b0 7f80 	cmp.w	r0, #256	; 0x100
 8002664:	b510      	push	{r4, lr}
 8002666:	4604      	mov	r4, r0
 8002668:	d004      	beq.n	8002674 <HAL_PWR_DisableWakeUpPin+0x14>
 800266a:	f240 1153 	movw	r1, #339	; 0x153
 800266e:	4804      	ldr	r0, [pc, #16]	; (8002680 <HAL_PWR_DisableWakeUpPin+0x20>)
 8002670:	f005 ff54 	bl	800851c <assert_failed>
 8002674:	4b03      	ldr	r3, [pc, #12]	; (8002684 <HAL_PWR_DisableWakeUpPin+0x24>)
 8002676:	6858      	ldr	r0, [r3, #4]
 8002678:	ea20 0004 	bic.w	r0, r0, r4
 800267c:	6058      	str	r0, [r3, #4]
 800267e:	bd10      	pop	{r4, pc}
 8002680:	0800b22f 	.word	0x0800b22f
 8002684:	40007000 	.word	0x40007000

08002688 <HAL_PWR_EnterSTOPMode>:
 8002688:	2801      	cmp	r0, #1
 800268a:	b538      	push	{r3, r4, r5, lr}
 800268c:	4605      	mov	r5, r0
 800268e:	460c      	mov	r4, r1
 8002690:	d904      	bls.n	800269c <HAL_PWR_EnterSTOPMode+0x14>
 8002692:	f240 119b 	movw	r1, #411	; 0x19b
 8002696:	4811      	ldr	r0, [pc, #68]	; (80026dc <HAL_PWR_EnterSTOPMode+0x54>)
 8002698:	f005 ff40 	bl	800851c <assert_failed>
 800269c:	1e63      	subs	r3, r4, #1
 800269e:	2b01      	cmp	r3, #1
 80026a0:	d904      	bls.n	80026ac <HAL_PWR_EnterSTOPMode+0x24>
 80026a2:	f44f 71ce 	mov.w	r1, #412	; 0x19c
 80026a6:	480d      	ldr	r0, [pc, #52]	; (80026dc <HAL_PWR_EnterSTOPMode+0x54>)
 80026a8:	f005 ff38 	bl	800851c <assert_failed>
 80026ac:	4b0c      	ldr	r3, [pc, #48]	; (80026e0 <HAL_PWR_EnterSTOPMode+0x58>)
 80026ae:	6818      	ldr	r0, [r3, #0]
 80026b0:	f020 0003 	bic.w	r0, r0, #3
 80026b4:	4328      	orrs	r0, r5
 80026b6:	6018      	str	r0, [r3, #0]
 80026b8:	4b0a      	ldr	r3, [pc, #40]	; (80026e4 <HAL_PWR_EnterSTOPMode+0x5c>)
 80026ba:	691a      	ldr	r2, [r3, #16]
 80026bc:	2c01      	cmp	r4, #1
 80026be:	f042 0204 	orr.w	r2, r2, #4
 80026c2:	611a      	str	r2, [r3, #16]
 80026c4:	d105      	bne.n	80026d2 <HAL_PWR_EnterSTOPMode+0x4a>
 80026c6:	bf30      	wfi
 80026c8:	691a      	ldr	r2, [r3, #16]
 80026ca:	f022 0204 	bic.w	r2, r2, #4
 80026ce:	611a      	str	r2, [r3, #16]
 80026d0:	bd38      	pop	{r3, r4, r5, pc}
 80026d2:	bf40      	sev
 80026d4:	bf20      	wfe
 80026d6:	bf20      	wfe
 80026d8:	e7f6      	b.n	80026c8 <HAL_PWR_EnterSTOPMode+0x40>
 80026da:	bf00      	nop
 80026dc:	0800b22f 	.word	0x0800b22f
 80026e0:	40007000 	.word	0x40007000
 80026e4:	e000ed00 	.word	0xe000ed00

080026e8 <HAL_PWR_EnterSTANDBYMode>:
 80026e8:	4a05      	ldr	r2, [pc, #20]	; (8002700 <HAL_PWR_EnterSTANDBYMode+0x18>)
 80026ea:	6813      	ldr	r3, [r2, #0]
 80026ec:	f043 0302 	orr.w	r3, r3, #2
 80026f0:	6013      	str	r3, [r2, #0]
 80026f2:	4a04      	ldr	r2, [pc, #16]	; (8002704 <HAL_PWR_EnterSTANDBYMode+0x1c>)
 80026f4:	6913      	ldr	r3, [r2, #16]
 80026f6:	f043 0304 	orr.w	r3, r3, #4
 80026fa:	6113      	str	r3, [r2, #16]
 80026fc:	bf30      	wfi
 80026fe:	4770      	bx	lr
 8002700:	40007000 	.word	0x40007000
 8002704:	e000ed00 	.word	0xe000ed00

08002708 <HAL_RCC_OscConfig>:
 8002708:	e92d 41f3 	stmdb	sp!, {r0, r1, r4, r5, r6, r7, r8, lr}
 800270c:	4604      	mov	r4, r0
 800270e:	b908      	cbnz	r0, 8002714 <HAL_RCC_OscConfig+0xc>
 8002710:	2001      	movs	r0, #1
 8002712:	e059      	b.n	80027c8 <HAL_RCC_OscConfig+0xc0>
 8002714:	6803      	ldr	r3, [r0, #0]
 8002716:	2b0f      	cmp	r3, #15
 8002718:	d903      	bls.n	8002722 <HAL_RCC_OscConfig+0x1a>
 800271a:	21e8      	movs	r1, #232	; 0xe8
 800271c:	48a3      	ldr	r0, [pc, #652]	; (80029ac <HAL_RCC_OscConfig+0x2a4>)
 800271e:	f005 fefd 	bl	800851c <assert_failed>
 8002722:	6823      	ldr	r3, [r4, #0]
 8002724:	07d8      	lsls	r0, r3, #31
 8002726:	d418      	bmi.n	800275a <HAL_RCC_OscConfig+0x52>
 8002728:	6823      	ldr	r3, [r4, #0]
 800272a:	0799      	lsls	r1, r3, #30
 800272c:	d46d      	bmi.n	800280a <HAL_RCC_OscConfig+0x102>
 800272e:	6823      	ldr	r3, [r4, #0]
 8002730:	0719      	lsls	r1, r3, #28
 8002732:	f100 80c0 	bmi.w	80028b6 <HAL_RCC_OscConfig+0x1ae>
 8002736:	6823      	ldr	r3, [r4, #0]
 8002738:	075a      	lsls	r2, r3, #29
 800273a:	f100 80e6 	bmi.w	800290a <HAL_RCC_OscConfig+0x202>
 800273e:	69a3      	ldr	r3, [r4, #24]
 8002740:	2b02      	cmp	r3, #2
 8002742:	d904      	bls.n	800274e <HAL_RCC_OscConfig+0x46>
 8002744:	f240 11cf 	movw	r1, #463	; 0x1cf
 8002748:	4898      	ldr	r0, [pc, #608]	; (80029ac <HAL_RCC_OscConfig+0x2a4>)
 800274a:	f005 fee7 	bl	800851c <assert_failed>
 800274e:	69a0      	ldr	r0, [r4, #24]
 8002750:	2800      	cmp	r0, #0
 8002752:	f040 8153 	bne.w	80029fc <HAL_RCC_OscConfig+0x2f4>
 8002756:	2000      	movs	r0, #0
 8002758:	e036      	b.n	80027c8 <HAL_RCC_OscConfig+0xc0>
 800275a:	6863      	ldr	r3, [r4, #4]
 800275c:	f433 3280 	bics.w	r2, r3, #65536	; 0x10000
 8002760:	d006      	beq.n	8002770 <HAL_RCC_OscConfig+0x68>
 8002762:	f5b3 2fa0 	cmp.w	r3, #327680	; 0x50000
 8002766:	d003      	beq.n	8002770 <HAL_RCC_OscConfig+0x68>
 8002768:	21ed      	movs	r1, #237	; 0xed
 800276a:	4890      	ldr	r0, [pc, #576]	; (80029ac <HAL_RCC_OscConfig+0x2a4>)
 800276c:	f005 fed6 	bl	800851c <assert_failed>
 8002770:	4b8f      	ldr	r3, [pc, #572]	; (80029b0 <HAL_RCC_OscConfig+0x2a8>)
 8002772:	689a      	ldr	r2, [r3, #8]
 8002774:	f002 020c 	and.w	r2, r2, #12
 8002778:	2a04      	cmp	r2, #4
 800277a:	d007      	beq.n	800278c <HAL_RCC_OscConfig+0x84>
 800277c:	689a      	ldr	r2, [r3, #8]
 800277e:	f002 020c 	and.w	r2, r2, #12
 8002782:	2a08      	cmp	r2, #8
 8002784:	d10a      	bne.n	800279c <HAL_RCC_OscConfig+0x94>
 8002786:	685b      	ldr	r3, [r3, #4]
 8002788:	025a      	lsls	r2, r3, #9
 800278a:	d507      	bpl.n	800279c <HAL_RCC_OscConfig+0x94>
 800278c:	4b88      	ldr	r3, [pc, #544]	; (80029b0 <HAL_RCC_OscConfig+0x2a8>)
 800278e:	681b      	ldr	r3, [r3, #0]
 8002790:	039b      	lsls	r3, r3, #14
 8002792:	d5c9      	bpl.n	8002728 <HAL_RCC_OscConfig+0x20>
 8002794:	6863      	ldr	r3, [r4, #4]
 8002796:	2b00      	cmp	r3, #0
 8002798:	d1c6      	bne.n	8002728 <HAL_RCC_OscConfig+0x20>
 800279a:	e7b9      	b.n	8002710 <HAL_RCC_OscConfig+0x8>
 800279c:	6863      	ldr	r3, [r4, #4]
 800279e:	4d84      	ldr	r5, [pc, #528]	; (80029b0 <HAL_RCC_OscConfig+0x2a8>)
 80027a0:	f5b3 3f80 	cmp.w	r3, #65536	; 0x10000
 80027a4:	d113      	bne.n	80027ce <HAL_RCC_OscConfig+0xc6>
 80027a6:	682b      	ldr	r3, [r5, #0]
 80027a8:	f443 3380 	orr.w	r3, r3, #65536	; 0x10000
 80027ac:	602b      	str	r3, [r5, #0]
 80027ae:	f7fe fba9 	bl	8000f04 <HAL_GetTick>
 80027b2:	4d7f      	ldr	r5, [pc, #508]	; (80029b0 <HAL_RCC_OscConfig+0x2a8>)
 80027b4:	4606      	mov	r6, r0
 80027b6:	682b      	ldr	r3, [r5, #0]
 80027b8:	039f      	lsls	r7, r3, #14
 80027ba:	d4b5      	bmi.n	8002728 <HAL_RCC_OscConfig+0x20>
 80027bc:	f7fe fba2 	bl	8000f04 <HAL_GetTick>
 80027c0:	1b80      	subs	r0, r0, r6
 80027c2:	2864      	cmp	r0, #100	; 0x64
 80027c4:	d9f7      	bls.n	80027b6 <HAL_RCC_OscConfig+0xae>
 80027c6:	2003      	movs	r0, #3
 80027c8:	b002      	add	sp, #8
 80027ca:	e8bd 81f0 	ldmia.w	sp!, {r4, r5, r6, r7, r8, pc}
 80027ce:	f5b3 2fa0 	cmp.w	r3, #327680	; 0x50000
 80027d2:	d104      	bne.n	80027de <HAL_RCC_OscConfig+0xd6>
 80027d4:	682b      	ldr	r3, [r5, #0]
 80027d6:	f443 2380 	orr.w	r3, r3, #262144	; 0x40000
 80027da:	602b      	str	r3, [r5, #0]
 80027dc:	e7e3      	b.n	80027a6 <HAL_RCC_OscConfig+0x9e>
 80027de:	682a      	ldr	r2, [r5, #0]
 80027e0:	f422 3280 	bic.w	r2, r2, #65536	; 0x10000
 80027e4:	602a      	str	r2, [r5, #0]
 80027e6:	682a      	ldr	r2, [r5, #0]
 80027e8:	f422 2280 	bic.w	r2, r2, #262144	; 0x40000
 80027ec:	602a      	str	r2, [r5, #0]
 80027ee:	2b00      	cmp	r3, #0
 80027f0:	d1dd      	bne.n	80027ae <HAL_RCC_OscConfig+0xa6>
 80027f2:	f7fe fb87 	bl	8000f04 <HAL_GetTick>
 80027f6:	4606      	mov	r6, r0
 80027f8:	682b      	ldr	r3, [r5, #0]
 80027fa:	0398      	lsls	r0, r3, #14
 80027fc:	d594      	bpl.n	8002728 <HAL_RCC_OscConfig+0x20>
 80027fe:	f7fe fb81 	bl	8000f04 <HAL_GetTick>
 8002802:	1b80      	subs	r0, r0, r6
 8002804:	2864      	cmp	r0, #100	; 0x64
 8002806:	d9f7      	bls.n	80027f8 <HAL_RCC_OscConfig+0xf0>
 8002808:	e7dd      	b.n	80027c6 <HAL_RCC_OscConfig+0xbe>
 800280a:	68e3      	ldr	r3, [r4, #12]
 800280c:	2b01      	cmp	r3, #1
 800280e:	d904      	bls.n	800281a <HAL_RCC_OscConfig+0x112>
 8002810:	f240 111f 	movw	r1, #287	; 0x11f
 8002814:	4865      	ldr	r0, [pc, #404]	; (80029ac <HAL_RCC_OscConfig+0x2a4>)
 8002816:	f005 fe81 	bl	800851c <assert_failed>
 800281a:	6923      	ldr	r3, [r4, #16]
 800281c:	2b1f      	cmp	r3, #31
 800281e:	d904      	bls.n	800282a <HAL_RCC_OscConfig+0x122>
 8002820:	f44f 7190 	mov.w	r1, #288	; 0x120
 8002824:	4861      	ldr	r0, [pc, #388]	; (80029ac <HAL_RCC_OscConfig+0x2a4>)
 8002826:	f005 fe79 	bl	800851c <assert_failed>
 800282a:	4b61      	ldr	r3, [pc, #388]	; (80029b0 <HAL_RCC_OscConfig+0x2a8>)
 800282c:	689a      	ldr	r2, [r3, #8]
 800282e:	f012 0f0c 	tst.w	r2, #12
 8002832:	d007      	beq.n	8002844 <HAL_RCC_OscConfig+0x13c>
 8002834:	689a      	ldr	r2, [r3, #8]
 8002836:	f002 020c 	and.w	r2, r2, #12
 800283a:	2a08      	cmp	r2, #8
 800283c:	d112      	bne.n	8002864 <HAL_RCC_OscConfig+0x15c>
 800283e:	685b      	ldr	r3, [r3, #4]
 8002840:	0259      	lsls	r1, r3, #9
 8002842:	d40f      	bmi.n	8002864 <HAL_RCC_OscConfig+0x15c>
 8002844:	4b5a      	ldr	r3, [pc, #360]	; (80029b0 <HAL_RCC_OscConfig+0x2a8>)
 8002846:	681a      	ldr	r2, [r3, #0]
 8002848:	0792      	lsls	r2, r2, #30
 800284a:	d503      	bpl.n	8002854 <HAL_RCC_OscConfig+0x14c>
 800284c:	68e2      	ldr	r2, [r4, #12]
 800284e:	2a01      	cmp	r2, #1
 8002850:	f47f af5e 	bne.w	8002710 <HAL_RCC_OscConfig+0x8>
 8002854:	681a      	ldr	r2, [r3, #0]
 8002856:	6921      	ldr	r1, [r4, #16]
 8002858:	f022 02f8 	bic.w	r2, r2, #248	; 0xf8
 800285c:	ea42 02c1 	orr.w	r2, r2, r1, lsl #3
 8002860:	601a      	str	r2, [r3, #0]
 8002862:	e764      	b.n	800272e <HAL_RCC_OscConfig+0x26>
 8002864:	68e2      	ldr	r2, [r4, #12]
 8002866:	4b53      	ldr	r3, [pc, #332]	; (80029b4 <HAL_RCC_OscConfig+0x2ac>)
 8002868:	b1b2      	cbz	r2, 8002898 <HAL_RCC_OscConfig+0x190>
 800286a:	2201      	movs	r2, #1
 800286c:	601a      	str	r2, [r3, #0]
 800286e:	f7fe fb49 	bl	8000f04 <HAL_GetTick>
 8002872:	4d4f      	ldr	r5, [pc, #316]	; (80029b0 <HAL_RCC_OscConfig+0x2a8>)
 8002874:	4606      	mov	r6, r0
 8002876:	682b      	ldr	r3, [r5, #0]
 8002878:	079f      	lsls	r7, r3, #30
 800287a:	d507      	bpl.n	800288c <HAL_RCC_OscConfig+0x184>
 800287c:	682b      	ldr	r3, [r5, #0]
 800287e:	6922      	ldr	r2, [r4, #16]
 8002880:	f023 03f8 	bic.w	r3, r3, #248	; 0xf8
 8002884:	ea43 03c2 	orr.w	r3, r3, r2, lsl #3
 8002888:	602b      	str	r3, [r5, #0]
 800288a:	e750      	b.n	800272e <HAL_RCC_OscConfig+0x26>
 800288c:	f7fe fb3a 	bl	8000f04 <HAL_GetTick>
 8002890:	1b80      	subs	r0, r0, r6
 8002892:	2802      	cmp	r0, #2
 8002894:	d9ef      	bls.n	8002876 <HAL_RCC_OscConfig+0x16e>
 8002896:	e796      	b.n	80027c6 <HAL_RCC_OscConfig+0xbe>
 8002898:	601a      	str	r2, [r3, #0]
 800289a:	f7fe fb33 	bl	8000f04 <HAL_GetTick>
 800289e:	4d44      	ldr	r5, [pc, #272]	; (80029b0 <HAL_RCC_OscConfig+0x2a8>)
 80028a0:	4606      	mov	r6, r0
 80028a2:	682b      	ldr	r3, [r5, #0]
 80028a4:	0798      	lsls	r0, r3, #30
 80028a6:	f57f af42 	bpl.w	800272e <HAL_RCC_OscConfig+0x26>
 80028aa:	f7fe fb2b 	bl	8000f04 <HAL_GetTick>
 80028ae:	1b80      	subs	r0, r0, r6
 80028b0:	2802      	cmp	r0, #2
 80028b2:	d9f6      	bls.n	80028a2 <HAL_RCC_OscConfig+0x19a>
 80028b4:	e787      	b.n	80027c6 <HAL_RCC_OscConfig+0xbe>
 80028b6:	6963      	ldr	r3, [r4, #20]
 80028b8:	2b01      	cmp	r3, #1
 80028ba:	d904      	bls.n	80028c6 <HAL_RCC_OscConfig+0x1be>
 80028bc:	f44f 71b0 	mov.w	r1, #352	; 0x160
 80028c0:	483a      	ldr	r0, [pc, #232]	; (80029ac <HAL_RCC_OscConfig+0x2a4>)
 80028c2:	f005 fe2b 	bl	800851c <assert_failed>
 80028c6:	6962      	ldr	r2, [r4, #20]
 80028c8:	4b3b      	ldr	r3, [pc, #236]	; (80029b8 <HAL_RCC_OscConfig+0x2b0>)
 80028ca:	b17a      	cbz	r2, 80028ec <HAL_RCC_OscConfig+0x1e4>
 80028cc:	2201      	movs	r2, #1
 80028ce:	601a      	str	r2, [r3, #0]
 80028d0:	f7fe fb18 	bl	8000f04 <HAL_GetTick>
 80028d4:	4d36      	ldr	r5, [pc, #216]	; (80029b0 <HAL_RCC_OscConfig+0x2a8>)
 80028d6:	4606      	mov	r6, r0
 80028d8:	6f6b      	ldr	r3, [r5, #116]	; 0x74
 80028da:	079b      	lsls	r3, r3, #30
 80028dc:	f53f af2b 	bmi.w	8002736 <HAL_RCC_OscConfig+0x2e>
 80028e0:	f7fe fb10 	bl	8000f04 <HAL_GetTick>
 80028e4:	1b80      	subs	r0, r0, r6
 80028e6:	2802      	cmp	r0, #2
 80028e8:	d9f6      	bls.n	80028d8 <HAL_RCC_OscConfig+0x1d0>
 80028ea:	e76c      	b.n	80027c6 <HAL_RCC_OscConfig+0xbe>
 80028ec:	601a      	str	r2, [r3, #0]
 80028ee:	f7fe fb09 	bl	8000f04 <HAL_GetTick>
 80028f2:	4d2f      	ldr	r5, [pc, #188]	; (80029b0 <HAL_RCC_OscConfig+0x2a8>)
 80028f4:	4606      	mov	r6, r0
 80028f6:	6f6b      	ldr	r3, [r5, #116]	; 0x74
 80028f8:	079f      	lsls	r7, r3, #30
 80028fa:	f57f af1c 	bpl.w	8002736 <HAL_RCC_OscConfig+0x2e>
 80028fe:	f7fe fb01 	bl	8000f04 <HAL_GetTick>
 8002902:	1b80      	subs	r0, r0, r6
 8002904:	2802      	cmp	r0, #2
 8002906:	d9f6      	bls.n	80028f6 <HAL_RCC_OscConfig+0x1ee>
 8002908:	e75d      	b.n	80027c6 <HAL_RCC_OscConfig+0xbe>
 800290a:	68a3      	ldr	r3, [r4, #8]
 800290c:	2b01      	cmp	r3, #1
 800290e:	d906      	bls.n	800291e <HAL_RCC_OscConfig+0x216>
 8002910:	2b05      	cmp	r3, #5
 8002912:	d004      	beq.n	800291e <HAL_RCC_OscConfig+0x216>
 8002914:	f44f 71c6 	mov.w	r1, #396	; 0x18c
 8002918:	4824      	ldr	r0, [pc, #144]	; (80029ac <HAL_RCC_OscConfig+0x2a4>)
 800291a:	f005 fdff 	bl	800851c <assert_failed>
 800291e:	4b24      	ldr	r3, [pc, #144]	; (80029b0 <HAL_RCC_OscConfig+0x2a8>)
 8002920:	6c1a      	ldr	r2, [r3, #64]	; 0x40
 8002922:	f012 5280 	ands.w	r2, r2, #268435456	; 0x10000000
 8002926:	d128      	bne.n	800297a <HAL_RCC_OscConfig+0x272>
 8002928:	9201      	str	r2, [sp, #4]
 800292a:	6c1a      	ldr	r2, [r3, #64]	; 0x40
 800292c:	f042 5280 	orr.w	r2, r2, #268435456	; 0x10000000
 8002930:	641a      	str	r2, [r3, #64]	; 0x40
 8002932:	6c1b      	ldr	r3, [r3, #64]	; 0x40
 8002934:	f003 5380 	and.w	r3, r3, #268435456	; 0x10000000
 8002938:	9301      	str	r3, [sp, #4]
 800293a:	9b01      	ldr	r3, [sp, #4]
 800293c:	2601      	movs	r6, #1
 800293e:	4d1f      	ldr	r5, [pc, #124]	; (80029bc <HAL_RCC_OscConfig+0x2b4>)
 8002940:	682b      	ldr	r3, [r5, #0]
 8002942:	05d8      	lsls	r0, r3, #23
 8002944:	d51b      	bpl.n	800297e <HAL_RCC_OscConfig+0x276>
 8002946:	68a3      	ldr	r3, [r4, #8]
 8002948:	4d19      	ldr	r5, [pc, #100]	; (80029b0 <HAL_RCC_OscConfig+0x2a8>)
 800294a:	2b01      	cmp	r3, #1
 800294c:	d127      	bne.n	800299e <HAL_RCC_OscConfig+0x296>
 800294e:	6f2b      	ldr	r3, [r5, #112]	; 0x70
 8002950:	f043 0301 	orr.w	r3, r3, #1
 8002954:	672b      	str	r3, [r5, #112]	; 0x70
 8002956:	f7fe fad5 	bl	8000f04 <HAL_GetTick>
 800295a:	4d15      	ldr	r5, [pc, #84]	; (80029b0 <HAL_RCC_OscConfig+0x2a8>)
 800295c:	4607      	mov	r7, r0
 800295e:	f241 3888 	movw	r8, #5000	; 0x1388
 8002962:	6f2b      	ldr	r3, [r5, #112]	; 0x70
 8002964:	079a      	lsls	r2, r3, #30
 8002966:	d543      	bpl.n	80029f0 <HAL_RCC_OscConfig+0x2e8>
 8002968:	2e00      	cmp	r6, #0
 800296a:	f43f aee8 	beq.w	800273e <HAL_RCC_OscConfig+0x36>
 800296e:	4a10      	ldr	r2, [pc, #64]	; (80029b0 <HAL_RCC_OscConfig+0x2a8>)
 8002970:	6c13      	ldr	r3, [r2, #64]	; 0x40
 8002972:	f023 5380 	bic.w	r3, r3, #268435456	; 0x10000000
 8002976:	6413      	str	r3, [r2, #64]	; 0x40
 8002978:	e6e1      	b.n	800273e <HAL_RCC_OscConfig+0x36>
 800297a:	2600      	movs	r6, #0
 800297c:	e7df      	b.n	800293e <HAL_RCC_OscConfig+0x236>
 800297e:	682b      	ldr	r3, [r5, #0]
 8002980:	f443 7380 	orr.w	r3, r3, #256	; 0x100
 8002984:	602b      	str	r3, [r5, #0]
 8002986:	f7fe fabd 	bl	8000f04 <HAL_GetTick>
 800298a:	4607      	mov	r7, r0
 800298c:	682b      	ldr	r3, [r5, #0]
 800298e:	05d9      	lsls	r1, r3, #23
 8002990:	d4d9      	bmi.n	8002946 <HAL_RCC_OscConfig+0x23e>
 8002992:	f7fe fab7 	bl	8000f04 <HAL_GetTick>
 8002996:	1bc0      	subs	r0, r0, r7
 8002998:	2802      	cmp	r0, #2
 800299a:	d9f7      	bls.n	800298c <HAL_RCC_OscConfig+0x284>
 800299c:	e713      	b.n	80027c6 <HAL_RCC_OscConfig+0xbe>
 800299e:	2b05      	cmp	r3, #5
 80029a0:	d10e      	bne.n	80029c0 <HAL_RCC_OscConfig+0x2b8>
 80029a2:	6f2b      	ldr	r3, [r5, #112]	; 0x70
 80029a4:	f043 0304 	orr.w	r3, r3, #4
 80029a8:	672b      	str	r3, [r5, #112]	; 0x70
 80029aa:	e7d0      	b.n	800294e <HAL_RCC_OscConfig+0x246>
 80029ac:	0800b267 	.word	0x0800b267
 80029b0:	40023800 	.word	0x40023800
 80029b4:	42470000 	.word	0x42470000
 80029b8:	42470e80 	.word	0x42470e80
 80029bc:	40007000 	.word	0x40007000
 80029c0:	6f2a      	ldr	r2, [r5, #112]	; 0x70
 80029c2:	f022 0201 	bic.w	r2, r2, #1
 80029c6:	672a      	str	r2, [r5, #112]	; 0x70
 80029c8:	6f2a      	ldr	r2, [r5, #112]	; 0x70
 80029ca:	f022 0204 	bic.w	r2, r2, #4
 80029ce:	672a      	str	r2, [r5, #112]	; 0x70
 80029d0:	2b00      	cmp	r3, #0
 80029d2:	d1c0      	bne.n	8002956 <HAL_RCC_OscConfig+0x24e>
 80029d4:	f7fe fa96 	bl	8000f04 <HAL_GetTick>
 80029d8:	f241 3888 	movw	r8, #5000	; 0x1388
 80029dc:	4607      	mov	r7, r0
 80029de:	6f2b      	ldr	r3, [r5, #112]	; 0x70
 80029e0:	079b      	lsls	r3, r3, #30
 80029e2:	d5c1      	bpl.n	8002968 <HAL_RCC_OscConfig+0x260>
 80029e4:	f7fe fa8e 	bl	8000f04 <HAL_GetTick>
 80029e8:	1bc0      	subs	r0, r0, r7
 80029ea:	4540      	cmp	r0, r8
 80029ec:	d9f7      	bls.n	80029de <HAL_RCC_OscConfig+0x2d6>
 80029ee:	e6ea      	b.n	80027c6 <HAL_RCC_OscConfig+0xbe>
 80029f0:	f7fe fa88 	bl	8000f04 <HAL_GetTick>
 80029f4:	1bc0      	subs	r0, r0, r7
 80029f6:	4540      	cmp	r0, r8
 80029f8:	d9b3      	bls.n	8002962 <HAL_RCC_OscConfig+0x25a>
 80029fa:	e6e4      	b.n	80027c6 <HAL_RCC_OscConfig+0xbe>
 80029fc:	4d4c      	ldr	r5, [pc, #304]	; (8002b30 <HAL_RCC_OscConfig+0x428>)
 80029fe:	68ab      	ldr	r3, [r5, #8]
 8002a00:	f003 030c 	and.w	r3, r3, #12
 8002a04:	2b08      	cmp	r3, #8
 8002a06:	d06f      	beq.n	8002ae8 <HAL_RCC_OscConfig+0x3e0>
 8002a08:	2802      	cmp	r0, #2
 8002a0a:	4e4a      	ldr	r6, [pc, #296]	; (8002b34 <HAL_RCC_OscConfig+0x42c>)
 8002a0c:	d15d      	bne.n	8002aca <HAL_RCC_OscConfig+0x3c2>
 8002a0e:	69e3      	ldr	r3, [r4, #28]
 8002a10:	f433 0380 	bics.w	r3, r3, #4194304	; 0x400000
 8002a14:	d004      	beq.n	8002a20 <HAL_RCC_OscConfig+0x318>
 8002a16:	f44f 71ec 	mov.w	r1, #472	; 0x1d8
 8002a1a:	4847      	ldr	r0, [pc, #284]	; (8002b38 <HAL_RCC_OscConfig+0x430>)
 8002a1c:	f005 fd7e 	bl	800851c <assert_failed>
 8002a20:	6a23      	ldr	r3, [r4, #32]
 8002a22:	2b3f      	cmp	r3, #63	; 0x3f
 8002a24:	d904      	bls.n	8002a30 <HAL_RCC_OscConfig+0x328>
 8002a26:	f240 11d9 	movw	r1, #473	; 0x1d9
 8002a2a:	4843      	ldr	r0, [pc, #268]	; (8002b38 <HAL_RCC_OscConfig+0x430>)
 8002a2c:	f005 fd76 	bl	800851c <assert_failed>
 8002a30:	6a63      	ldr	r3, [r4, #36]	; 0x24
 8002a32:	3bc0      	subs	r3, #192	; 0xc0
 8002a34:	2bf0      	cmp	r3, #240	; 0xf0
 8002a36:	d904      	bls.n	8002a42 <HAL_RCC_OscConfig+0x33a>
 8002a38:	f44f 71ed 	mov.w	r1, #474	; 0x1da
 8002a3c:	483e      	ldr	r0, [pc, #248]	; (8002b38 <HAL_RCC_OscConfig+0x430>)
 8002a3e:	f005 fd6d 	bl	800851c <assert_failed>
 8002a42:	6aa2      	ldr	r2, [r4, #40]	; 0x28
 8002a44:	2a08      	cmp	r2, #8
 8002a46:	d804      	bhi.n	8002a52 <HAL_RCC_OscConfig+0x34a>
 8002a48:	f44f 73aa 	mov.w	r3, #340	; 0x154
 8002a4c:	40d3      	lsrs	r3, r2
 8002a4e:	07d8      	lsls	r0, r3, #31
 8002a50:	d404      	bmi.n	8002a5c <HAL_RCC_OscConfig+0x354>
 8002a52:	f240 11db 	movw	r1, #475	; 0x1db
 8002a56:	4838      	ldr	r0, [pc, #224]	; (8002b38 <HAL_RCC_OscConfig+0x430>)
 8002a58:	f005 fd60 	bl	800851c <assert_failed>
 8002a5c:	6ae3      	ldr	r3, [r4, #44]	; 0x2c
 8002a5e:	3b02      	subs	r3, #2
 8002a60:	2b0d      	cmp	r3, #13
 8002a62:	d904      	bls.n	8002a6e <HAL_RCC_OscConfig+0x366>
 8002a64:	f44f 71ee 	mov.w	r1, #476	; 0x1dc
 8002a68:	4833      	ldr	r0, [pc, #204]	; (8002b38 <HAL_RCC_OscConfig+0x430>)
 8002a6a:	f005 fd57 	bl	800851c <assert_failed>
 8002a6e:	2300      	movs	r3, #0
 8002a70:	6033      	str	r3, [r6, #0]
 8002a72:	f7fe fa47 	bl	8000f04 <HAL_GetTick>
 8002a76:	4d2e      	ldr	r5, [pc, #184]	; (8002b30 <HAL_RCC_OscConfig+0x428>)
 8002a78:	4607      	mov	r7, r0
 8002a7a:	682b      	ldr	r3, [r5, #0]
 8002a7c:	0199      	lsls	r1, r3, #6
 8002a7e:	d41e      	bmi.n	8002abe <HAL_RCC_OscConfig+0x3b6>
 8002a80:	e9d4 3207 	ldrd	r3, r2, [r4, #28]
 8002a84:	4313      	orrs	r3, r2
 8002a86:	6a62      	ldr	r2, [r4, #36]	; 0x24
 8002a88:	ea43 1382 	orr.w	r3, r3, r2, lsl #6
 8002a8c:	6ae2      	ldr	r2, [r4, #44]	; 0x2c
 8002a8e:	ea43 6302 	orr.w	r3, r3, r2, lsl #24
 8002a92:	6aa2      	ldr	r2, [r4, #40]	; 0x28
 8002a94:	4c26      	ldr	r4, [pc, #152]	; (8002b30 <HAL_RCC_OscConfig+0x428>)
 8002a96:	0852      	lsrs	r2, r2, #1
 8002a98:	3a01      	subs	r2, #1
 8002a9a:	ea43 4302 	orr.w	r3, r3, r2, lsl #16
 8002a9e:	606b      	str	r3, [r5, #4]
 8002aa0:	2301      	movs	r3, #1
 8002aa2:	6033      	str	r3, [r6, #0]
 8002aa4:	f7fe fa2e 	bl	8000f04 <HAL_GetTick>
 8002aa8:	4605      	mov	r5, r0
 8002aaa:	6823      	ldr	r3, [r4, #0]
 8002aac:	019a      	lsls	r2, r3, #6
 8002aae:	f53f ae52 	bmi.w	8002756 <HAL_RCC_OscConfig+0x4e>
 8002ab2:	f7fe fa27 	bl	8000f04 <HAL_GetTick>
 8002ab6:	1b40      	subs	r0, r0, r5
 8002ab8:	2802      	cmp	r0, #2
 8002aba:	d9f6      	bls.n	8002aaa <HAL_RCC_OscConfig+0x3a2>
 8002abc:	e683      	b.n	80027c6 <HAL_RCC_OscConfig+0xbe>
 8002abe:	f7fe fa21 	bl	8000f04 <HAL_GetTick>
 8002ac2:	1bc0      	subs	r0, r0, r7
 8002ac4:	2802      	cmp	r0, #2
 8002ac6:	d9d8      	bls.n	8002a7a <HAL_RCC_OscConfig+0x372>
 8002ac8:	e67d      	b.n	80027c6 <HAL_RCC_OscConfig+0xbe>
 8002aca:	2300      	movs	r3, #0
 8002acc:	6033      	str	r3, [r6, #0]
 8002ace:	f7fe fa19 	bl	8000f04 <HAL_GetTick>
 8002ad2:	4604      	mov	r4, r0
 8002ad4:	682b      	ldr	r3, [r5, #0]
 8002ad6:	019b      	lsls	r3, r3, #6
 8002ad8:	f57f ae3d 	bpl.w	8002756 <HAL_RCC_OscConfig+0x4e>
 8002adc:	f7fe fa12 	bl	8000f04 <HAL_GetTick>
 8002ae0:	1b00      	subs	r0, r0, r4
 8002ae2:	2802      	cmp	r0, #2
 8002ae4:	d9f6      	bls.n	8002ad4 <HAL_RCC_OscConfig+0x3cc>
 8002ae6:	e66e      	b.n	80027c6 <HAL_RCC_OscConfig+0xbe>
 8002ae8:	2801      	cmp	r0, #1
 8002aea:	f43f ae6d 	beq.w	80027c8 <HAL_RCC_OscConfig+0xc0>
 8002aee:	6868      	ldr	r0, [r5, #4]
 8002af0:	69e3      	ldr	r3, [r4, #28]
 8002af2:	f400 0280 	and.w	r2, r0, #4194304	; 0x400000
 8002af6:	429a      	cmp	r2, r3
 8002af8:	f47f ae0a 	bne.w	8002710 <HAL_RCC_OscConfig+0x8>
 8002afc:	6a22      	ldr	r2, [r4, #32]
 8002afe:	f000 033f 	and.w	r3, r0, #63	; 0x3f
 8002b02:	4293      	cmp	r3, r2
 8002b04:	f47f ae04 	bne.w	8002710 <HAL_RCC_OscConfig+0x8>
 8002b08:	6a62      	ldr	r2, [r4, #36]	; 0x24
 8002b0a:	f647 73c0 	movw	r3, #32704	; 0x7fc0
 8002b0e:	4003      	ands	r3, r0
 8002b10:	4293      	cmp	r3, r2
 8002b12:	f47f adfd 	bne.w	8002710 <HAL_RCC_OscConfig+0x8>
 8002b16:	6aa2      	ldr	r2, [r4, #40]	; 0x28
 8002b18:	f400 3340 	and.w	r3, r0, #196608	; 0x30000
 8002b1c:	4293      	cmp	r3, r2
 8002b1e:	f47f adf7 	bne.w	8002710 <HAL_RCC_OscConfig+0x8>
 8002b22:	6ae3      	ldr	r3, [r4, #44]	; 0x2c
 8002b24:	f000 6070 	and.w	r0, r0, #251658240	; 0xf000000
 8002b28:	1ac0      	subs	r0, r0, r3
 8002b2a:	bf18      	it	ne
 8002b2c:	2001      	movne	r0, #1
 8002b2e:	e64b      	b.n	80027c8 <HAL_RCC_OscConfig+0xc0>
 8002b30:	40023800 	.word	0x40023800
 8002b34:	42470060 	.word	0x42470060
 8002b38:	0800b267 	.word	0x0800b267

08002b3c <HAL_RCC_GetSysClockFreq>:
 8002b3c:	4913      	ldr	r1, [pc, #76]	; (8002b8c <HAL_RCC_GetSysClockFreq+0x50>)
 8002b3e:	b508      	push	{r3, lr}
 8002b40:	688b      	ldr	r3, [r1, #8]
 8002b42:	f003 030c 	and.w	r3, r3, #12
 8002b46:	2b04      	cmp	r3, #4
 8002b48:	d003      	beq.n	8002b52 <HAL_RCC_GetSysClockFreq+0x16>
 8002b4a:	2b08      	cmp	r3, #8
 8002b4c:	d003      	beq.n	8002b56 <HAL_RCC_GetSysClockFreq+0x1a>
 8002b4e:	4810      	ldr	r0, [pc, #64]	; (8002b90 <HAL_RCC_GetSysClockFreq+0x54>)
 8002b50:	e000      	b.n	8002b54 <HAL_RCC_GetSysClockFreq+0x18>
 8002b52:	4810      	ldr	r0, [pc, #64]	; (8002b94 <HAL_RCC_GetSysClockFreq+0x58>)
 8002b54:	bd08      	pop	{r3, pc}
 8002b56:	684a      	ldr	r2, [r1, #4]
 8002b58:	684b      	ldr	r3, [r1, #4]
 8002b5a:	6849      	ldr	r1, [r1, #4]
 8002b5c:	f413 0380 	ands.w	r3, r3, #4194304	; 0x400000
 8002b60:	bf14      	ite	ne
 8002b62:	480c      	ldrne	r0, [pc, #48]	; (8002b94 <HAL_RCC_GetSysClockFreq+0x58>)
 8002b64:	480a      	ldreq	r0, [pc, #40]	; (8002b90 <HAL_RCC_GetSysClockFreq+0x54>)
 8002b66:	f3c1 1188 	ubfx	r1, r1, #6, #9
 8002b6a:	bf18      	it	ne
 8002b6c:	2300      	movne	r3, #0
 8002b6e:	f002 023f 	and.w	r2, r2, #63	; 0x3f
 8002b72:	fba1 0100 	umull	r0, r1, r1, r0
 8002b76:	f7fe f81f 	bl	8000bb8 <__aeabi_uldivmod>
 8002b7a:	4b04      	ldr	r3, [pc, #16]	; (8002b8c <HAL_RCC_GetSysClockFreq+0x50>)
 8002b7c:	685b      	ldr	r3, [r3, #4]
 8002b7e:	f3c3 4301 	ubfx	r3, r3, #16, #2
 8002b82:	3301      	adds	r3, #1
 8002b84:	005b      	lsls	r3, r3, #1
 8002b86:	fbb0 f0f3 	udiv	r0, r0, r3
 8002b8a:	e7e3      	b.n	8002b54 <HAL_RCC_GetSysClockFreq+0x18>
 8002b8c:	40023800 	.word	0x40023800
 8002b90:	00f42400 	.word	0x00f42400
 8002b94:	007a1200 	.word	0x007a1200

08002b98 <HAL_RCC_ClockConfig>:
 8002b98:	e92d 41f0 	stmdb	sp!, {r4, r5, r6, r7, r8, lr}
 8002b9c:	460d      	mov	r5, r1
 8002b9e:	4604      	mov	r4, r0
 8002ba0:	b910      	cbnz	r0, 8002ba8 <HAL_RCC_ClockConfig+0x10>
 8002ba2:	2001      	movs	r0, #1
 8002ba4:	e8bd 81f0 	ldmia.w	sp!, {r4, r5, r6, r7, r8, pc}
 8002ba8:	6803      	ldr	r3, [r0, #0]
 8002baa:	3b01      	subs	r3, #1
 8002bac:	2b0e      	cmp	r3, #14
 8002bae:	d904      	bls.n	8002bba <HAL_RCC_ClockConfig+0x22>
 8002bb0:	f240 2151 	movw	r1, #593	; 0x251
 8002bb4:	486c      	ldr	r0, [pc, #432]	; (8002d68 <HAL_RCC_ClockConfig+0x1d0>)
 8002bb6:	f005 fcb1 	bl	800851c <assert_failed>
 8002bba:	2d07      	cmp	r5, #7
 8002bbc:	d904      	bls.n	8002bc8 <HAL_RCC_ClockConfig+0x30>
 8002bbe:	f240 2152 	movw	r1, #594	; 0x252
 8002bc2:	4869      	ldr	r0, [pc, #420]	; (8002d68 <HAL_RCC_ClockConfig+0x1d0>)
 8002bc4:	f005 fcaa 	bl	800851c <assert_failed>
 8002bc8:	4b68      	ldr	r3, [pc, #416]	; (8002d6c <HAL_RCC_ClockConfig+0x1d4>)
 8002bca:	681a      	ldr	r2, [r3, #0]
 8002bcc:	f002 020f 	and.w	r2, r2, #15
 8002bd0:	42aa      	cmp	r2, r5
 8002bd2:	d33d      	bcc.n	8002c50 <HAL_RCC_ClockConfig+0xb8>
 8002bd4:	6822      	ldr	r2, [r4, #0]
 8002bd6:	0796      	lsls	r6, r2, #30
 8002bd8:	d442      	bmi.n	8002c60 <HAL_RCC_ClockConfig+0xc8>
 8002bda:	6823      	ldr	r3, [r4, #0]
 8002bdc:	07d9      	lsls	r1, r3, #31
 8002bde:	d46c      	bmi.n	8002cba <HAL_RCC_ClockConfig+0x122>
 8002be0:	4b62      	ldr	r3, [pc, #392]	; (8002d6c <HAL_RCC_ClockConfig+0x1d4>)
 8002be2:	681a      	ldr	r2, [r3, #0]
 8002be4:	f002 020f 	and.w	r2, r2, #15
 8002be8:	42aa      	cmp	r2, r5
 8002bea:	f200 809b 	bhi.w	8002d24 <HAL_RCC_ClockConfig+0x18c>
 8002bee:	6823      	ldr	r3, [r4, #0]
 8002bf0:	075a      	lsls	r2, r3, #29
 8002bf2:	f100 80a0 	bmi.w	8002d36 <HAL_RCC_ClockConfig+0x19e>
 8002bf6:	6823      	ldr	r3, [r4, #0]
 8002bf8:	071b      	lsls	r3, r3, #28
 8002bfa:	d518      	bpl.n	8002c2e <HAL_RCC_ClockConfig+0x96>
 8002bfc:	6923      	ldr	r3, [r4, #16]
 8002bfe:	f433 5280 	bics.w	r2, r3, #4096	; 0x1000
 8002c02:	d00c      	beq.n	8002c1e <HAL_RCC_ClockConfig+0x86>
 8002c04:	f423 6200 	bic.w	r2, r3, #2048	; 0x800
 8002c08:	f5b2 5fa0 	cmp.w	r2, #5120	; 0x1400
 8002c0c:	d007      	beq.n	8002c1e <HAL_RCC_ClockConfig+0x86>
 8002c0e:	f5b3 5fc0 	cmp.w	r3, #6144	; 0x1800
 8002c12:	d004      	beq.n	8002c1e <HAL_RCC_ClockConfig+0x86>
 8002c14:	f240 21c1 	movw	r1, #705	; 0x2c1
 8002c18:	4853      	ldr	r0, [pc, #332]	; (8002d68 <HAL_RCC_ClockConfig+0x1d0>)
 8002c1a:	f005 fc7f 	bl	800851c <assert_failed>
 8002c1e:	4a54      	ldr	r2, [pc, #336]	; (8002d70 <HAL_RCC_ClockConfig+0x1d8>)
 8002c20:	6921      	ldr	r1, [r4, #16]
 8002c22:	6893      	ldr	r3, [r2, #8]
 8002c24:	f423 4360 	bic.w	r3, r3, #57344	; 0xe000
 8002c28:	ea43 03c1 	orr.w	r3, r3, r1, lsl #3
 8002c2c:	6093      	str	r3, [r2, #8]
 8002c2e:	f7ff ff85 	bl	8002b3c <HAL_RCC_GetSysClockFreq>
 8002c32:	4b4f      	ldr	r3, [pc, #316]	; (8002d70 <HAL_RCC_ClockConfig+0x1d8>)
 8002c34:	4a4f      	ldr	r2, [pc, #316]	; (8002d74 <HAL_RCC_ClockConfig+0x1dc>)
 8002c36:	689b      	ldr	r3, [r3, #8]
 8002c38:	f3c3 1303 	ubfx	r3, r3, #4, #4
 8002c3c:	5cd3      	ldrb	r3, [r2, r3]
 8002c3e:	40d8      	lsrs	r0, r3
 8002c40:	4b4d      	ldr	r3, [pc, #308]	; (8002d78 <HAL_RCC_ClockConfig+0x1e0>)
 8002c42:	6018      	str	r0, [r3, #0]
 8002c44:	4b4d      	ldr	r3, [pc, #308]	; (8002d7c <HAL_RCC_ClockConfig+0x1e4>)
 8002c46:	6818      	ldr	r0, [r3, #0]
 8002c48:	f005 fd0c 	bl	8008664 <HAL_InitTick>
 8002c4c:	2000      	movs	r0, #0
 8002c4e:	e7a9      	b.n	8002ba4 <HAL_RCC_ClockConfig+0xc>
 8002c50:	b2ea      	uxtb	r2, r5
 8002c52:	701a      	strb	r2, [r3, #0]
 8002c54:	681b      	ldr	r3, [r3, #0]
 8002c56:	f003 030f 	and.w	r3, r3, #15
 8002c5a:	42ab      	cmp	r3, r5
 8002c5c:	d1a1      	bne.n	8002ba2 <HAL_RCC_ClockConfig+0xa>
 8002c5e:	e7b9      	b.n	8002bd4 <HAL_RCC_ClockConfig+0x3c>
 8002c60:	4b43      	ldr	r3, [pc, #268]	; (8002d70 <HAL_RCC_ClockConfig+0x1d8>)
 8002c62:	f012 0f04 	tst.w	r2, #4
 8002c66:	bf1e      	ittt	ne
 8002c68:	6899      	ldrne	r1, [r3, #8]
 8002c6a:	f441 51e0 	orrne.w	r1, r1, #7168	; 0x1c00
 8002c6e:	6099      	strne	r1, [r3, #8]
 8002c70:	0710      	lsls	r0, r2, #28
 8002c72:	bf42      	ittt	mi
 8002c74:	689a      	ldrmi	r2, [r3, #8]
 8002c76:	f442 4260 	orrmi.w	r2, r2, #57344	; 0xe000
 8002c7a:	609a      	strmi	r2, [r3, #8]
 8002c7c:	68a3      	ldr	r3, [r4, #8]
 8002c7e:	f033 0280 	bics.w	r2, r3, #128	; 0x80
 8002c82:	d012      	beq.n	8002caa <HAL_RCC_ClockConfig+0x112>
 8002c84:	f023 0220 	bic.w	r2, r3, #32
 8002c88:	2a90      	cmp	r2, #144	; 0x90
 8002c8a:	d00e      	beq.n	8002caa <HAL_RCC_ClockConfig+0x112>
 8002c8c:	f023 0240 	bic.w	r2, r3, #64	; 0x40
 8002c90:	2aa0      	cmp	r2, #160	; 0xa0
 8002c92:	d00a      	beq.n	8002caa <HAL_RCC_ClockConfig+0x112>
 8002c94:	f023 0210 	bic.w	r2, r3, #16
 8002c98:	2ac0      	cmp	r2, #192	; 0xc0
 8002c9a:	d006      	beq.n	8002caa <HAL_RCC_ClockConfig+0x112>
 8002c9c:	2bf0      	cmp	r3, #240	; 0xf0
 8002c9e:	d004      	beq.n	8002caa <HAL_RCC_ClockConfig+0x112>
 8002ca0:	f240 2175 	movw	r1, #629	; 0x275
 8002ca4:	4830      	ldr	r0, [pc, #192]	; (8002d68 <HAL_RCC_ClockConfig+0x1d0>)
 8002ca6:	f005 fc39 	bl	800851c <assert_failed>
 8002caa:	4a31      	ldr	r2, [pc, #196]	; (8002d70 <HAL_RCC_ClockConfig+0x1d8>)
 8002cac:	68a1      	ldr	r1, [r4, #8]
 8002cae:	6893      	ldr	r3, [r2, #8]
 8002cb0:	f023 03f0 	bic.w	r3, r3, #240	; 0xf0
 8002cb4:	430b      	orrs	r3, r1
 8002cb6:	6093      	str	r3, [r2, #8]
 8002cb8:	e78f      	b.n	8002bda <HAL_RCC_ClockConfig+0x42>
 8002cba:	6863      	ldr	r3, [r4, #4]
 8002cbc:	2b03      	cmp	r3, #3
 8002cbe:	d904      	bls.n	8002cca <HAL_RCC_ClockConfig+0x132>
 8002cc0:	f44f 711f 	mov.w	r1, #636	; 0x27c
 8002cc4:	4828      	ldr	r0, [pc, #160]	; (8002d68 <HAL_RCC_ClockConfig+0x1d0>)
 8002cc6:	f005 fc29 	bl	800851c <assert_failed>
 8002cca:	6862      	ldr	r2, [r4, #4]
 8002ccc:	4b28      	ldr	r3, [pc, #160]	; (8002d70 <HAL_RCC_ClockConfig+0x1d8>)
 8002cce:	2a01      	cmp	r2, #1
 8002cd0:	d11e      	bne.n	8002d10 <HAL_RCC_ClockConfig+0x178>
 8002cd2:	681b      	ldr	r3, [r3, #0]
 8002cd4:	f413 3f00 	tst.w	r3, #131072	; 0x20000
 8002cd8:	f43f af63 	beq.w	8002ba2 <HAL_RCC_ClockConfig+0xa>
 8002cdc:	4e24      	ldr	r6, [pc, #144]	; (8002d70 <HAL_RCC_ClockConfig+0x1d8>)
 8002cde:	68b3      	ldr	r3, [r6, #8]
 8002ce0:	f023 0303 	bic.w	r3, r3, #3
 8002ce4:	4313      	orrs	r3, r2
 8002ce6:	60b3      	str	r3, [r6, #8]
 8002ce8:	f7fe f90c 	bl	8000f04 <HAL_GetTick>
 8002cec:	f241 3888 	movw	r8, #5000	; 0x1388
 8002cf0:	4607      	mov	r7, r0
 8002cf2:	68b3      	ldr	r3, [r6, #8]
 8002cf4:	6862      	ldr	r2, [r4, #4]
 8002cf6:	f003 030c 	and.w	r3, r3, #12
 8002cfa:	ebb3 0f82 	cmp.w	r3, r2, lsl #2
 8002cfe:	f43f af6f 	beq.w	8002be0 <HAL_RCC_ClockConfig+0x48>
 8002d02:	f7fe f8ff 	bl	8000f04 <HAL_GetTick>
 8002d06:	1bc0      	subs	r0, r0, r7
 8002d08:	4540      	cmp	r0, r8
 8002d0a:	d9f2      	bls.n	8002cf2 <HAL_RCC_ClockConfig+0x15a>
 8002d0c:	2003      	movs	r0, #3
 8002d0e:	e749      	b.n	8002ba4 <HAL_RCC_ClockConfig+0xc>
 8002d10:	1e91      	subs	r1, r2, #2
 8002d12:	2901      	cmp	r1, #1
 8002d14:	681b      	ldr	r3, [r3, #0]
 8002d16:	d802      	bhi.n	8002d1e <HAL_RCC_ClockConfig+0x186>
 8002d18:	f013 7f00 	tst.w	r3, #33554432	; 0x2000000
 8002d1c:	e7dc      	b.n	8002cd8 <HAL_RCC_ClockConfig+0x140>
 8002d1e:	f013 0f02 	tst.w	r3, #2
 8002d22:	e7d9      	b.n	8002cd8 <HAL_RCC_ClockConfig+0x140>
 8002d24:	b2ea      	uxtb	r2, r5
 8002d26:	701a      	strb	r2, [r3, #0]
 8002d28:	681b      	ldr	r3, [r3, #0]
 8002d2a:	f003 030f 	and.w	r3, r3, #15
 8002d2e:	42ab      	cmp	r3, r5
 8002d30:	f47f af37 	bne.w	8002ba2 <HAL_RCC_ClockConfig+0xa>
 8002d34:	e75b      	b.n	8002bee <HAL_RCC_ClockConfig+0x56>
 8002d36:	68e3      	ldr	r3, [r4, #12]
 8002d38:	f433 5280 	bics.w	r2, r3, #4096	; 0x1000
 8002d3c:	d00c      	beq.n	8002d58 <HAL_RCC_ClockConfig+0x1c0>
 8002d3e:	f423 6200 	bic.w	r2, r3, #2048	; 0x800
 8002d42:	f5b2 5fa0 	cmp.w	r2, #5120	; 0x1400
 8002d46:	d007      	beq.n	8002d58 <HAL_RCC_ClockConfig+0x1c0>
 8002d48:	f5b3 5fc0 	cmp.w	r3, #6144	; 0x1800
 8002d4c:	d004      	beq.n	8002d58 <HAL_RCC_ClockConfig+0x1c0>
 8002d4e:	f240 21ba 	movw	r1, #698	; 0x2ba
 8002d52:	4805      	ldr	r0, [pc, #20]	; (8002d68 <HAL_RCC_ClockConfig+0x1d0>)
 8002d54:	f005 fbe2 	bl	800851c <assert_failed>
 8002d58:	4a05      	ldr	r2, [pc, #20]	; (8002d70 <HAL_RCC_ClockConfig+0x1d8>)
 8002d5a:	68e1      	ldr	r1, [r4, #12]
 8002d5c:	6893      	ldr	r3, [r2, #8]
 8002d5e:	f423 53e0 	bic.w	r3, r3, #7168	; 0x1c00
 8002d62:	430b      	orrs	r3, r1
 8002d64:	6093      	str	r3, [r2, #8]
 8002d66:	e746      	b.n	8002bf6 <HAL_RCC_ClockConfig+0x5e>
 8002d68:	0800b267 	.word	0x0800b267
 8002d6c:	40023c00 	.word	0x40023c00
 8002d70:	40023800 	.word	0x40023800
 8002d74:	0800b936 	.word	0x0800b936
 8002d78:	20000090 	.word	0x20000090
 8002d7c:	20000084 	.word	0x20000084

08002d80 <HAL_RCC_GetPCLK1Freq>:
 8002d80:	4b04      	ldr	r3, [pc, #16]	; (8002d94 <HAL_RCC_GetPCLK1Freq+0x14>)
 8002d82:	4a05      	ldr	r2, [pc, #20]	; (8002d98 <HAL_RCC_GetPCLK1Freq+0x18>)
 8002d84:	689b      	ldr	r3, [r3, #8]
 8002d86:	f3c3 2382 	ubfx	r3, r3, #10, #3
 8002d8a:	5cd3      	ldrb	r3, [r2, r3]
 8002d8c:	4a03      	ldr	r2, [pc, #12]	; (8002d9c <HAL_RCC_GetPCLK1Freq+0x1c>)
 8002d8e:	6810      	ldr	r0, [r2, #0]
 8002d90:	40d8      	lsrs	r0, r3
 8002d92:	4770      	bx	lr
 8002d94:	40023800 	.word	0x40023800
 8002d98:	0800b946 	.word	0x0800b946
 8002d9c:	20000090 	.word	0x20000090

08002da0 <HAL_RCC_GetPCLK2Freq>:
 8002da0:	4b04      	ldr	r3, [pc, #16]	; (8002db4 <HAL_RCC_GetPCLK2Freq+0x14>)
 8002da2:	4a05      	ldr	r2, [pc, #20]	; (8002db8 <HAL_RCC_GetPCLK2Freq+0x18>)
 8002da4:	689b      	ldr	r3, [r3, #8]
 8002da6:	f3c3 3342 	ubfx	r3, r3, #13, #3
 8002daa:	5cd3      	ldrb	r3, [r2, r3]
 8002dac:	4a03      	ldr	r2, [pc, #12]	; (8002dbc <HAL_RCC_GetPCLK2Freq+0x1c>)
 8002dae:	6810      	ldr	r0, [r2, #0]
 8002db0:	40d8      	lsrs	r0, r3
 8002db2:	4770      	bx	lr
 8002db4:	40023800 	.word	0x40023800
 8002db8:	0800b946 	.word	0x0800b946
 8002dbc:	20000090 	.word	0x20000090

08002dc0 <HAL_RCC_GetClockConfig>:
 8002dc0:	230f      	movs	r3, #15
 8002dc2:	6003      	str	r3, [r0, #0]
 8002dc4:	4b0b      	ldr	r3, [pc, #44]	; (8002df4 <HAL_RCC_GetClockConfig+0x34>)
 8002dc6:	689a      	ldr	r2, [r3, #8]
 8002dc8:	f002 0203 	and.w	r2, r2, #3
 8002dcc:	6042      	str	r2, [r0, #4]
 8002dce:	689a      	ldr	r2, [r3, #8]
 8002dd0:	f002 02f0 	and.w	r2, r2, #240	; 0xf0
 8002dd4:	6082      	str	r2, [r0, #8]
 8002dd6:	689a      	ldr	r2, [r3, #8]
 8002dd8:	f402 52e0 	and.w	r2, r2, #7168	; 0x1c00
 8002ddc:	60c2      	str	r2, [r0, #12]
 8002dde:	689b      	ldr	r3, [r3, #8]
 8002de0:	08db      	lsrs	r3, r3, #3
 8002de2:	f403 53e0 	and.w	r3, r3, #7168	; 0x1c00
 8002de6:	6103      	str	r3, [r0, #16]
 8002de8:	4b03      	ldr	r3, [pc, #12]	; (8002df8 <HAL_RCC_GetClockConfig+0x38>)
 8002dea:	681b      	ldr	r3, [r3, #0]
 8002dec:	f003 030f 	and.w	r3, r3, #15
 8002df0:	600b      	str	r3, [r1, #0]
 8002df2:	4770      	bx	lr
 8002df4:	40023800 	.word	0x40023800
 8002df8:	40023c00 	.word	0x40023c00

08002dfc <HAL_RCCEx_PeriphCLKConfig>:
 8002dfc:	6803      	ldr	r3, [r0, #0]
 8002dfe:	3b01      	subs	r3, #1
 8002e00:	2b0e      	cmp	r3, #14
 8002e02:	b5f7      	push	{r0, r1, r2, r4, r5, r6, r7, lr}
 8002e04:	4604      	mov	r4, r0
 8002e06:	d904      	bls.n	8002e12 <HAL_RCCEx_PeriphCLKConfig+0x16>
 8002e08:	f640 11d9 	movw	r1, #2521	; 0x9d9
 8002e0c:	4872      	ldr	r0, [pc, #456]	; (8002fd8 <HAL_RCCEx_PeriphCLKConfig+0x1dc>)
 8002e0e:	f005 fb85 	bl	800851c <assert_failed>
 8002e12:	6823      	ldr	r3, [r4, #0]
 8002e14:	f013 0f05 	tst.w	r3, #5
 8002e18:	d10b      	bne.n	8002e32 <HAL_RCCEx_PeriphCLKConfig+0x36>
 8002e1a:	6823      	ldr	r3, [r4, #0]
 8002e1c:	079a      	lsls	r2, r3, #30
 8002e1e:	d44d      	bmi.n	8002ebc <HAL_RCCEx_PeriphCLKConfig+0xc0>
 8002e20:	6820      	ldr	r0, [r4, #0]
 8002e22:	f010 0008 	ands.w	r0, r0, #8
 8002e26:	bf1f      	itttt	ne
 8002e28:	4b6c      	ldrne	r3, [pc, #432]	; (8002fdc <HAL_RCCEx_PeriphCLKConfig+0x1e0>)
 8002e2a:	7d22      	ldrbne	r2, [r4, #20]
 8002e2c:	601a      	strne	r2, [r3, #0]
 8002e2e:	2000      	movne	r0, #0
 8002e30:	e042      	b.n	8002eb8 <HAL_RCCEx_PeriphCLKConfig+0xbc>
 8002e32:	68e3      	ldr	r3, [r4, #12]
 8002e34:	3b02      	subs	r3, #2
 8002e36:	2b05      	cmp	r3, #5
 8002e38:	d904      	bls.n	8002e44 <HAL_RCCEx_PeriphCLKConfig+0x48>
 8002e3a:	f44f 611e 	mov.w	r1, #2528	; 0x9e0
 8002e3e:	4866      	ldr	r0, [pc, #408]	; (8002fd8 <HAL_RCCEx_PeriphCLKConfig+0x1dc>)
 8002e40:	f005 fb6c 	bl	800851c <assert_failed>
 8002e44:	68a3      	ldr	r3, [r4, #8]
 8002e46:	3bc0      	subs	r3, #192	; 0xc0
 8002e48:	2bf0      	cmp	r3, #240	; 0xf0
 8002e4a:	d904      	bls.n	8002e56 <HAL_RCCEx_PeriphCLKConfig+0x5a>
 8002e4c:	f640 11e1 	movw	r1, #2529	; 0x9e1
 8002e50:	4861      	ldr	r0, [pc, #388]	; (8002fd8 <HAL_RCCEx_PeriphCLKConfig+0x1dc>)
 8002e52:	f005 fb63 	bl	800851c <assert_failed>
 8002e56:	6863      	ldr	r3, [r4, #4]
 8002e58:	3b02      	subs	r3, #2
 8002e5a:	2b3d      	cmp	r3, #61	; 0x3d
 8002e5c:	d904      	bls.n	8002e68 <HAL_RCCEx_PeriphCLKConfig+0x6c>
 8002e5e:	f640 11e3 	movw	r1, #2531	; 0x9e3
 8002e62:	485d      	ldr	r0, [pc, #372]	; (8002fd8 <HAL_RCCEx_PeriphCLKConfig+0x1dc>)
 8002e64:	f005 fb5a 	bl	800851c <assert_failed>
 8002e68:	4e5d      	ldr	r6, [pc, #372]	; (8002fe0 <HAL_RCCEx_PeriphCLKConfig+0x1e4>)
 8002e6a:	4d5e      	ldr	r5, [pc, #376]	; (8002fe4 <HAL_RCCEx_PeriphCLKConfig+0x1e8>)
 8002e6c:	2300      	movs	r3, #0
 8002e6e:	6033      	str	r3, [r6, #0]
 8002e70:	f7fe f848 	bl	8000f04 <HAL_GetTick>
 8002e74:	4607      	mov	r7, r0
 8002e76:	682b      	ldr	r3, [r5, #0]
 8002e78:	011b      	lsls	r3, r3, #4
 8002e7a:	d417      	bmi.n	8002eac <HAL_RCCEx_PeriphCLKConfig+0xb0>
 8002e7c:	e9d4 2302 	ldrd	r2, r3, [r4, #8]
 8002e80:	071b      	lsls	r3, r3, #28
 8002e82:	ea43 1382 	orr.w	r3, r3, r2, lsl #6
 8002e86:	6862      	ldr	r2, [r4, #4]
 8002e88:	4313      	orrs	r3, r2
 8002e8a:	f8c5 3084 	str.w	r3, [r5, #132]	; 0x84
 8002e8e:	2301      	movs	r3, #1
 8002e90:	6033      	str	r3, [r6, #0]
 8002e92:	f7fe f837 	bl	8000f04 <HAL_GetTick>
 8002e96:	4d53      	ldr	r5, [pc, #332]	; (8002fe4 <HAL_RCCEx_PeriphCLKConfig+0x1e8>)
 8002e98:	4606      	mov	r6, r0
 8002e9a:	682b      	ldr	r3, [r5, #0]
 8002e9c:	0118      	lsls	r0, r3, #4
 8002e9e:	d4bc      	bmi.n	8002e1a <HAL_RCCEx_PeriphCLKConfig+0x1e>
 8002ea0:	f7fe f830 	bl	8000f04 <HAL_GetTick>
 8002ea4:	1b80      	subs	r0, r0, r6
 8002ea6:	2802      	cmp	r0, #2
 8002ea8:	d9f7      	bls.n	8002e9a <HAL_RCCEx_PeriphCLKConfig+0x9e>
 8002eaa:	e004      	b.n	8002eb6 <HAL_RCCEx_PeriphCLKConfig+0xba>
 8002eac:	f7fe f82a 	bl	8000f04 <HAL_GetTick>
 8002eb0:	1bc0      	subs	r0, r0, r7
 8002eb2:	2802      	cmp	r0, #2
 8002eb4:	d9df      	bls.n	8002e76 <HAL_RCCEx_PeriphCLKConfig+0x7a>
 8002eb6:	2003      	movs	r0, #3
 8002eb8:	b003      	add	sp, #12
 8002eba:	bdf0      	pop	{r4, r5, r6, r7, pc}
 8002ebc:	6923      	ldr	r3, [r4, #16]
 8002ebe:	f5b3 7f80 	cmp.w	r3, #256	; 0x100
 8002ec2:	d02e      	beq.n	8002f22 <HAL_RCCEx_PeriphCLKConfig+0x126>
 8002ec4:	f5b3 7f00 	cmp.w	r3, #512	; 0x200
 8002ec8:	d02b      	beq.n	8002f22 <HAL_RCCEx_PeriphCLKConfig+0x126>
 8002eca:	4a47      	ldr	r2, [pc, #284]	; (8002fe8 <HAL_RCCEx_PeriphCLKConfig+0x1ec>)
 8002ecc:	f423 20a0 	bic.w	r0, r3, #327680	; 0x50000
 8002ed0:	4290      	cmp	r0, r2
 8002ed2:	f423 3180 	bic.w	r1, r3, #65536	; 0x10000
 8002ed6:	d024      	beq.n	8002f22 <HAL_RCCEx_PeriphCLKConfig+0x126>
 8002ed8:	f423 2010 	bic.w	r0, r3, #589824	; 0x90000
 8002edc:	f502 3200 	add.w	r2, r2, #131072	; 0x20000
 8002ee0:	4290      	cmp	r0, r2
 8002ee2:	d01e      	beq.n	8002f22 <HAL_RCCEx_PeriphCLKConfig+0x126>
 8002ee4:	4841      	ldr	r0, [pc, #260]	; (8002fec <HAL_RCCEx_PeriphCLKConfig+0x1f0>)
 8002ee6:	f423 3240 	bic.w	r2, r3, #196608	; 0x30000
 8002eea:	4282      	cmp	r2, r0
 8002eec:	d019      	beq.n	8002f22 <HAL_RCCEx_PeriphCLKConfig+0x126>
 8002eee:	f423 1388 	bic.w	r3, r3, #1114112	; 0x110000
 8002ef2:	f500 20c0 	add.w	r0, r0, #393216	; 0x60000
 8002ef6:	4283      	cmp	r3, r0
 8002ef8:	d013      	beq.n	8002f22 <HAL_RCCEx_PeriphCLKConfig+0x126>
 8002efa:	4b3d      	ldr	r3, [pc, #244]	; (8002ff0 <HAL_RCCEx_PeriphCLKConfig+0x1f4>)
 8002efc:	429a      	cmp	r2, r3
 8002efe:	d010      	beq.n	8002f22 <HAL_RCCEx_PeriphCLKConfig+0x126>
 8002f00:	f503 2380 	add.w	r3, r3, #262144	; 0x40000
 8002f04:	429a      	cmp	r2, r3
 8002f06:	d00c      	beq.n	8002f22 <HAL_RCCEx_PeriphCLKConfig+0x126>
 8002f08:	f503 2380 	add.w	r3, r3, #262144	; 0x40000
 8002f0c:	429a      	cmp	r2, r3
 8002f0e:	d008      	beq.n	8002f22 <HAL_RCCEx_PeriphCLKConfig+0x126>
 8002f10:	f503 2380 	add.w	r3, r3, #262144	; 0x40000
 8002f14:	4299      	cmp	r1, r3
 8002f16:	d004      	beq.n	8002f22 <HAL_RCCEx_PeriphCLKConfig+0x126>
 8002f18:	f640 2112 	movw	r1, #2578	; 0xa12
 8002f1c:	482e      	ldr	r0, [pc, #184]	; (8002fd8 <HAL_RCCEx_PeriphCLKConfig+0x1dc>)
 8002f1e:	f005 fafd 	bl	800851c <assert_failed>
 8002f22:	2300      	movs	r3, #0
 8002f24:	9301      	str	r3, [sp, #4]
 8002f26:	4b2f      	ldr	r3, [pc, #188]	; (8002fe4 <HAL_RCCEx_PeriphCLKConfig+0x1e8>)
 8002f28:	4d32      	ldr	r5, [pc, #200]	; (8002ff4 <HAL_RCCEx_PeriphCLKConfig+0x1f8>)
 8002f2a:	6c1a      	ldr	r2, [r3, #64]	; 0x40
 8002f2c:	f042 5280 	orr.w	r2, r2, #268435456	; 0x10000000
 8002f30:	641a      	str	r2, [r3, #64]	; 0x40
 8002f32:	6c1b      	ldr	r3, [r3, #64]	; 0x40
 8002f34:	f003 5380 	and.w	r3, r3, #268435456	; 0x10000000
 8002f38:	9301      	str	r3, [sp, #4]
 8002f3a:	9b01      	ldr	r3, [sp, #4]
 8002f3c:	682b      	ldr	r3, [r5, #0]
 8002f3e:	f443 7380 	orr.w	r3, r3, #256	; 0x100
 8002f42:	602b      	str	r3, [r5, #0]
 8002f44:	f7fd ffde 	bl	8000f04 <HAL_GetTick>
 8002f48:	4606      	mov	r6, r0
 8002f4a:	682b      	ldr	r3, [r5, #0]
 8002f4c:	05d9      	lsls	r1, r3, #23
 8002f4e:	d51a      	bpl.n	8002f86 <HAL_RCCEx_PeriphCLKConfig+0x18a>
 8002f50:	4d24      	ldr	r5, [pc, #144]	; (8002fe4 <HAL_RCCEx_PeriphCLKConfig+0x1e8>)
 8002f52:	6f2b      	ldr	r3, [r5, #112]	; 0x70
 8002f54:	f413 7340 	ands.w	r3, r3, #768	; 0x300
 8002f58:	d11b      	bne.n	8002f92 <HAL_RCCEx_PeriphCLKConfig+0x196>
 8002f5a:	6923      	ldr	r3, [r4, #16]
 8002f5c:	f403 7240 	and.w	r2, r3, #768	; 0x300
 8002f60:	f5b2 7f40 	cmp.w	r2, #768	; 0x300
 8002f64:	4a1f      	ldr	r2, [pc, #124]	; (8002fe4 <HAL_RCCEx_PeriphCLKConfig+0x1e8>)
 8002f66:	d133      	bne.n	8002fd0 <HAL_RCCEx_PeriphCLKConfig+0x1d4>
 8002f68:	6891      	ldr	r1, [r2, #8]
 8002f6a:	f023 4070 	bic.w	r0, r3, #4026531840	; 0xf0000000
 8002f6e:	f421 11f8 	bic.w	r1, r1, #2031616	; 0x1f0000
 8002f72:	f420 7040 	bic.w	r0, r0, #768	; 0x300
 8002f76:	4301      	orrs	r1, r0
 8002f78:	6091      	str	r1, [r2, #8]
 8002f7a:	6f11      	ldr	r1, [r2, #112]	; 0x70
 8002f7c:	f3c3 030b 	ubfx	r3, r3, #0, #12
 8002f80:	430b      	orrs	r3, r1
 8002f82:	6713      	str	r3, [r2, #112]	; 0x70
 8002f84:	e74c      	b.n	8002e20 <HAL_RCCEx_PeriphCLKConfig+0x24>
 8002f86:	f7fd ffbd 	bl	8000f04 <HAL_GetTick>
 8002f8a:	1b80      	subs	r0, r0, r6
 8002f8c:	2802      	cmp	r0, #2
 8002f8e:	d9dc      	bls.n	8002f4a <HAL_RCCEx_PeriphCLKConfig+0x14e>
 8002f90:	e791      	b.n	8002eb6 <HAL_RCCEx_PeriphCLKConfig+0xba>
 8002f92:	6922      	ldr	r2, [r4, #16]
 8002f94:	f402 7240 	and.w	r2, r2, #768	; 0x300
 8002f98:	4293      	cmp	r3, r2
 8002f9a:	d0de      	beq.n	8002f5a <HAL_RCCEx_PeriphCLKConfig+0x15e>
 8002f9c:	6f2b      	ldr	r3, [r5, #112]	; 0x70
 8002f9e:	4a16      	ldr	r2, [pc, #88]	; (8002ff8 <HAL_RCCEx_PeriphCLKConfig+0x1fc>)
 8002fa0:	2101      	movs	r1, #1
 8002fa2:	6011      	str	r1, [r2, #0]
 8002fa4:	f423 7340 	bic.w	r3, r3, #768	; 0x300
 8002fa8:	2100      	movs	r1, #0
 8002faa:	6011      	str	r1, [r2, #0]
 8002fac:	672b      	str	r3, [r5, #112]	; 0x70
 8002fae:	6f2b      	ldr	r3, [r5, #112]	; 0x70
 8002fb0:	07da      	lsls	r2, r3, #31
 8002fb2:	d5d2      	bpl.n	8002f5a <HAL_RCCEx_PeriphCLKConfig+0x15e>
 8002fb4:	f7fd ffa6 	bl	8000f04 <HAL_GetTick>
 8002fb8:	f241 3788 	movw	r7, #5000	; 0x1388
 8002fbc:	4606      	mov	r6, r0
 8002fbe:	6f2b      	ldr	r3, [r5, #112]	; 0x70
 8002fc0:	079b      	lsls	r3, r3, #30
 8002fc2:	d4ca      	bmi.n	8002f5a <HAL_RCCEx_PeriphCLKConfig+0x15e>
 8002fc4:	f7fd ff9e 	bl	8000f04 <HAL_GetTick>
 8002fc8:	1b80      	subs	r0, r0, r6
 8002fca:	42b8      	cmp	r0, r7
 8002fcc:	d9f7      	bls.n	8002fbe <HAL_RCCEx_PeriphCLKConfig+0x1c2>
 8002fce:	e772      	b.n	8002eb6 <HAL_RCCEx_PeriphCLKConfig+0xba>
 8002fd0:	6891      	ldr	r1, [r2, #8]
 8002fd2:	f421 11f8 	bic.w	r1, r1, #2031616	; 0x1f0000
 8002fd6:	e7cf      	b.n	8002f78 <HAL_RCCEx_PeriphCLKConfig+0x17c>
 8002fd8:	0800b29f 	.word	0x0800b29f
 8002fdc:	424711e0 	.word	0x424711e0
 8002fe0:	42470068 	.word	0x42470068
 8002fe4:	40023800 	.word	0x40023800
 8002fe8:	00020300 	.word	0x00020300
 8002fec:	00080300 	.word	0x00080300
 8002ff0:	00100300 	.word	0x00100300
 8002ff4:	40007000 	.word	0x40007000
 8002ff8:	42470e40 	.word	0x42470e40

08002ffc <HAL_RTC_DeactivateAlarm>:
 8002ffc:	f5b1 7f80 	cmp.w	r1, #256	; 0x100
 8003000:	b570      	push	{r4, r5, r6, lr}
 8003002:	4604      	mov	r4, r0
 8003004:	460d      	mov	r5, r1
 8003006:	d007      	beq.n	8003018 <HAL_RTC_DeactivateAlarm+0x1c>
 8003008:	f5b1 7f00 	cmp.w	r1, #512	; 0x200
 800300c:	d004      	beq.n	8003018 <HAL_RTC_DeactivateAlarm+0x1c>
 800300e:	f240 519d 	movw	r1, #1437	; 0x59d
 8003012:	4827      	ldr	r0, [pc, #156]	; (80030b0 <HAL_RTC_DeactivateAlarm+0xb4>)
 8003014:	f005 fa82 	bl	800851c <assert_failed>
 8003018:	7f23      	ldrb	r3, [r4, #28]
 800301a:	2b01      	cmp	r3, #1
 800301c:	f04f 0002 	mov.w	r0, #2
 8003020:	d021      	beq.n	8003066 <HAL_RTC_DeactivateAlarm+0x6a>
 8003022:	2301      	movs	r3, #1
 8003024:	7723      	strb	r3, [r4, #28]
 8003026:	6823      	ldr	r3, [r4, #0]
 8003028:	7760      	strb	r0, [r4, #29]
 800302a:	22ca      	movs	r2, #202	; 0xca
 800302c:	625a      	str	r2, [r3, #36]	; 0x24
 800302e:	2253      	movs	r2, #83	; 0x53
 8003030:	625a      	str	r2, [r3, #36]	; 0x24
 8003032:	f5b5 7f80 	cmp.w	r5, #256	; 0x100
 8003036:	689a      	ldr	r2, [r3, #8]
 8003038:	d123      	bne.n	8003082 <HAL_RTC_DeactivateAlarm+0x86>
 800303a:	f422 7280 	bic.w	r2, r2, #256	; 0x100
 800303e:	609a      	str	r2, [r3, #8]
 8003040:	689a      	ldr	r2, [r3, #8]
 8003042:	f422 5280 	bic.w	r2, r2, #4096	; 0x1000
 8003046:	609a      	str	r2, [r3, #8]
 8003048:	f7fd ff5c 	bl	8000f04 <HAL_GetTick>
 800304c:	4606      	mov	r6, r0
 800304e:	6823      	ldr	r3, [r4, #0]
 8003050:	68dd      	ldr	r5, [r3, #12]
 8003052:	f015 0501 	ands.w	r5, r5, #1
 8003056:	d007      	beq.n	8003068 <HAL_RTC_DeactivateAlarm+0x6c>
 8003058:	6823      	ldr	r3, [r4, #0]
 800305a:	22ff      	movs	r2, #255	; 0xff
 800305c:	625a      	str	r2, [r3, #36]	; 0x24
 800305e:	2000      	movs	r0, #0
 8003060:	2301      	movs	r3, #1
 8003062:	7763      	strb	r3, [r4, #29]
 8003064:	7720      	strb	r0, [r4, #28]
 8003066:	bd70      	pop	{r4, r5, r6, pc}
 8003068:	f7fd ff4c 	bl	8000f04 <HAL_GetTick>
 800306c:	1b80      	subs	r0, r0, r6
 800306e:	f5b0 7f7a 	cmp.w	r0, #1000	; 0x3e8
 8003072:	d9ec      	bls.n	800304e <HAL_RTC_DeactivateAlarm+0x52>
 8003074:	6823      	ldr	r3, [r4, #0]
 8003076:	22ff      	movs	r2, #255	; 0xff
 8003078:	2003      	movs	r0, #3
 800307a:	625a      	str	r2, [r3, #36]	; 0x24
 800307c:	7760      	strb	r0, [r4, #29]
 800307e:	7725      	strb	r5, [r4, #28]
 8003080:	e7f1      	b.n	8003066 <HAL_RTC_DeactivateAlarm+0x6a>
 8003082:	f422 7200 	bic.w	r2, r2, #512	; 0x200
 8003086:	609a      	str	r2, [r3, #8]
 8003088:	689a      	ldr	r2, [r3, #8]
 800308a:	f422 5200 	bic.w	r2, r2, #8192	; 0x2000
 800308e:	609a      	str	r2, [r3, #8]
 8003090:	f7fd ff38 	bl	8000f04 <HAL_GetTick>
 8003094:	4606      	mov	r6, r0
 8003096:	6823      	ldr	r3, [r4, #0]
 8003098:	68dd      	ldr	r5, [r3, #12]
 800309a:	f015 0502 	ands.w	r5, r5, #2
 800309e:	d1db      	bne.n	8003058 <HAL_RTC_DeactivateAlarm+0x5c>
 80030a0:	f7fd ff30 	bl	8000f04 <HAL_GetTick>
 80030a4:	1b80      	subs	r0, r0, r6
 80030a6:	f5b0 7f7a 	cmp.w	r0, #1000	; 0x3e8
 80030aa:	d9f4      	bls.n	8003096 <HAL_RTC_DeactivateAlarm+0x9a>
 80030ac:	e7e2      	b.n	8003074 <HAL_RTC_DeactivateAlarm+0x78>
 80030ae:	bf00      	nop
 80030b0:	0800b2da 	.word	0x0800b2da

080030b4 <HAL_RTC_AlarmIRQHandler>:
 80030b4:	6803      	ldr	r3, [r0, #0]
 80030b6:	689a      	ldr	r2, [r3, #8]
 80030b8:	04d2      	lsls	r2, r2, #19
 80030ba:	b510      	push	{r4, lr}
 80030bc:	4604      	mov	r4, r0
 80030be:	d50a      	bpl.n	80030d6 <HAL_RTC_AlarmIRQHandler+0x22>
 80030c0:	68db      	ldr	r3, [r3, #12]
 80030c2:	05d9      	lsls	r1, r3, #23
 80030c4:	d507      	bpl.n	80030d6 <HAL_RTC_AlarmIRQHandler+0x22>
 80030c6:	f005 fc77 	bl	80089b8 <HAL_RTC_AlarmAEventCallback>
 80030ca:	6822      	ldr	r2, [r4, #0]
 80030cc:	68d3      	ldr	r3, [r2, #12]
 80030ce:	b2db      	uxtb	r3, r3
 80030d0:	f463 73c0 	orn	r3, r3, #384	; 0x180
 80030d4:	60d3      	str	r3, [r2, #12]
 80030d6:	6823      	ldr	r3, [r4, #0]
 80030d8:	689a      	ldr	r2, [r3, #8]
 80030da:	0492      	lsls	r2, r2, #18
 80030dc:	d50b      	bpl.n	80030f6 <HAL_RTC_AlarmIRQHandler+0x42>
 80030de:	68db      	ldr	r3, [r3, #12]
 80030e0:	059b      	lsls	r3, r3, #22
 80030e2:	d508      	bpl.n	80030f6 <HAL_RTC_AlarmIRQHandler+0x42>
 80030e4:	4620      	mov	r0, r4
 80030e6:	f000 fca9 	bl	8003a3c <HAL_RTCEx_AlarmBEventCallback>
 80030ea:	6822      	ldr	r2, [r4, #0]
 80030ec:	68d3      	ldr	r3, [r2, #12]
 80030ee:	b2db      	uxtb	r3, r3
 80030f0:	f463 7320 	orn	r3, r3, #640	; 0x280
 80030f4:	60d3      	str	r3, [r2, #12]
 80030f6:	4b03      	ldr	r3, [pc, #12]	; (8003104 <HAL_RTC_AlarmIRQHandler+0x50>)
 80030f8:	f44f 3200 	mov.w	r2, #131072	; 0x20000
 80030fc:	615a      	str	r2, [r3, #20]
 80030fe:	2301      	movs	r3, #1
 8003100:	7763      	strb	r3, [r4, #29]
 8003102:	bd10      	pop	{r4, pc}
 8003104:	40013c00 	.word	0x40013c00

08003108 <HAL_RTC_WaitForSynchro>:
 8003108:	6802      	ldr	r2, [r0, #0]
 800310a:	b538      	push	{r3, r4, r5, lr}
 800310c:	68d3      	ldr	r3, [r2, #12]
 800310e:	f023 03a0 	bic.w	r3, r3, #160	; 0xa0
 8003112:	60d3      	str	r3, [r2, #12]
 8003114:	4604      	mov	r4, r0
 8003116:	f7fd fef5 	bl	8000f04 <HAL_GetTick>
 800311a:	4605      	mov	r5, r0
 800311c:	6823      	ldr	r3, [r4, #0]
 800311e:	68db      	ldr	r3, [r3, #12]
 8003120:	069b      	lsls	r3, r3, #26
 8003122:	d501      	bpl.n	8003128 <HAL_RTC_WaitForSynchro+0x20>
 8003124:	2000      	movs	r0, #0
 8003126:	bd38      	pop	{r3, r4, r5, pc}
 8003128:	f7fd feec 	bl	8000f04 <HAL_GetTick>
 800312c:	1b40      	subs	r0, r0, r5
 800312e:	f5b0 7f7a 	cmp.w	r0, #1000	; 0x3e8
 8003132:	d9f3      	bls.n	800311c <HAL_RTC_WaitForSynchro+0x14>
 8003134:	2003      	movs	r0, #3
 8003136:	e7f6      	b.n	8003126 <HAL_RTC_WaitForSynchro+0x1e>

08003138 <RTC_EnterInitMode>:
 8003138:	b538      	push	{r3, r4, r5, lr}
 800313a:	6803      	ldr	r3, [r0, #0]
 800313c:	68da      	ldr	r2, [r3, #12]
 800313e:	0652      	lsls	r2, r2, #25
 8003140:	4604      	mov	r4, r0
 8003142:	d501      	bpl.n	8003148 <RTC_EnterInitMode+0x10>
 8003144:	2000      	movs	r0, #0
 8003146:	bd38      	pop	{r3, r4, r5, pc}
 8003148:	f04f 32ff 	mov.w	r2, #4294967295
 800314c:	60da      	str	r2, [r3, #12]
 800314e:	f7fd fed9 	bl	8000f04 <HAL_GetTick>
 8003152:	4605      	mov	r5, r0
 8003154:	6823      	ldr	r3, [r4, #0]
 8003156:	68db      	ldr	r3, [r3, #12]
 8003158:	065b      	lsls	r3, r3, #25
 800315a:	d4f3      	bmi.n	8003144 <RTC_EnterInitMode+0xc>
 800315c:	f7fd fed2 	bl	8000f04 <HAL_GetTick>
 8003160:	1b40      	subs	r0, r0, r5
 8003162:	f5b0 7f7a 	cmp.w	r0, #1000	; 0x3e8
 8003166:	d9f5      	bls.n	8003154 <RTC_EnterInitMode+0x1c>
 8003168:	2003      	movs	r0, #3
 800316a:	e7ec      	b.n	8003146 <RTC_EnterInitMode+0xe>

0800316c <HAL_RTC_Init>:
 800316c:	b538      	push	{r3, r4, r5, lr}
 800316e:	4604      	mov	r4, r0
 8003170:	2800      	cmp	r0, #0
 8003172:	d04c      	beq.n	800320e <HAL_RTC_Init+0xa2>
 8003174:	6843      	ldr	r3, [r0, #4]
 8003176:	f033 0340 	bics.w	r3, r3, #64	; 0x40
 800317a:	d003      	beq.n	8003184 <HAL_RTC_Init+0x18>
 800317c:	21ff      	movs	r1, #255	; 0xff
 800317e:	483d      	ldr	r0, [pc, #244]	; (8003274 <HAL_RTC_Init+0x108>)
 8003180:	f005 f9cc 	bl	800851c <assert_failed>
 8003184:	68a3      	ldr	r3, [r4, #8]
 8003186:	2b7f      	cmp	r3, #127	; 0x7f
 8003188:	d904      	bls.n	8003194 <HAL_RTC_Init+0x28>
 800318a:	f44f 7180 	mov.w	r1, #256	; 0x100
 800318e:	4839      	ldr	r0, [pc, #228]	; (8003274 <HAL_RTC_Init+0x108>)
 8003190:	f005 f9c4 	bl	800851c <assert_failed>
 8003194:	68e3      	ldr	r3, [r4, #12]
 8003196:	f5b3 4f00 	cmp.w	r3, #32768	; 0x8000
 800319a:	d304      	bcc.n	80031a6 <HAL_RTC_Init+0x3a>
 800319c:	f240 1101 	movw	r1, #257	; 0x101
 80031a0:	4834      	ldr	r0, [pc, #208]	; (8003274 <HAL_RTC_Init+0x108>)
 80031a2:	f005 f9bb 	bl	800851c <assert_failed>
 80031a6:	6923      	ldr	r3, [r4, #16]
 80031a8:	f433 03c0 	bics.w	r3, r3, #6291456	; 0x600000
 80031ac:	d004      	beq.n	80031b8 <HAL_RTC_Init+0x4c>
 80031ae:	f44f 7181 	mov.w	r1, #258	; 0x102
 80031b2:	4830      	ldr	r0, [pc, #192]	; (8003274 <HAL_RTC_Init+0x108>)
 80031b4:	f005 f9b2 	bl	800851c <assert_failed>
 80031b8:	6963      	ldr	r3, [r4, #20]
 80031ba:	f433 1380 	bics.w	r3, r3, #1048576	; 0x100000
 80031be:	d004      	beq.n	80031ca <HAL_RTC_Init+0x5e>
 80031c0:	f240 1103 	movw	r1, #259	; 0x103
 80031c4:	482b      	ldr	r0, [pc, #172]	; (8003274 <HAL_RTC_Init+0x108>)
 80031c6:	f005 f9a9 	bl	800851c <assert_failed>
 80031ca:	69a3      	ldr	r3, [r4, #24]
 80031cc:	f433 2380 	bics.w	r3, r3, #262144	; 0x40000
 80031d0:	d004      	beq.n	80031dc <HAL_RTC_Init+0x70>
 80031d2:	f44f 7182 	mov.w	r1, #260	; 0x104
 80031d6:	4827      	ldr	r0, [pc, #156]	; (8003274 <HAL_RTC_Init+0x108>)
 80031d8:	f005 f9a0 	bl	800851c <assert_failed>
 80031dc:	7f63      	ldrb	r3, [r4, #29]
 80031de:	f003 02ff 	and.w	r2, r3, #255	; 0xff
 80031e2:	b91b      	cbnz	r3, 80031ec <HAL_RTC_Init+0x80>
 80031e4:	7722      	strb	r2, [r4, #28]
 80031e6:	4620      	mov	r0, r4
 80031e8:	f005 f9fc 	bl	80085e4 <HAL_RTC_MspInit>
 80031ec:	2302      	movs	r3, #2
 80031ee:	7763      	strb	r3, [r4, #29]
 80031f0:	6823      	ldr	r3, [r4, #0]
 80031f2:	22ca      	movs	r2, #202	; 0xca
 80031f4:	625a      	str	r2, [r3, #36]	; 0x24
 80031f6:	2253      	movs	r2, #83	; 0x53
 80031f8:	625a      	str	r2, [r3, #36]	; 0x24
 80031fa:	4620      	mov	r0, r4
 80031fc:	f7ff ff9c 	bl	8003138 <RTC_EnterInitMode>
 8003200:	6823      	ldr	r3, [r4, #0]
 8003202:	4605      	mov	r5, r0
 8003204:	b128      	cbz	r0, 8003212 <HAL_RTC_Init+0xa6>
 8003206:	22ff      	movs	r2, #255	; 0xff
 8003208:	625a      	str	r2, [r3, #36]	; 0x24
 800320a:	2304      	movs	r3, #4
 800320c:	7763      	strb	r3, [r4, #29]
 800320e:	2501      	movs	r5, #1
 8003210:	e02e      	b.n	8003270 <HAL_RTC_Init+0x104>
 8003212:	689a      	ldr	r2, [r3, #8]
 8003214:	6920      	ldr	r0, [r4, #16]
 8003216:	f422 02e0 	bic.w	r2, r2, #7340032	; 0x700000
 800321a:	f022 0240 	bic.w	r2, r2, #64	; 0x40
 800321e:	609a      	str	r2, [r3, #8]
 8003220:	6862      	ldr	r2, [r4, #4]
 8003222:	6899      	ldr	r1, [r3, #8]
 8003224:	4302      	orrs	r2, r0
 8003226:	6960      	ldr	r0, [r4, #20]
 8003228:	4302      	orrs	r2, r0
 800322a:	430a      	orrs	r2, r1
 800322c:	609a      	str	r2, [r3, #8]
 800322e:	68e2      	ldr	r2, [r4, #12]
 8003230:	611a      	str	r2, [r3, #16]
 8003232:	691a      	ldr	r2, [r3, #16]
 8003234:	68a1      	ldr	r1, [r4, #8]
 8003236:	ea42 4201 	orr.w	r2, r2, r1, lsl #16
 800323a:	611a      	str	r2, [r3, #16]
 800323c:	68da      	ldr	r2, [r3, #12]
 800323e:	f022 0280 	bic.w	r2, r2, #128	; 0x80
 8003242:	60da      	str	r2, [r3, #12]
 8003244:	689b      	ldr	r3, [r3, #8]
 8003246:	069b      	lsls	r3, r3, #26
 8003248:	d405      	bmi.n	8003256 <HAL_RTC_Init+0xea>
 800324a:	4620      	mov	r0, r4
 800324c:	f7ff ff5c 	bl	8003108 <HAL_RTC_WaitForSynchro>
 8003250:	b108      	cbz	r0, 8003256 <HAL_RTC_Init+0xea>
 8003252:	6823      	ldr	r3, [r4, #0]
 8003254:	e7d7      	b.n	8003206 <HAL_RTC_Init+0x9a>
 8003256:	6823      	ldr	r3, [r4, #0]
 8003258:	69a1      	ldr	r1, [r4, #24]
 800325a:	6c1a      	ldr	r2, [r3, #64]	; 0x40
 800325c:	f422 2280 	bic.w	r2, r2, #262144	; 0x40000
 8003260:	641a      	str	r2, [r3, #64]	; 0x40
 8003262:	6c1a      	ldr	r2, [r3, #64]	; 0x40
 8003264:	430a      	orrs	r2, r1
 8003266:	641a      	str	r2, [r3, #64]	; 0x40
 8003268:	22ff      	movs	r2, #255	; 0xff
 800326a:	625a      	str	r2, [r3, #36]	; 0x24
 800326c:	2301      	movs	r3, #1
 800326e:	7763      	strb	r3, [r4, #29]
 8003270:	4628      	mov	r0, r5
 8003272:	bd38      	pop	{r3, r4, r5, pc}
 8003274:	0800b2da 	.word	0x0800b2da

08003278 <RTC_ByteToBcd2>:
 8003278:	2300      	movs	r3, #0
 800327a:	2809      	cmp	r0, #9
 800327c:	d803      	bhi.n	8003286 <RTC_ByteToBcd2+0xe>
 800327e:	ea40 1003 	orr.w	r0, r0, r3, lsl #4
 8003282:	b2c0      	uxtb	r0, r0
 8003284:	4770      	bx	lr
 8003286:	380a      	subs	r0, #10
 8003288:	3301      	adds	r3, #1
 800328a:	b2c0      	uxtb	r0, r0
 800328c:	e7f5      	b.n	800327a <RTC_ByteToBcd2+0x2>

0800328e <RTC_Bcd2ToByte>:
 800328e:	0903      	lsrs	r3, r0, #4
 8003290:	eb03 0383 	add.w	r3, r3, r3, lsl #2
 8003294:	f000 000f 	and.w	r0, r0, #15
 8003298:	eb00 0043 	add.w	r0, r0, r3, lsl #1
 800329c:	b2c0      	uxtb	r0, r0
 800329e:	4770      	bx	lr

080032a0 <HAL_RTC_SetTime>:
 80032a0:	2a01      	cmp	r2, #1
 80032a2:	b5f8      	push	{r3, r4, r5, r6, r7, lr}
 80032a4:	4606      	mov	r6, r0
 80032a6:	460c      	mov	r4, r1
 80032a8:	4615      	mov	r5, r2
 80032aa:	d904      	bls.n	80032b6 <HAL_RTC_SetTime+0x16>
 80032ac:	f240 21da 	movw	r1, #730	; 0x2da
 80032b0:	486d      	ldr	r0, [pc, #436]	; (8003468 <HAL_RTC_SetTime+0x1c8>)
 80032b2:	f005 f933 	bl	800851c <assert_failed>
 80032b6:	68e3      	ldr	r3, [r4, #12]
 80032b8:	f5b3 3f00 	cmp.w	r3, #131072	; 0x20000
 80032bc:	d007      	beq.n	80032ce <HAL_RTC_SetTime+0x2e>
 80032be:	f433 3380 	bics.w	r3, r3, #65536	; 0x10000
 80032c2:	d004      	beq.n	80032ce <HAL_RTC_SetTime+0x2e>
 80032c4:	f240 21db 	movw	r1, #731	; 0x2db
 80032c8:	4867      	ldr	r0, [pc, #412]	; (8003468 <HAL_RTC_SetTime+0x1c8>)
 80032ca:	f005 f927 	bl	800851c <assert_failed>
 80032ce:	6923      	ldr	r3, [r4, #16]
 80032d0:	f433 2380 	bics.w	r3, r3, #262144	; 0x40000
 80032d4:	d004      	beq.n	80032e0 <HAL_RTC_SetTime+0x40>
 80032d6:	f44f 7137 	mov.w	r1, #732	; 0x2dc
 80032da:	4863      	ldr	r0, [pc, #396]	; (8003468 <HAL_RTC_SetTime+0x1c8>)
 80032dc:	f005 f91e 	bl	800851c <assert_failed>
 80032e0:	7f33      	ldrb	r3, [r6, #28]
 80032e2:	2b01      	cmp	r3, #1
 80032e4:	f04f 0702 	mov.w	r7, #2
 80032e8:	d04f      	beq.n	800338a <HAL_RTC_SetTime+0xea>
 80032ea:	2301      	movs	r3, #1
 80032ec:	7733      	strb	r3, [r6, #28]
 80032ee:	7777      	strb	r7, [r6, #29]
 80032f0:	6833      	ldr	r3, [r6, #0]
 80032f2:	7820      	ldrb	r0, [r4, #0]
 80032f4:	2d00      	cmp	r5, #0
 80032f6:	d150      	bne.n	800339a <HAL_RTC_SetTime+0xfa>
 80032f8:	689b      	ldr	r3, [r3, #8]
 80032fa:	065a      	lsls	r2, r3, #25
 80032fc:	d547      	bpl.n	800338e <HAL_RTC_SetTime+0xee>
 80032fe:	3801      	subs	r0, #1
 8003300:	280b      	cmp	r0, #11
 8003302:	d904      	bls.n	800330e <HAL_RTC_SetTime+0x6e>
 8003304:	f240 21e7 	movw	r1, #743	; 0x2e7
 8003308:	4857      	ldr	r0, [pc, #348]	; (8003468 <HAL_RTC_SetTime+0x1c8>)
 800330a:	f005 f907 	bl	800851c <assert_failed>
 800330e:	78e3      	ldrb	r3, [r4, #3]
 8003310:	f013 0fbf 	tst.w	r3, #191	; 0xbf
 8003314:	d004      	beq.n	8003320 <HAL_RTC_SetTime+0x80>
 8003316:	f44f 713a 	mov.w	r1, #744	; 0x2e8
 800331a:	4853      	ldr	r0, [pc, #332]	; (8003468 <HAL_RTC_SetTime+0x1c8>)
 800331c:	f005 f8fe 	bl	800851c <assert_failed>
 8003320:	7863      	ldrb	r3, [r4, #1]
 8003322:	2b3b      	cmp	r3, #59	; 0x3b
 8003324:	d904      	bls.n	8003330 <HAL_RTC_SetTime+0x90>
 8003326:	f240 21ef 	movw	r1, #751	; 0x2ef
 800332a:	484f      	ldr	r0, [pc, #316]	; (8003468 <HAL_RTC_SetTime+0x1c8>)
 800332c:	f005 f8f6 	bl	800851c <assert_failed>
 8003330:	78a3      	ldrb	r3, [r4, #2]
 8003332:	2b3b      	cmp	r3, #59	; 0x3b
 8003334:	d904      	bls.n	8003340 <HAL_RTC_SetTime+0xa0>
 8003336:	f44f 713c 	mov.w	r1, #752	; 0x2f0
 800333a:	484b      	ldr	r0, [pc, #300]	; (8003468 <HAL_RTC_SetTime+0x1c8>)
 800333c:	f005 f8ee 	bl	800851c <assert_failed>
 8003340:	7820      	ldrb	r0, [r4, #0]
 8003342:	f7ff ff99 	bl	8003278 <RTC_ByteToBcd2>
 8003346:	4602      	mov	r2, r0
 8003348:	7860      	ldrb	r0, [r4, #1]
 800334a:	f7ff ff95 	bl	8003278 <RTC_ByteToBcd2>
 800334e:	4605      	mov	r5, r0
 8003350:	78a0      	ldrb	r0, [r4, #2]
 8003352:	f7ff ff91 	bl	8003278 <RTC_ByteToBcd2>
 8003356:	78e3      	ldrb	r3, [r4, #3]
 8003358:	ea40 4003 	orr.w	r0, r0, r3, lsl #16
 800335c:	ea40 4002 	orr.w	r0, r0, r2, lsl #16
 8003360:	ea40 2505 	orr.w	r5, r0, r5, lsl #8
 8003364:	6833      	ldr	r3, [r6, #0]
 8003366:	22ca      	movs	r2, #202	; 0xca
 8003368:	625a      	str	r2, [r3, #36]	; 0x24
 800336a:	2253      	movs	r2, #83	; 0x53
 800336c:	625a      	str	r2, [r3, #36]	; 0x24
 800336e:	4630      	mov	r0, r6
 8003370:	f7ff fee2 	bl	8003138 <RTC_EnterInitMode>
 8003374:	6833      	ldr	r3, [r6, #0]
 8003376:	4607      	mov	r7, r0
 8003378:	2800      	cmp	r0, #0
 800337a:	d04b      	beq.n	8003414 <HAL_RTC_SetTime+0x174>
 800337c:	22ff      	movs	r2, #255	; 0xff
 800337e:	625a      	str	r2, [r3, #36]	; 0x24
 8003380:	2304      	movs	r3, #4
 8003382:	7773      	strb	r3, [r6, #29]
 8003384:	2300      	movs	r3, #0
 8003386:	7733      	strb	r3, [r6, #28]
 8003388:	2701      	movs	r7, #1
 800338a:	4638      	mov	r0, r7
 800338c:	bdf8      	pop	{r3, r4, r5, r6, r7, pc}
 800338e:	2817      	cmp	r0, #23
 8003390:	70e5      	strb	r5, [r4, #3]
 8003392:	d9c5      	bls.n	8003320 <HAL_RTC_SetTime+0x80>
 8003394:	f240 21ed 	movw	r1, #749	; 0x2ed
 8003398:	e7bf      	b.n	800331a <HAL_RTC_SetTime+0x7a>
 800339a:	689a      	ldr	r2, [r3, #8]
 800339c:	f7ff ff77 	bl	800328e <RTC_Bcd2ToByte>
 80033a0:	f012 0240 	ands.w	r2, r2, #64	; 0x40
 80033a4:	d030      	beq.n	8003408 <HAL_RTC_SetTime+0x168>
 80033a6:	3801      	subs	r0, #1
 80033a8:	b2c0      	uxtb	r0, r0
 80033aa:	280b      	cmp	r0, #11
 80033ac:	d904      	bls.n	80033b8 <HAL_RTC_SetTime+0x118>
 80033ae:	f240 21fb 	movw	r1, #763	; 0x2fb
 80033b2:	482d      	ldr	r0, [pc, #180]	; (8003468 <HAL_RTC_SetTime+0x1c8>)
 80033b4:	f005 f8b2 	bl	800851c <assert_failed>
 80033b8:	78e3      	ldrb	r3, [r4, #3]
 80033ba:	f013 0fbf 	tst.w	r3, #191	; 0xbf
 80033be:	d004      	beq.n	80033ca <HAL_RTC_SetTime+0x12a>
 80033c0:	f44f 713f 	mov.w	r1, #764	; 0x2fc
 80033c4:	4828      	ldr	r0, [pc, #160]	; (8003468 <HAL_RTC_SetTime+0x1c8>)
 80033c6:	f005 f8a9 	bl	800851c <assert_failed>
 80033ca:	7860      	ldrb	r0, [r4, #1]
 80033cc:	f7ff ff5f 	bl	800328e <RTC_Bcd2ToByte>
 80033d0:	283b      	cmp	r0, #59	; 0x3b
 80033d2:	d904      	bls.n	80033de <HAL_RTC_SetTime+0x13e>
 80033d4:	f240 3103 	movw	r1, #771	; 0x303
 80033d8:	4823      	ldr	r0, [pc, #140]	; (8003468 <HAL_RTC_SetTime+0x1c8>)
 80033da:	f005 f89f 	bl	800851c <assert_failed>
 80033de:	78a0      	ldrb	r0, [r4, #2]
 80033e0:	f7ff ff55 	bl	800328e <RTC_Bcd2ToByte>
 80033e4:	283b      	cmp	r0, #59	; 0x3b
 80033e6:	d904      	bls.n	80033f2 <HAL_RTC_SetTime+0x152>
 80033e8:	f44f 7141 	mov.w	r1, #772	; 0x304
 80033ec:	481e      	ldr	r0, [pc, #120]	; (8003468 <HAL_RTC_SetTime+0x1c8>)
 80033ee:	f005 f895 	bl	800851c <assert_failed>
 80033f2:	7860      	ldrb	r0, [r4, #1]
 80033f4:	7825      	ldrb	r5, [r4, #0]
 80033f6:	0200      	lsls	r0, r0, #8
 80033f8:	ea40 4005 	orr.w	r0, r0, r5, lsl #16
 80033fc:	78a5      	ldrb	r5, [r4, #2]
 80033fe:	4328      	orrs	r0, r5
 8003400:	78e5      	ldrb	r5, [r4, #3]
 8003402:	ea40 4505 	orr.w	r5, r0, r5, lsl #16
 8003406:	e7ad      	b.n	8003364 <HAL_RTC_SetTime+0xc4>
 8003408:	2817      	cmp	r0, #23
 800340a:	70e2      	strb	r2, [r4, #3]
 800340c:	d9dd      	bls.n	80033ca <HAL_RTC_SetTime+0x12a>
 800340e:	f240 3101 	movw	r1, #769	; 0x301
 8003412:	e7d7      	b.n	80033c4 <HAL_RTC_SetTime+0x124>
 8003414:	f005 357f 	and.w	r5, r5, #2139062143	; 0x7f7f7f7f
 8003418:	f025 45fe 	bic.w	r5, r5, #2130706432	; 0x7f000000
 800341c:	601d      	str	r5, [r3, #0]
 800341e:	689a      	ldr	r2, [r3, #8]
 8003420:	68e1      	ldr	r1, [r4, #12]
 8003422:	f422 2280 	bic.w	r2, r2, #262144	; 0x40000
 8003426:	609a      	str	r2, [r3, #8]
 8003428:	689a      	ldr	r2, [r3, #8]
 800342a:	430a      	orrs	r2, r1
 800342c:	6921      	ldr	r1, [r4, #16]
 800342e:	430a      	orrs	r2, r1
 8003430:	609a      	str	r2, [r3, #8]
 8003432:	68da      	ldr	r2, [r3, #12]
 8003434:	f022 0280 	bic.w	r2, r2, #128	; 0x80
 8003438:	60da      	str	r2, [r3, #12]
 800343a:	689b      	ldr	r3, [r3, #8]
 800343c:	069b      	lsls	r3, r3, #26
 800343e:	d40a      	bmi.n	8003456 <HAL_RTC_SetTime+0x1b6>
 8003440:	4630      	mov	r0, r6
 8003442:	f7ff fe61 	bl	8003108 <HAL_RTC_WaitForSynchro>
 8003446:	b130      	cbz	r0, 8003456 <HAL_RTC_SetTime+0x1b6>
 8003448:	6833      	ldr	r3, [r6, #0]
 800344a:	22ff      	movs	r2, #255	; 0xff
 800344c:	625a      	str	r2, [r3, #36]	; 0x24
 800344e:	2304      	movs	r3, #4
 8003450:	7773      	strb	r3, [r6, #29]
 8003452:	7737      	strb	r7, [r6, #28]
 8003454:	e798      	b.n	8003388 <HAL_RTC_SetTime+0xe8>
 8003456:	6833      	ldr	r3, [r6, #0]
 8003458:	22ff      	movs	r2, #255	; 0xff
 800345a:	625a      	str	r2, [r3, #36]	; 0x24
 800345c:	2301      	movs	r3, #1
 800345e:	7773      	strb	r3, [r6, #29]
 8003460:	2300      	movs	r3, #0
 8003462:	7733      	strb	r3, [r6, #28]
 8003464:	e791      	b.n	800338a <HAL_RTC_SetTime+0xea>
 8003466:	bf00      	nop
 8003468:	0800b2da 	.word	0x0800b2da

0800346c <HAL_RTC_SetDate>:
 800346c:	2a01      	cmp	r2, #1
 800346e:	b570      	push	{r4, r5, r6, lr}
 8003470:	4605      	mov	r5, r0
 8003472:	460e      	mov	r6, r1
 8003474:	4614      	mov	r4, r2
 8003476:	d904      	bls.n	8003482 <HAL_RTC_SetDate+0x16>
 8003478:	f240 318a 	movw	r1, #906	; 0x38a
 800347c:	4856      	ldr	r0, [pc, #344]	; (80035d8 <HAL_RTC_SetDate+0x16c>)
 800347e:	f005 f84d 	bl	800851c <assert_failed>
 8003482:	7f2b      	ldrb	r3, [r5, #28]
 8003484:	2b01      	cmp	r3, #1
 8003486:	f04f 0302 	mov.w	r3, #2
 800348a:	f000 80a2 	beq.w	80035d2 <HAL_RTC_SetDate+0x166>
 800348e:	2201      	movs	r2, #1
 8003490:	772a      	strb	r2, [r5, #28]
 8003492:	776b      	strb	r3, [r5, #29]
 8003494:	b934      	cbnz	r4, 80034a4 <HAL_RTC_SetDate+0x38>
 8003496:	7873      	ldrb	r3, [r6, #1]
 8003498:	06da      	lsls	r2, r3, #27
 800349a:	bf42      	ittt	mi
 800349c:	f023 0310 	bicmi.w	r3, r3, #16
 80034a0:	330a      	addmi	r3, #10
 80034a2:	7073      	strbmi	r3, [r6, #1]
 80034a4:	7833      	ldrb	r3, [r6, #0]
 80034a6:	3b01      	subs	r3, #1
 80034a8:	2b06      	cmp	r3, #6
 80034aa:	d904      	bls.n	80034b6 <HAL_RTC_SetDate+0x4a>
 80034ac:	f240 3196 	movw	r1, #918	; 0x396
 80034b0:	4849      	ldr	r0, [pc, #292]	; (80035d8 <HAL_RTC_SetDate+0x16c>)
 80034b2:	f005 f833 	bl	800851c <assert_failed>
 80034b6:	78f0      	ldrb	r0, [r6, #3]
 80034b8:	2c00      	cmp	r4, #0
 80034ba:	d13f      	bne.n	800353c <HAL_RTC_SetDate+0xd0>
 80034bc:	2863      	cmp	r0, #99	; 0x63
 80034be:	d904      	bls.n	80034ca <HAL_RTC_SetDate+0x5e>
 80034c0:	f240 319a 	movw	r1, #922	; 0x39a
 80034c4:	4844      	ldr	r0, [pc, #272]	; (80035d8 <HAL_RTC_SetDate+0x16c>)
 80034c6:	f005 f829 	bl	800851c <assert_failed>
 80034ca:	7873      	ldrb	r3, [r6, #1]
 80034cc:	3b01      	subs	r3, #1
 80034ce:	2b0b      	cmp	r3, #11
 80034d0:	d904      	bls.n	80034dc <HAL_RTC_SetDate+0x70>
 80034d2:	f240 319b 	movw	r1, #923	; 0x39b
 80034d6:	4840      	ldr	r0, [pc, #256]	; (80035d8 <HAL_RTC_SetDate+0x16c>)
 80034d8:	f005 f820 	bl	800851c <assert_failed>
 80034dc:	78b3      	ldrb	r3, [r6, #2]
 80034de:	3b01      	subs	r3, #1
 80034e0:	2b1e      	cmp	r3, #30
 80034e2:	d904      	bls.n	80034ee <HAL_RTC_SetDate+0x82>
 80034e4:	f44f 7167 	mov.w	r1, #924	; 0x39c
 80034e8:	483b      	ldr	r0, [pc, #236]	; (80035d8 <HAL_RTC_SetDate+0x16c>)
 80034ea:	f005 f817 	bl	800851c <assert_failed>
 80034ee:	78f0      	ldrb	r0, [r6, #3]
 80034f0:	f7ff fec2 	bl	8003278 <RTC_ByteToBcd2>
 80034f4:	4602      	mov	r2, r0
 80034f6:	7870      	ldrb	r0, [r6, #1]
 80034f8:	f7ff febe 	bl	8003278 <RTC_ByteToBcd2>
 80034fc:	4604      	mov	r4, r0
 80034fe:	78b0      	ldrb	r0, [r6, #2]
 8003500:	f7ff feba 	bl	8003278 <RTC_ByteToBcd2>
 8003504:	7833      	ldrb	r3, [r6, #0]
 8003506:	ea40 3043 	orr.w	r0, r0, r3, lsl #13
 800350a:	ea40 4002 	orr.w	r0, r0, r2, lsl #16
 800350e:	ea40 2404 	orr.w	r4, r0, r4, lsl #8
 8003512:	682b      	ldr	r3, [r5, #0]
 8003514:	22ca      	movs	r2, #202	; 0xca
 8003516:	625a      	str	r2, [r3, #36]	; 0x24
 8003518:	2253      	movs	r2, #83	; 0x53
 800351a:	625a      	str	r2, [r3, #36]	; 0x24
 800351c:	4628      	mov	r0, r5
 800351e:	f7ff fe0b 	bl	8003138 <RTC_EnterInitMode>
 8003522:	682b      	ldr	r3, [r5, #0]
 8003524:	4606      	mov	r6, r0
 8003526:	2800      	cmp	r0, #0
 8003528:	d034      	beq.n	8003594 <HAL_RTC_SetDate+0x128>
 800352a:	22ff      	movs	r2, #255	; 0xff
 800352c:	625a      	str	r2, [r3, #36]	; 0x24
 800352e:	2304      	movs	r3, #4
 8003530:	776b      	strb	r3, [r5, #29]
 8003532:	2300      	movs	r3, #0
 8003534:	772b      	strb	r3, [r5, #28]
 8003536:	2601      	movs	r6, #1
 8003538:	4630      	mov	r0, r6
 800353a:	bd70      	pop	{r4, r5, r6, pc}
 800353c:	f7ff fea7 	bl	800328e <RTC_Bcd2ToByte>
 8003540:	2863      	cmp	r0, #99	; 0x63
 8003542:	d904      	bls.n	800354e <HAL_RTC_SetDate+0xe2>
 8003544:	f240 31a5 	movw	r1, #933	; 0x3a5
 8003548:	4823      	ldr	r0, [pc, #140]	; (80035d8 <HAL_RTC_SetDate+0x16c>)
 800354a:	f004 ffe7 	bl	800851c <assert_failed>
 800354e:	7870      	ldrb	r0, [r6, #1]
 8003550:	f7ff fe9d 	bl	800328e <RTC_Bcd2ToByte>
 8003554:	3801      	subs	r0, #1
 8003556:	b2c0      	uxtb	r0, r0
 8003558:	280b      	cmp	r0, #11
 800355a:	d904      	bls.n	8003566 <HAL_RTC_SetDate+0xfa>
 800355c:	f240 31a6 	movw	r1, #934	; 0x3a6
 8003560:	481d      	ldr	r0, [pc, #116]	; (80035d8 <HAL_RTC_SetDate+0x16c>)
 8003562:	f004 ffdb 	bl	800851c <assert_failed>
 8003566:	78b0      	ldrb	r0, [r6, #2]
 8003568:	f7ff fe91 	bl	800328e <RTC_Bcd2ToByte>
 800356c:	3801      	subs	r0, #1
 800356e:	b2c0      	uxtb	r0, r0
 8003570:	281e      	cmp	r0, #30
 8003572:	d904      	bls.n	800357e <HAL_RTC_SetDate+0x112>
 8003574:	f240 31a7 	movw	r1, #935	; 0x3a7
 8003578:	4817      	ldr	r0, [pc, #92]	; (80035d8 <HAL_RTC_SetDate+0x16c>)
 800357a:	f004 ffcf 	bl	800851c <assert_failed>
 800357e:	7870      	ldrb	r0, [r6, #1]
 8003580:	78f4      	ldrb	r4, [r6, #3]
 8003582:	0200      	lsls	r0, r0, #8
 8003584:	ea40 4004 	orr.w	r0, r0, r4, lsl #16
 8003588:	78b4      	ldrb	r4, [r6, #2]
 800358a:	4320      	orrs	r0, r4
 800358c:	7834      	ldrb	r4, [r6, #0]
 800358e:	ea40 3444 	orr.w	r4, r0, r4, lsl #13
 8003592:	e7be      	b.n	8003512 <HAL_RTC_SetDate+0xa6>
 8003594:	f024 447f 	bic.w	r4, r4, #4278190080	; 0xff000000
 8003598:	f024 04c0 	bic.w	r4, r4, #192	; 0xc0
 800359c:	605c      	str	r4, [r3, #4]
 800359e:	68da      	ldr	r2, [r3, #12]
 80035a0:	f022 0280 	bic.w	r2, r2, #128	; 0x80
 80035a4:	60da      	str	r2, [r3, #12]
 80035a6:	689b      	ldr	r3, [r3, #8]
 80035a8:	069b      	lsls	r3, r3, #26
 80035aa:	d40a      	bmi.n	80035c2 <HAL_RTC_SetDate+0x156>
 80035ac:	4628      	mov	r0, r5
 80035ae:	f7ff fdab 	bl	8003108 <HAL_RTC_WaitForSynchro>
 80035b2:	b130      	cbz	r0, 80035c2 <HAL_RTC_SetDate+0x156>
 80035b4:	682b      	ldr	r3, [r5, #0]
 80035b6:	22ff      	movs	r2, #255	; 0xff
 80035b8:	625a      	str	r2, [r3, #36]	; 0x24
 80035ba:	2304      	movs	r3, #4
 80035bc:	776b      	strb	r3, [r5, #29]
 80035be:	772e      	strb	r6, [r5, #28]
 80035c0:	e7b9      	b.n	8003536 <HAL_RTC_SetDate+0xca>
 80035c2:	682b      	ldr	r3, [r5, #0]
 80035c4:	22ff      	movs	r2, #255	; 0xff
 80035c6:	625a      	str	r2, [r3, #36]	; 0x24
 80035c8:	2301      	movs	r3, #1
 80035ca:	776b      	strb	r3, [r5, #29]
 80035cc:	2300      	movs	r3, #0
 80035ce:	772b      	strb	r3, [r5, #28]
 80035d0:	e7b2      	b.n	8003538 <HAL_RTC_SetDate+0xcc>
 80035d2:	461e      	mov	r6, r3
 80035d4:	e7b0      	b.n	8003538 <HAL_RTC_SetDate+0xcc>
 80035d6:	bf00      	nop
 80035d8:	0800b2da 	.word	0x0800b2da

080035dc <HAL_RTC_SetAlarm_IT>:
 80035dc:	b5f7      	push	{r0, r1, r2, r4, r5, r6, r7, lr}
 80035de:	4bb3      	ldr	r3, [pc, #716]	; (80038ac <HAL_RTC_SetAlarm_IT+0x2d0>)
 80035e0:	4616      	mov	r6, r2
 80035e2:	681b      	ldr	r3, [r3, #0]
 80035e4:	f44f 42fa 	mov.w	r2, #32000	; 0x7d00
 80035e8:	fbb3 f2f2 	udiv	r2, r3, r2
 80035ec:	f44f 737a 	mov.w	r3, #1000	; 0x3e8
 80035f0:	4353      	muls	r3, r2
 80035f2:	2e01      	cmp	r6, #1
 80035f4:	4605      	mov	r5, r0
 80035f6:	460c      	mov	r4, r1
 80035f8:	9301      	str	r3, [sp, #4]
 80035fa:	d904      	bls.n	8003606 <HAL_RTC_SetAlarm_IT+0x2a>
 80035fc:	f240 41e7 	movw	r1, #1255	; 0x4e7
 8003600:	48ab      	ldr	r0, [pc, #684]	; (80038b0 <HAL_RTC_SetAlarm_IT+0x2d4>)
 8003602:	f004 ff8b 	bl	800851c <assert_failed>
 8003606:	6a63      	ldr	r3, [r4, #36]	; 0x24
 8003608:	f5b3 7f80 	cmp.w	r3, #256	; 0x100
 800360c:	d007      	beq.n	800361e <HAL_RTC_SetAlarm_IT+0x42>
 800360e:	f5b3 7f00 	cmp.w	r3, #512	; 0x200
 8003612:	d004      	beq.n	800361e <HAL_RTC_SetAlarm_IT+0x42>
 8003614:	f44f 619d 	mov.w	r1, #1256	; 0x4e8
 8003618:	48a5      	ldr	r0, [pc, #660]	; (80038b0 <HAL_RTC_SetAlarm_IT+0x2d4>)
 800361a:	f004 ff7f 	bl	800851c <assert_failed>
 800361e:	6963      	ldr	r3, [r4, #20]
 8003620:	f013 3f7f 	tst.w	r3, #2139062143	; 0x7f7f7f7f
 8003624:	d004      	beq.n	8003630 <HAL_RTC_SetAlarm_IT+0x54>
 8003626:	f240 41e9 	movw	r1, #1257	; 0x4e9
 800362a:	48a1      	ldr	r0, [pc, #644]	; (80038b0 <HAL_RTC_SetAlarm_IT+0x2d4>)
 800362c:	f004 ff76 	bl	800851c <assert_failed>
 8003630:	69e3      	ldr	r3, [r4, #28]
 8003632:	f033 4380 	bics.w	r3, r3, #1073741824	; 0x40000000
 8003636:	d004      	beq.n	8003642 <HAL_RTC_SetAlarm_IT+0x66>
 8003638:	f240 41ea 	movw	r1, #1258	; 0x4ea
 800363c:	489c      	ldr	r0, [pc, #624]	; (80038b0 <HAL_RTC_SetAlarm_IT+0x2d4>)
 800363e:	f004 ff6d 	bl	800851c <assert_failed>
 8003642:	6863      	ldr	r3, [r4, #4]
 8003644:	f5b3 4f00 	cmp.w	r3, #32768	; 0x8000
 8003648:	d304      	bcc.n	8003654 <HAL_RTC_SetAlarm_IT+0x78>
 800364a:	f240 41eb 	movw	r1, #1259	; 0x4eb
 800364e:	4898      	ldr	r0, [pc, #608]	; (80038b0 <HAL_RTC_SetAlarm_IT+0x2d4>)
 8003650:	f004 ff64 	bl	800851c <assert_failed>
 8003654:	69a3      	ldr	r3, [r4, #24]
 8003656:	f033 7340 	bics.w	r3, r3, #50331648	; 0x3000000
 800365a:	d00d      	beq.n	8003678 <HAL_RTC_SetAlarm_IT+0x9c>
 800365c:	f1b3 6f80 	cmp.w	r3, #67108864	; 0x4000000
 8003660:	d00a      	beq.n	8003678 <HAL_RTC_SetAlarm_IT+0x9c>
 8003662:	f1b3 6f00 	cmp.w	r3, #134217728	; 0x8000000
 8003666:	d007      	beq.n	8003678 <HAL_RTC_SetAlarm_IT+0x9c>
 8003668:	f1b3 6f40 	cmp.w	r3, #201326592	; 0xc000000
 800366c:	d004      	beq.n	8003678 <HAL_RTC_SetAlarm_IT+0x9c>
 800366e:	f240 41ec 	movw	r1, #1260	; 0x4ec
 8003672:	488f      	ldr	r0, [pc, #572]	; (80038b0 <HAL_RTC_SetAlarm_IT+0x2d4>)
 8003674:	f004 ff52 	bl	800851c <assert_failed>
 8003678:	7f2b      	ldrb	r3, [r5, #28]
 800367a:	2b01      	cmp	r3, #1
 800367c:	f04f 0002 	mov.w	r0, #2
 8003680:	d075      	beq.n	800376e <HAL_RTC_SetAlarm_IT+0x192>
 8003682:	2301      	movs	r3, #1
 8003684:	772b      	strb	r3, [r5, #28]
 8003686:	7768      	strb	r0, [r5, #29]
 8003688:	682b      	ldr	r3, [r5, #0]
 800368a:	7820      	ldrb	r0, [r4, #0]
 800368c:	2e00      	cmp	r6, #0
 800368e:	d17b      	bne.n	8003788 <HAL_RTC_SetAlarm_IT+0x1ac>
 8003690:	689b      	ldr	r3, [r3, #8]
 8003692:	065f      	lsls	r7, r3, #25
 8003694:	d56d      	bpl.n	8003772 <HAL_RTC_SetAlarm_IT+0x196>
 8003696:	3801      	subs	r0, #1
 8003698:	280b      	cmp	r0, #11
 800369a:	d904      	bls.n	80036a6 <HAL_RTC_SetAlarm_IT+0xca>
 800369c:	f240 41f7 	movw	r1, #1271	; 0x4f7
 80036a0:	4883      	ldr	r0, [pc, #524]	; (80038b0 <HAL_RTC_SetAlarm_IT+0x2d4>)
 80036a2:	f004 ff3b 	bl	800851c <assert_failed>
 80036a6:	78e3      	ldrb	r3, [r4, #3]
 80036a8:	f013 0fbf 	tst.w	r3, #191	; 0xbf
 80036ac:	d004      	beq.n	80036b8 <HAL_RTC_SetAlarm_IT+0xdc>
 80036ae:	f44f 619f 	mov.w	r1, #1272	; 0x4f8
 80036b2:	487f      	ldr	r0, [pc, #508]	; (80038b0 <HAL_RTC_SetAlarm_IT+0x2d4>)
 80036b4:	f004 ff32 	bl	800851c <assert_failed>
 80036b8:	7863      	ldrb	r3, [r4, #1]
 80036ba:	2b3b      	cmp	r3, #59	; 0x3b
 80036bc:	d904      	bls.n	80036c8 <HAL_RTC_SetAlarm_IT+0xec>
 80036be:	f240 41ff 	movw	r1, #1279	; 0x4ff
 80036c2:	487b      	ldr	r0, [pc, #492]	; (80038b0 <HAL_RTC_SetAlarm_IT+0x2d4>)
 80036c4:	f004 ff2a 	bl	800851c <assert_failed>
 80036c8:	78a3      	ldrb	r3, [r4, #2]
 80036ca:	2b3b      	cmp	r3, #59	; 0x3b
 80036cc:	d904      	bls.n	80036d8 <HAL_RTC_SetAlarm_IT+0xfc>
 80036ce:	f44f 61a0 	mov.w	r1, #1280	; 0x500
 80036d2:	4877      	ldr	r0, [pc, #476]	; (80038b0 <HAL_RTC_SetAlarm_IT+0x2d4>)
 80036d4:	f004 ff22 	bl	800851c <assert_failed>
 80036d8:	f894 3020 	ldrb.w	r3, [r4, #32]
 80036dc:	69e2      	ldr	r2, [r4, #28]
 80036de:	3b01      	subs	r3, #1
 80036e0:	b2db      	uxtb	r3, r3
 80036e2:	2a00      	cmp	r2, #0
 80036e4:	d14b      	bne.n	800377e <HAL_RTC_SetAlarm_IT+0x1a2>
 80036e6:	2b1e      	cmp	r3, #30
 80036e8:	d904      	bls.n	80036f4 <HAL_RTC_SetAlarm_IT+0x118>
 80036ea:	f240 5104 	movw	r1, #1284	; 0x504
 80036ee:	4870      	ldr	r0, [pc, #448]	; (80038b0 <HAL_RTC_SetAlarm_IT+0x2d4>)
 80036f0:	f004 ff14 	bl	800851c <assert_failed>
 80036f4:	7820      	ldrb	r0, [r4, #0]
 80036f6:	f7ff fdbf 	bl	8003278 <RTC_ByteToBcd2>
 80036fa:	4601      	mov	r1, r0
 80036fc:	7860      	ldrb	r0, [r4, #1]
 80036fe:	f7ff fdbb 	bl	8003278 <RTC_ByteToBcd2>
 8003702:	4602      	mov	r2, r0
 8003704:	78a0      	ldrb	r0, [r4, #2]
 8003706:	f7ff fdb7 	bl	8003278 <RTC_ByteToBcd2>
 800370a:	4606      	mov	r6, r0
 800370c:	f894 0020 	ldrb.w	r0, [r4, #32]
 8003710:	f7ff fdb2 	bl	8003278 <RTC_ByteToBcd2>
 8003714:	6967      	ldr	r7, [r4, #20]
 8003716:	69e3      	ldr	r3, [r4, #28]
 8003718:	433b      	orrs	r3, r7
 800371a:	78e7      	ldrb	r7, [r4, #3]
 800371c:	ea43 4307 	orr.w	r3, r3, r7, lsl #16
 8003720:	4333      	orrs	r3, r6
 8003722:	ea43 4301 	orr.w	r3, r3, r1, lsl #16
 8003726:	ea43 2302 	orr.w	r3, r3, r2, lsl #8
 800372a:	ea43 6000 	orr.w	r0, r3, r0, lsl #24
 800372e:	69a3      	ldr	r3, [r4, #24]
 8003730:	6861      	ldr	r1, [r4, #4]
 8003732:	4319      	orrs	r1, r3
 8003734:	682b      	ldr	r3, [r5, #0]
 8003736:	22ca      	movs	r2, #202	; 0xca
 8003738:	625a      	str	r2, [r3, #36]	; 0x24
 800373a:	2253      	movs	r2, #83	; 0x53
 800373c:	625a      	str	r2, [r3, #36]	; 0x24
 800373e:	6a62      	ldr	r2, [r4, #36]	; 0x24
 8003740:	f5b2 7f80 	cmp.w	r2, #256	; 0x100
 8003744:	689a      	ldr	r2, [r3, #8]
 8003746:	f040 8095 	bne.w	8003874 <HAL_RTC_SetAlarm_IT+0x298>
 800374a:	f422 7280 	bic.w	r2, r2, #256	; 0x100
 800374e:	609a      	str	r2, [r3, #8]
 8003750:	68da      	ldr	r2, [r3, #12]
 8003752:	b2d2      	uxtb	r2, r2
 8003754:	f462 72c0 	orn	r2, r2, #384	; 0x180
 8003758:	60da      	str	r2, [r3, #12]
 800375a:	9a01      	ldr	r2, [sp, #4]
 800375c:	1e54      	subs	r4, r2, #1
 800375e:	9401      	str	r4, [sp, #4]
 8003760:	2a00      	cmp	r2, #0
 8003762:	d16a      	bne.n	800383a <HAL_RTC_SetAlarm_IT+0x25e>
 8003764:	21ff      	movs	r1, #255	; 0xff
 8003766:	2003      	movs	r0, #3
 8003768:	6259      	str	r1, [r3, #36]	; 0x24
 800376a:	7768      	strb	r0, [r5, #29]
 800376c:	772a      	strb	r2, [r5, #28]
 800376e:	b003      	add	sp, #12
 8003770:	bdf0      	pop	{r4, r5, r6, r7, pc}
 8003772:	2817      	cmp	r0, #23
 8003774:	70e6      	strb	r6, [r4, #3]
 8003776:	d99f      	bls.n	80036b8 <HAL_RTC_SetAlarm_IT+0xdc>
 8003778:	f240 41fd 	movw	r1, #1277	; 0x4fd
 800377c:	e799      	b.n	80036b2 <HAL_RTC_SetAlarm_IT+0xd6>
 800377e:	2b06      	cmp	r3, #6
 8003780:	d9b8      	bls.n	80036f4 <HAL_RTC_SetAlarm_IT+0x118>
 8003782:	f44f 61a1 	mov.w	r1, #1288	; 0x508
 8003786:	e7b2      	b.n	80036ee <HAL_RTC_SetAlarm_IT+0x112>
 8003788:	689a      	ldr	r2, [r3, #8]
 800378a:	f7ff fd80 	bl	800328e <RTC_Bcd2ToByte>
 800378e:	f012 0240 	ands.w	r2, r2, #64	; 0x40
 8003792:	d047      	beq.n	8003824 <HAL_RTC_SetAlarm_IT+0x248>
 8003794:	3801      	subs	r0, #1
 8003796:	b2c0      	uxtb	r0, r0
 8003798:	280b      	cmp	r0, #11
 800379a:	d904      	bls.n	80037a6 <HAL_RTC_SetAlarm_IT+0x1ca>
 800379c:	f240 5116 	movw	r1, #1302	; 0x516
 80037a0:	4843      	ldr	r0, [pc, #268]	; (80038b0 <HAL_RTC_SetAlarm_IT+0x2d4>)
 80037a2:	f004 febb 	bl	800851c <assert_failed>
 80037a6:	78e3      	ldrb	r3, [r4, #3]
 80037a8:	f013 0fbf 	tst.w	r3, #191	; 0xbf
 80037ac:	d004      	beq.n	80037b8 <HAL_RTC_SetAlarm_IT+0x1dc>
 80037ae:	f240 5117 	movw	r1, #1303	; 0x517
 80037b2:	483f      	ldr	r0, [pc, #252]	; (80038b0 <HAL_RTC_SetAlarm_IT+0x2d4>)
 80037b4:	f004 feb2 	bl	800851c <assert_failed>
 80037b8:	7860      	ldrb	r0, [r4, #1]
 80037ba:	f7ff fd68 	bl	800328e <RTC_Bcd2ToByte>
 80037be:	283b      	cmp	r0, #59	; 0x3b
 80037c0:	d904      	bls.n	80037cc <HAL_RTC_SetAlarm_IT+0x1f0>
 80037c2:	f240 511f 	movw	r1, #1311	; 0x51f
 80037c6:	483a      	ldr	r0, [pc, #232]	; (80038b0 <HAL_RTC_SetAlarm_IT+0x2d4>)
 80037c8:	f004 fea8 	bl	800851c <assert_failed>
 80037cc:	78a0      	ldrb	r0, [r4, #2]
 80037ce:	f7ff fd5e 	bl	800328e <RTC_Bcd2ToByte>
 80037d2:	283b      	cmp	r0, #59	; 0x3b
 80037d4:	d904      	bls.n	80037e0 <HAL_RTC_SetAlarm_IT+0x204>
 80037d6:	f44f 61a4 	mov.w	r1, #1312	; 0x520
 80037da:	4835      	ldr	r0, [pc, #212]	; (80038b0 <HAL_RTC_SetAlarm_IT+0x2d4>)
 80037dc:	f004 fe9e 	bl	800851c <assert_failed>
 80037e0:	f894 0020 	ldrb.w	r0, [r4, #32]
 80037e4:	f7ff fd53 	bl	800328e <RTC_Bcd2ToByte>
 80037e8:	69e3      	ldr	r3, [r4, #28]
 80037ea:	3801      	subs	r0, #1
 80037ec:	b2c0      	uxtb	r0, r0
 80037ee:	b9fb      	cbnz	r3, 8003830 <HAL_RTC_SetAlarm_IT+0x254>
 80037f0:	281e      	cmp	r0, #30
 80037f2:	d904      	bls.n	80037fe <HAL_RTC_SetAlarm_IT+0x222>
 80037f4:	f240 5124 	movw	r1, #1316	; 0x524
 80037f8:	482d      	ldr	r0, [pc, #180]	; (80038b0 <HAL_RTC_SetAlarm_IT+0x2d4>)
 80037fa:	f004 fe8f 	bl	800851c <assert_failed>
 80037fe:	69e3      	ldr	r3, [r4, #28]
 8003800:	6960      	ldr	r0, [r4, #20]
 8003802:	4318      	orrs	r0, r3
 8003804:	78a3      	ldrb	r3, [r4, #2]
 8003806:	4318      	orrs	r0, r3
 8003808:	7823      	ldrb	r3, [r4, #0]
 800380a:	ea40 4003 	orr.w	r0, r0, r3, lsl #16
 800380e:	7863      	ldrb	r3, [r4, #1]
 8003810:	ea40 2003 	orr.w	r0, r0, r3, lsl #8
 8003814:	78e3      	ldrb	r3, [r4, #3]
 8003816:	ea40 4003 	orr.w	r0, r0, r3, lsl #16
 800381a:	f894 3020 	ldrb.w	r3, [r4, #32]
 800381e:	ea40 6003 	orr.w	r0, r0, r3, lsl #24
 8003822:	e784      	b.n	800372e <HAL_RTC_SetAlarm_IT+0x152>
 8003824:	2817      	cmp	r0, #23
 8003826:	70e2      	strb	r2, [r4, #3]
 8003828:	d9c6      	bls.n	80037b8 <HAL_RTC_SetAlarm_IT+0x1dc>
 800382a:	f240 511c 	movw	r1, #1308	; 0x51c
 800382e:	e7c0      	b.n	80037b2 <HAL_RTC_SetAlarm_IT+0x1d6>
 8003830:	2806      	cmp	r0, #6
 8003832:	d9e4      	bls.n	80037fe <HAL_RTC_SetAlarm_IT+0x222>
 8003834:	f44f 61a5 	mov.w	r1, #1320	; 0x528
 8003838:	e7de      	b.n	80037f8 <HAL_RTC_SetAlarm_IT+0x21c>
 800383a:	68da      	ldr	r2, [r3, #12]
 800383c:	07d4      	lsls	r4, r2, #31
 800383e:	d58c      	bpl.n	800375a <HAL_RTC_SetAlarm_IT+0x17e>
 8003840:	61d8      	str	r0, [r3, #28]
 8003842:	6459      	str	r1, [r3, #68]	; 0x44
 8003844:	689a      	ldr	r2, [r3, #8]
 8003846:	f442 7280 	orr.w	r2, r2, #256	; 0x100
 800384a:	609a      	str	r2, [r3, #8]
 800384c:	689a      	ldr	r2, [r3, #8]
 800384e:	f442 5280 	orr.w	r2, r2, #4096	; 0x1000
 8003852:	609a      	str	r2, [r3, #8]
 8003854:	4a17      	ldr	r2, [pc, #92]	; (80038b4 <HAL_RTC_SetAlarm_IT+0x2d8>)
 8003856:	6811      	ldr	r1, [r2, #0]
 8003858:	f441 3100 	orr.w	r1, r1, #131072	; 0x20000
 800385c:	6011      	str	r1, [r2, #0]
 800385e:	6891      	ldr	r1, [r2, #8]
 8003860:	f441 3100 	orr.w	r1, r1, #131072	; 0x20000
 8003864:	6091      	str	r1, [r2, #8]
 8003866:	22ff      	movs	r2, #255	; 0xff
 8003868:	625a      	str	r2, [r3, #36]	; 0x24
 800386a:	2000      	movs	r0, #0
 800386c:	2301      	movs	r3, #1
 800386e:	776b      	strb	r3, [r5, #29]
 8003870:	7728      	strb	r0, [r5, #28]
 8003872:	e77c      	b.n	800376e <HAL_RTC_SetAlarm_IT+0x192>
 8003874:	f422 7200 	bic.w	r2, r2, #512	; 0x200
 8003878:	609a      	str	r2, [r3, #8]
 800387a:	68da      	ldr	r2, [r3, #12]
 800387c:	b2d2      	uxtb	r2, r2
 800387e:	f462 7220 	orn	r2, r2, #640	; 0x280
 8003882:	60da      	str	r2, [r3, #12]
 8003884:	9a01      	ldr	r2, [sp, #4]
 8003886:	1e54      	subs	r4, r2, #1
 8003888:	9401      	str	r4, [sp, #4]
 800388a:	2a00      	cmp	r2, #0
 800388c:	f43f af6a 	beq.w	8003764 <HAL_RTC_SetAlarm_IT+0x188>
 8003890:	68da      	ldr	r2, [r3, #12]
 8003892:	0792      	lsls	r2, r2, #30
 8003894:	d5f6      	bpl.n	8003884 <HAL_RTC_SetAlarm_IT+0x2a8>
 8003896:	6218      	str	r0, [r3, #32]
 8003898:	6499      	str	r1, [r3, #72]	; 0x48
 800389a:	689a      	ldr	r2, [r3, #8]
 800389c:	f442 7200 	orr.w	r2, r2, #512	; 0x200
 80038a0:	609a      	str	r2, [r3, #8]
 80038a2:	689a      	ldr	r2, [r3, #8]
 80038a4:	f442 5200 	orr.w	r2, r2, #8192	; 0x2000
 80038a8:	e7d3      	b.n	8003852 <HAL_RTC_SetAlarm_IT+0x276>
 80038aa:	bf00      	nop
 80038ac:	20000090 	.word	0x20000090
 80038b0:	0800b2da 	.word	0x0800b2da
 80038b4:	40013c00 	.word	0x40013c00

080038b8 <HAL_RTCEx_SetWakeUpTimer_IT>:
 80038b8:	2a04      	cmp	r2, #4
 80038ba:	b573      	push	{r0, r1, r4, r5, r6, lr}
 80038bc:	4604      	mov	r4, r0
 80038be:	460e      	mov	r6, r1
 80038c0:	4615      	mov	r5, r2
 80038c2:	d906      	bls.n	80038d2 <HAL_RTCEx_SetWakeUpTimer_IT+0x1a>
 80038c4:	2a06      	cmp	r2, #6
 80038c6:	d004      	beq.n	80038d2 <HAL_RTCEx_SetWakeUpTimer_IT+0x1a>
 80038c8:	f240 314d 	movw	r1, #845	; 0x34d
 80038cc:	4832      	ldr	r0, [pc, #200]	; (8003998 <HAL_RTCEx_SetWakeUpTimer_IT+0xe0>)
 80038ce:	f004 fe25 	bl	800851c <assert_failed>
 80038d2:	f5b6 3f80 	cmp.w	r6, #65536	; 0x10000
 80038d6:	d304      	bcc.n	80038e2 <HAL_RTCEx_SetWakeUpTimer_IT+0x2a>
 80038d8:	f240 314e 	movw	r1, #846	; 0x34e
 80038dc:	482e      	ldr	r0, [pc, #184]	; (8003998 <HAL_RTCEx_SetWakeUpTimer_IT+0xe0>)
 80038de:	f004 fe1d 	bl	800851c <assert_failed>
 80038e2:	7f23      	ldrb	r3, [r4, #28]
 80038e4:	2b01      	cmp	r3, #1
 80038e6:	f04f 0002 	mov.w	r0, #2
 80038ea:	d01d      	beq.n	8003928 <HAL_RTCEx_SetWakeUpTimer_IT+0x70>
 80038ec:	2301      	movs	r3, #1
 80038ee:	7723      	strb	r3, [r4, #28]
 80038f0:	6823      	ldr	r3, [r4, #0]
 80038f2:	7760      	strb	r0, [r4, #29]
 80038f4:	22ca      	movs	r2, #202	; 0xca
 80038f6:	625a      	str	r2, [r3, #36]	; 0x24
 80038f8:	2253      	movs	r2, #83	; 0x53
 80038fa:	625a      	str	r2, [r3, #36]	; 0x24
 80038fc:	4a27      	ldr	r2, [pc, #156]	; (800399c <HAL_RTCEx_SetWakeUpTimer_IT+0xe4>)
 80038fe:	6898      	ldr	r0, [r3, #8]
 8003900:	6811      	ldr	r1, [r2, #0]
 8003902:	f44f 42fa 	mov.w	r2, #32000	; 0x7d00
 8003906:	fbb1 f2f2 	udiv	r2, r1, r2
 800390a:	f44f 717a 	mov.w	r1, #1000	; 0x3e8
 800390e:	4351      	muls	r1, r2
 8003910:	0542      	lsls	r2, r0, #21
 8003912:	d50e      	bpl.n	8003932 <HAL_RTCEx_SetWakeUpTimer_IT+0x7a>
 8003914:	9101      	str	r1, [sp, #4]
 8003916:	9a01      	ldr	r2, [sp, #4]
 8003918:	1e50      	subs	r0, r2, #1
 800391a:	9001      	str	r0, [sp, #4]
 800391c:	b932      	cbnz	r2, 800392c <HAL_RTCEx_SetWakeUpTimer_IT+0x74>
 800391e:	21ff      	movs	r1, #255	; 0xff
 8003920:	2003      	movs	r0, #3
 8003922:	6259      	str	r1, [r3, #36]	; 0x24
 8003924:	7760      	strb	r0, [r4, #29]
 8003926:	7722      	strb	r2, [r4, #28]
 8003928:	b002      	add	sp, #8
 800392a:	bd70      	pop	{r4, r5, r6, pc}
 800392c:	68da      	ldr	r2, [r3, #12]
 800392e:	0750      	lsls	r0, r2, #29
 8003930:	d4f1      	bmi.n	8003916 <HAL_RTCEx_SetWakeUpTimer_IT+0x5e>
 8003932:	689a      	ldr	r2, [r3, #8]
 8003934:	f422 6280 	bic.w	r2, r2, #1024	; 0x400
 8003938:	609a      	str	r2, [r3, #8]
 800393a:	9101      	str	r1, [sp, #4]
 800393c:	9a01      	ldr	r2, [sp, #4]
 800393e:	1e51      	subs	r1, r2, #1
 8003940:	9101      	str	r1, [sp, #4]
 8003942:	2a00      	cmp	r2, #0
 8003944:	d0eb      	beq.n	800391e <HAL_RTCEx_SetWakeUpTimer_IT+0x66>
 8003946:	68da      	ldr	r2, [r3, #12]
 8003948:	0752      	lsls	r2, r2, #29
 800394a:	d5f7      	bpl.n	800393c <HAL_RTCEx_SetWakeUpTimer_IT+0x84>
 800394c:	615e      	str	r6, [r3, #20]
 800394e:	689a      	ldr	r2, [r3, #8]
 8003950:	f022 0207 	bic.w	r2, r2, #7
 8003954:	609a      	str	r2, [r3, #8]
 8003956:	6899      	ldr	r1, [r3, #8]
 8003958:	4a11      	ldr	r2, [pc, #68]	; (80039a0 <HAL_RTCEx_SetWakeUpTimer_IT+0xe8>)
 800395a:	4329      	orrs	r1, r5
 800395c:	6099      	str	r1, [r3, #8]
 800395e:	6811      	ldr	r1, [r2, #0]
 8003960:	f441 0180 	orr.w	r1, r1, #4194304	; 0x400000
 8003964:	6011      	str	r1, [r2, #0]
 8003966:	6891      	ldr	r1, [r2, #8]
 8003968:	f441 0180 	orr.w	r1, r1, #4194304	; 0x400000
 800396c:	6091      	str	r1, [r2, #8]
 800396e:	68da      	ldr	r2, [r3, #12]
 8003970:	b2d2      	uxtb	r2, r2
 8003972:	f462 6290 	orn	r2, r2, #1152	; 0x480
 8003976:	60da      	str	r2, [r3, #12]
 8003978:	689a      	ldr	r2, [r3, #8]
 800397a:	f442 4280 	orr.w	r2, r2, #16384	; 0x4000
 800397e:	609a      	str	r2, [r3, #8]
 8003980:	689a      	ldr	r2, [r3, #8]
 8003982:	f442 6280 	orr.w	r2, r2, #1024	; 0x400
 8003986:	609a      	str	r2, [r3, #8]
 8003988:	22ff      	movs	r2, #255	; 0xff
 800398a:	625a      	str	r2, [r3, #36]	; 0x24
 800398c:	2000      	movs	r0, #0
 800398e:	2301      	movs	r3, #1
 8003990:	7763      	strb	r3, [r4, #29]
 8003992:	7720      	strb	r0, [r4, #28]
 8003994:	e7c8      	b.n	8003928 <HAL_RTCEx_SetWakeUpTimer_IT+0x70>
 8003996:	bf00      	nop
 8003998:	0800b312 	.word	0x0800b312
 800399c:	20000090 	.word	0x20000090
 80039a0:	40013c00 	.word	0x40013c00

080039a4 <HAL_RTCEx_DeactivateWakeUpTimer>:
 80039a4:	7f03      	ldrb	r3, [r0, #28]
 80039a6:	2b01      	cmp	r3, #1
 80039a8:	b570      	push	{r4, r5, r6, lr}
 80039aa:	4604      	mov	r4, r0
 80039ac:	f04f 0002 	mov.w	r0, #2
 80039b0:	d02a      	beq.n	8003a08 <HAL_RTCEx_DeactivateWakeUpTimer+0x64>
 80039b2:	2301      	movs	r3, #1
 80039b4:	7723      	strb	r3, [r4, #28]
 80039b6:	6823      	ldr	r3, [r4, #0]
 80039b8:	7760      	strb	r0, [r4, #29]
 80039ba:	22ca      	movs	r2, #202	; 0xca
 80039bc:	625a      	str	r2, [r3, #36]	; 0x24
 80039be:	2253      	movs	r2, #83	; 0x53
 80039c0:	625a      	str	r2, [r3, #36]	; 0x24
 80039c2:	689a      	ldr	r2, [r3, #8]
 80039c4:	f422 6280 	bic.w	r2, r2, #1024	; 0x400
 80039c8:	609a      	str	r2, [r3, #8]
 80039ca:	689a      	ldr	r2, [r3, #8]
 80039cc:	f422 4280 	bic.w	r2, r2, #16384	; 0x4000
 80039d0:	609a      	str	r2, [r3, #8]
 80039d2:	f7fd fa97 	bl	8000f04 <HAL_GetTick>
 80039d6:	4606      	mov	r6, r0
 80039d8:	6822      	ldr	r2, [r4, #0]
 80039da:	68d5      	ldr	r5, [r2, #12]
 80039dc:	f015 0504 	ands.w	r5, r5, #4
 80039e0:	d006      	beq.n	80039f0 <HAL_RTCEx_DeactivateWakeUpTimer+0x4c>
 80039e2:	23ff      	movs	r3, #255	; 0xff
 80039e4:	6253      	str	r3, [r2, #36]	; 0x24
 80039e6:	2000      	movs	r0, #0
 80039e8:	2301      	movs	r3, #1
 80039ea:	7763      	strb	r3, [r4, #29]
 80039ec:	7720      	strb	r0, [r4, #28]
 80039ee:	e00b      	b.n	8003a08 <HAL_RTCEx_DeactivateWakeUpTimer+0x64>
 80039f0:	f7fd fa88 	bl	8000f04 <HAL_GetTick>
 80039f4:	1b80      	subs	r0, r0, r6
 80039f6:	f5b0 7f7a 	cmp.w	r0, #1000	; 0x3e8
 80039fa:	d9ed      	bls.n	80039d8 <HAL_RTCEx_DeactivateWakeUpTimer+0x34>
 80039fc:	6823      	ldr	r3, [r4, #0]
 80039fe:	22ff      	movs	r2, #255	; 0xff
 8003a00:	2003      	movs	r0, #3
 8003a02:	625a      	str	r2, [r3, #36]	; 0x24
 8003a04:	7760      	strb	r0, [r4, #29]
 8003a06:	7725      	strb	r5, [r4, #28]
 8003a08:	bd70      	pop	{r4, r5, r6, pc}

08003a0a <HAL_RTCEx_WakeUpTimerEventCallback>:
 8003a0a:	4770      	bx	lr

08003a0c <HAL_RTCEx_WakeUpTimerIRQHandler>:
 8003a0c:	6803      	ldr	r3, [r0, #0]
 8003a0e:	68db      	ldr	r3, [r3, #12]
 8003a10:	055b      	lsls	r3, r3, #21
 8003a12:	b510      	push	{r4, lr}
 8003a14:	4604      	mov	r4, r0
 8003a16:	d507      	bpl.n	8003a28 <HAL_RTCEx_WakeUpTimerIRQHandler+0x1c>
 8003a18:	f7ff fff7 	bl	8003a0a <HAL_RTCEx_WakeUpTimerEventCallback>
 8003a1c:	6822      	ldr	r2, [r4, #0]
 8003a1e:	68d3      	ldr	r3, [r2, #12]
 8003a20:	b2db      	uxtb	r3, r3
 8003a22:	f463 6390 	orn	r3, r3, #1152	; 0x480
 8003a26:	60d3      	str	r3, [r2, #12]
 8003a28:	4b03      	ldr	r3, [pc, #12]	; (8003a38 <HAL_RTCEx_WakeUpTimerIRQHandler+0x2c>)
 8003a2a:	f44f 0280 	mov.w	r2, #4194304	; 0x400000
 8003a2e:	615a      	str	r2, [r3, #20]
 8003a30:	2301      	movs	r3, #1
 8003a32:	7763      	strb	r3, [r4, #29]
 8003a34:	bd10      	pop	{r4, pc}
 8003a36:	bf00      	nop
 8003a38:	40013c00 	.word	0x40013c00

08003a3c <HAL_RTCEx_AlarmBEventCallback>:
 8003a3c:	4770      	bx	lr
	...

08003a40 <TIM_OC1_SetConfig>:
 8003a40:	6a03      	ldr	r3, [r0, #32]
 8003a42:	f023 0301 	bic.w	r3, r3, #1
 8003a46:	e92d 41f0 	stmdb	sp!, {r4, r5, r6, r7, r8, lr}
 8003a4a:	6203      	str	r3, [r0, #32]
 8003a4c:	6a04      	ldr	r4, [r0, #32]
 8003a4e:	f8d0 8004 	ldr.w	r8, [r0, #4]
 8003a52:	6986      	ldr	r6, [r0, #24]
 8003a54:	680b      	ldr	r3, [r1, #0]
 8003a56:	f026 0673 	bic.w	r6, r6, #115	; 0x73
 8003a5a:	431e      	orrs	r6, r3
 8003a5c:	688b      	ldr	r3, [r1, #8]
 8003a5e:	f024 0402 	bic.w	r4, r4, #2
 8003a62:	431c      	orrs	r4, r3
 8003a64:	4b1a      	ldr	r3, [pc, #104]	; (8003ad0 <TIM_OC1_SetConfig+0x90>)
 8003a66:	4298      	cmp	r0, r3
 8003a68:	4605      	mov	r5, r0
 8003a6a:	460f      	mov	r7, r1
 8003a6c:	d127      	bne.n	8003abe <TIM_OC1_SetConfig+0x7e>
 8003a6e:	68cb      	ldr	r3, [r1, #12]
 8003a70:	f033 0308 	bics.w	r3, r3, #8
 8003a74:	d004      	beq.n	8003a80 <TIM_OC1_SetConfig+0x40>
 8003a76:	f241 7102 	movw	r1, #5890	; 0x1702
 8003a7a:	4816      	ldr	r0, [pc, #88]	; (8003ad4 <TIM_OC1_SetConfig+0x94>)
 8003a7c:	f004 fd4e 	bl	800851c <assert_failed>
 8003a80:	68fb      	ldr	r3, [r7, #12]
 8003a82:	f024 0408 	bic.w	r4, r4, #8
 8003a86:	431c      	orrs	r4, r3
 8003a88:	69bb      	ldr	r3, [r7, #24]
 8003a8a:	f433 7300 	bics.w	r3, r3, #512	; 0x200
 8003a8e:	f024 0404 	bic.w	r4, r4, #4
 8003a92:	d004      	beq.n	8003a9e <TIM_OC1_SetConfig+0x5e>
 8003a94:	f241 710f 	movw	r1, #5903	; 0x170f
 8003a98:	480e      	ldr	r0, [pc, #56]	; (8003ad4 <TIM_OC1_SetConfig+0x94>)
 8003a9a:	f004 fd3f 	bl	800851c <assert_failed>
 8003a9e:	697b      	ldr	r3, [r7, #20]
 8003aa0:	f433 7380 	bics.w	r3, r3, #256	; 0x100
 8003aa4:	d004      	beq.n	8003ab0 <TIM_OC1_SetConfig+0x70>
 8003aa6:	f241 7110 	movw	r1, #5904	; 0x1710
 8003aaa:	480a      	ldr	r0, [pc, #40]	; (8003ad4 <TIM_OC1_SetConfig+0x94>)
 8003aac:	f004 fd36 	bl	800851c <assert_failed>
 8003ab0:	e9d7 3205 	ldrd	r3, r2, [r7, #20]
 8003ab4:	f428 7840 	bic.w	r8, r8, #768	; 0x300
 8003ab8:	4313      	orrs	r3, r2
 8003aba:	ea43 0808 	orr.w	r8, r3, r8
 8003abe:	687b      	ldr	r3, [r7, #4]
 8003ac0:	f8c5 8004 	str.w	r8, [r5, #4]
 8003ac4:	61ae      	str	r6, [r5, #24]
 8003ac6:	636b      	str	r3, [r5, #52]	; 0x34
 8003ac8:	622c      	str	r4, [r5, #32]
 8003aca:	e8bd 81f0 	ldmia.w	sp!, {r4, r5, r6, r7, r8, pc}
 8003ace:	bf00      	nop
 8003ad0:	40010000 	.word	0x40010000
 8003ad4:	0800b34d 	.word	0x0800b34d

08003ad8 <TIM_OC3_SetConfig>:
 8003ad8:	6a03      	ldr	r3, [r0, #32]
 8003ada:	f423 7380 	bic.w	r3, r3, #256	; 0x100
 8003ade:	e92d 41f0 	stmdb	sp!, {r4, r5, r6, r7, r8, lr}
 8003ae2:	6203      	str	r3, [r0, #32]
 8003ae4:	6a04      	ldr	r4, [r0, #32]
 8003ae6:	f8d0 8004 	ldr.w	r8, [r0, #4]
 8003aea:	69c6      	ldr	r6, [r0, #28]
 8003aec:	680b      	ldr	r3, [r1, #0]
 8003aee:	f026 0673 	bic.w	r6, r6, #115	; 0x73
 8003af2:	431e      	orrs	r6, r3
 8003af4:	688b      	ldr	r3, [r1, #8]
 8003af6:	f424 7400 	bic.w	r4, r4, #512	; 0x200
 8003afa:	ea44 2403 	orr.w	r4, r4, r3, lsl #8
 8003afe:	4b1b      	ldr	r3, [pc, #108]	; (8003b6c <TIM_OC3_SetConfig+0x94>)
 8003b00:	4298      	cmp	r0, r3
 8003b02:	4605      	mov	r5, r0
 8003b04:	460f      	mov	r7, r1
 8003b06:	d128      	bne.n	8003b5a <TIM_OC3_SetConfig+0x82>
 8003b08:	68cb      	ldr	r3, [r1, #12]
 8003b0a:	f033 0308 	bics.w	r3, r3, #8
 8003b0e:	d004      	beq.n	8003b1a <TIM_OC3_SetConfig+0x42>
 8003b10:	f241 7198 	movw	r1, #6040	; 0x1798
 8003b14:	4816      	ldr	r0, [pc, #88]	; (8003b70 <TIM_OC3_SetConfig+0x98>)
 8003b16:	f004 fd01 	bl	800851c <assert_failed>
 8003b1a:	68fb      	ldr	r3, [r7, #12]
 8003b1c:	f424 6400 	bic.w	r4, r4, #2048	; 0x800
 8003b20:	ea44 2403 	orr.w	r4, r4, r3, lsl #8
 8003b24:	69bb      	ldr	r3, [r7, #24]
 8003b26:	f433 7300 	bics.w	r3, r3, #512	; 0x200
 8003b2a:	f424 6480 	bic.w	r4, r4, #1024	; 0x400
 8003b2e:	d004      	beq.n	8003b3a <TIM_OC3_SetConfig+0x62>
 8003b30:	f241 71a5 	movw	r1, #6053	; 0x17a5
 8003b34:	480e      	ldr	r0, [pc, #56]	; (8003b70 <TIM_OC3_SetConfig+0x98>)
 8003b36:	f004 fcf1 	bl	800851c <assert_failed>
 8003b3a:	697b      	ldr	r3, [r7, #20]
 8003b3c:	f433 7380 	bics.w	r3, r3, #256	; 0x100
 8003b40:	d004      	beq.n	8003b4c <TIM_OC3_SetConfig+0x74>
 8003b42:	f241 71a6 	movw	r1, #6054	; 0x17a6
 8003b46:	480a      	ldr	r0, [pc, #40]	; (8003b70 <TIM_OC3_SetConfig+0x98>)
 8003b48:	f004 fce8 	bl	800851c <assert_failed>
 8003b4c:	e9d7 3205 	ldrd	r3, r2, [r7, #20]
 8003b50:	f428 5840 	bic.w	r8, r8, #12288	; 0x3000
 8003b54:	4313      	orrs	r3, r2
 8003b56:	ea48 1803 	orr.w	r8, r8, r3, lsl #4
 8003b5a:	687b      	ldr	r3, [r7, #4]
 8003b5c:	f8c5 8004 	str.w	r8, [r5, #4]
 8003b60:	61ee      	str	r6, [r5, #28]
 8003b62:	63eb      	str	r3, [r5, #60]	; 0x3c
 8003b64:	622c      	str	r4, [r5, #32]
 8003b66:	e8bd 81f0 	ldmia.w	sp!, {r4, r5, r6, r7, r8, pc}
 8003b6a:	bf00      	nop
 8003b6c:	40010000 	.word	0x40010000
 8003b70:	0800b34d 	.word	0x0800b34d

08003b74 <TIM_OC4_SetConfig>:
 8003b74:	6a03      	ldr	r3, [r0, #32]
 8003b76:	f423 5380 	bic.w	r3, r3, #4096	; 0x1000
 8003b7a:	e92d 41f0 	stmdb	sp!, {r4, r5, r6, r7, r8, lr}
 8003b7e:	6203      	str	r3, [r0, #32]
 8003b80:	6a05      	ldr	r5, [r0, #32]
 8003b82:	f8d0 8004 	ldr.w	r8, [r0, #4]
 8003b86:	69c7      	ldr	r7, [r0, #28]
 8003b88:	680b      	ldr	r3, [r1, #0]
 8003b8a:	f427 47e6 	bic.w	r7, r7, #29440	; 0x7300
 8003b8e:	ea47 2703 	orr.w	r7, r7, r3, lsl #8
 8003b92:	688b      	ldr	r3, [r1, #8]
 8003b94:	f425 5500 	bic.w	r5, r5, #8192	; 0x2000
 8003b98:	ea45 3503 	orr.w	r5, r5, r3, lsl #12
 8003b9c:	4b0d      	ldr	r3, [pc, #52]	; (8003bd4 <TIM_OC4_SetConfig+0x60>)
 8003b9e:	4298      	cmp	r0, r3
 8003ba0:	4604      	mov	r4, r0
 8003ba2:	460e      	mov	r6, r1
 8003ba4:	d10d      	bne.n	8003bc2 <TIM_OC4_SetConfig+0x4e>
 8003ba6:	694b      	ldr	r3, [r1, #20]
 8003ba8:	f433 7380 	bics.w	r3, r3, #256	; 0x100
 8003bac:	d004      	beq.n	8003bb8 <TIM_OC4_SetConfig+0x44>
 8003bae:	f241 71e4 	movw	r1, #6116	; 0x17e4
 8003bb2:	4809      	ldr	r0, [pc, #36]	; (8003bd8 <TIM_OC4_SetConfig+0x64>)
 8003bb4:	f004 fcb2 	bl	800851c <assert_failed>
 8003bb8:	6973      	ldr	r3, [r6, #20]
 8003bba:	f428 4880 	bic.w	r8, r8, #16384	; 0x4000
 8003bbe:	ea48 1883 	orr.w	r8, r8, r3, lsl #6
 8003bc2:	6873      	ldr	r3, [r6, #4]
 8003bc4:	f8c4 8004 	str.w	r8, [r4, #4]
 8003bc8:	61e7      	str	r7, [r4, #28]
 8003bca:	6423      	str	r3, [r4, #64]	; 0x40
 8003bcc:	6225      	str	r5, [r4, #32]
 8003bce:	e8bd 81f0 	ldmia.w	sp!, {r4, r5, r6, r7, r8, pc}
 8003bd2:	bf00      	nop
 8003bd4:	40010000 	.word	0x40010000
 8003bd8:	0800b34d 	.word	0x0800b34d

08003bdc <HAL_TIM_Base_Start_IT>:
 8003bdc:	6803      	ldr	r3, [r0, #0]
 8003bde:	4a1a      	ldr	r2, [pc, #104]	; (8003c48 <HAL_TIM_Base_Start_IT+0x6c>)
 8003be0:	4293      	cmp	r3, r2
 8003be2:	b510      	push	{r4, lr}
 8003be4:	4604      	mov	r4, r0
 8003be6:	d01f      	beq.n	8003c28 <HAL_TIM_Base_Start_IT+0x4c>
 8003be8:	f1b3 4f80 	cmp.w	r3, #1073741824	; 0x40000000
 8003bec:	d01c      	beq.n	8003c28 <HAL_TIM_Base_Start_IT+0x4c>
 8003bee:	f5a2 427c 	sub.w	r2, r2, #64512	; 0xfc00
 8003bf2:	4293      	cmp	r3, r2
 8003bf4:	d018      	beq.n	8003c28 <HAL_TIM_Base_Start_IT+0x4c>
 8003bf6:	f502 6280 	add.w	r2, r2, #1024	; 0x400
 8003bfa:	4293      	cmp	r3, r2
 8003bfc:	d014      	beq.n	8003c28 <HAL_TIM_Base_Start_IT+0x4c>
 8003bfe:	f502 6280 	add.w	r2, r2, #1024	; 0x400
 8003c02:	4293      	cmp	r3, r2
 8003c04:	d010      	beq.n	8003c28 <HAL_TIM_Base_Start_IT+0x4c>
 8003c06:	f502 329a 	add.w	r2, r2, #78848	; 0x13400
 8003c0a:	4293      	cmp	r3, r2
 8003c0c:	d00c      	beq.n	8003c28 <HAL_TIM_Base_Start_IT+0x4c>
 8003c0e:	f502 6280 	add.w	r2, r2, #1024	; 0x400
 8003c12:	4293      	cmp	r3, r2
 8003c14:	d008      	beq.n	8003c28 <HAL_TIM_Base_Start_IT+0x4c>
 8003c16:	f502 6280 	add.w	r2, r2, #1024	; 0x400
 8003c1a:	4293      	cmp	r3, r2
 8003c1c:	d004      	beq.n	8003c28 <HAL_TIM_Base_Start_IT+0x4c>
 8003c1e:	f240 11b9 	movw	r1, #441	; 0x1b9
 8003c22:	480a      	ldr	r0, [pc, #40]	; (8003c4c <HAL_TIM_Base_Start_IT+0x70>)
 8003c24:	f004 fc7a 	bl	800851c <assert_failed>
 8003c28:	6823      	ldr	r3, [r4, #0]
 8003c2a:	68da      	ldr	r2, [r3, #12]
 8003c2c:	f042 0201 	orr.w	r2, r2, #1
 8003c30:	60da      	str	r2, [r3, #12]
 8003c32:	689a      	ldr	r2, [r3, #8]
 8003c34:	f002 0207 	and.w	r2, r2, #7
 8003c38:	2a06      	cmp	r2, #6
 8003c3a:	bf1e      	ittt	ne
 8003c3c:	681a      	ldrne	r2, [r3, #0]
 8003c3e:	f042 0201 	orrne.w	r2, r2, #1
 8003c42:	601a      	strne	r2, [r3, #0]
 8003c44:	2000      	movs	r0, #0
 8003c46:	bd10      	pop	{r4, pc}
 8003c48:	40010000 	.word	0x40010000
 8003c4c:	0800b34d 	.word	0x0800b34d

08003c50 <HAL_TIM_PWM_MspInit>:
 8003c50:	4770      	bx	lr

08003c52 <HAL_TIM_OC_DelayElapsedCallback>:
 8003c52:	4770      	bx	lr

08003c54 <HAL_TIM_IC_CaptureCallback>:
 8003c54:	4770      	bx	lr

08003c56 <HAL_TIM_PWM_PulseFinishedCallback>:
 8003c56:	4770      	bx	lr

08003c58 <HAL_TIM_TriggerCallback>:
 8003c58:	4770      	bx	lr

08003c5a <HAL_TIM_IRQHandler>:
 8003c5a:	6803      	ldr	r3, [r0, #0]
 8003c5c:	691a      	ldr	r2, [r3, #16]
 8003c5e:	0791      	lsls	r1, r2, #30
 8003c60:	b510      	push	{r4, lr}
 8003c62:	4604      	mov	r4, r0
 8003c64:	d50e      	bpl.n	8003c84 <HAL_TIM_IRQHandler+0x2a>
 8003c66:	68da      	ldr	r2, [r3, #12]
 8003c68:	0792      	lsls	r2, r2, #30
 8003c6a:	d50b      	bpl.n	8003c84 <HAL_TIM_IRQHandler+0x2a>
 8003c6c:	f06f 0202 	mvn.w	r2, #2
 8003c70:	611a      	str	r2, [r3, #16]
 8003c72:	699b      	ldr	r3, [r3, #24]
 8003c74:	2201      	movs	r2, #1
 8003c76:	079b      	lsls	r3, r3, #30
 8003c78:	7702      	strb	r2, [r0, #28]
 8003c7a:	d077      	beq.n	8003d6c <HAL_TIM_IRQHandler+0x112>
 8003c7c:	f7ff ffea 	bl	8003c54 <HAL_TIM_IC_CaptureCallback>
 8003c80:	2300      	movs	r3, #0
 8003c82:	7723      	strb	r3, [r4, #28]
 8003c84:	6823      	ldr	r3, [r4, #0]
 8003c86:	691a      	ldr	r2, [r3, #16]
 8003c88:	0750      	lsls	r0, r2, #29
 8003c8a:	d510      	bpl.n	8003cae <HAL_TIM_IRQHandler+0x54>
 8003c8c:	68da      	ldr	r2, [r3, #12]
 8003c8e:	0751      	lsls	r1, r2, #29
 8003c90:	d50d      	bpl.n	8003cae <HAL_TIM_IRQHandler+0x54>
 8003c92:	f06f 0204 	mvn.w	r2, #4
 8003c96:	611a      	str	r2, [r3, #16]
 8003c98:	699b      	ldr	r3, [r3, #24]
 8003c9a:	2202      	movs	r2, #2
 8003c9c:	f413 7f40 	tst.w	r3, #768	; 0x300
 8003ca0:	7722      	strb	r2, [r4, #28]
 8003ca2:	4620      	mov	r0, r4
 8003ca4:	d068      	beq.n	8003d78 <HAL_TIM_IRQHandler+0x11e>
 8003ca6:	f7ff ffd5 	bl	8003c54 <HAL_TIM_IC_CaptureCallback>
 8003caa:	2300      	movs	r3, #0
 8003cac:	7723      	strb	r3, [r4, #28]
 8003cae:	6823      	ldr	r3, [r4, #0]
 8003cb0:	691a      	ldr	r2, [r3, #16]
 8003cb2:	0712      	lsls	r2, r2, #28
 8003cb4:	d50f      	bpl.n	8003cd6 <HAL_TIM_IRQHandler+0x7c>
 8003cb6:	68da      	ldr	r2, [r3, #12]
 8003cb8:	0710      	lsls	r0, r2, #28
 8003cba:	d50c      	bpl.n	8003cd6 <HAL_TIM_IRQHandler+0x7c>
 8003cbc:	f06f 0208 	mvn.w	r2, #8
 8003cc0:	611a      	str	r2, [r3, #16]
 8003cc2:	69db      	ldr	r3, [r3, #28]
 8003cc4:	2204      	movs	r2, #4
 8003cc6:	0799      	lsls	r1, r3, #30
 8003cc8:	7722      	strb	r2, [r4, #28]
 8003cca:	4620      	mov	r0, r4
 8003ccc:	d05a      	beq.n	8003d84 <HAL_TIM_IRQHandler+0x12a>
 8003cce:	f7ff ffc1 	bl	8003c54 <HAL_TIM_IC_CaptureCallback>
 8003cd2:	2300      	movs	r3, #0
 8003cd4:	7723      	strb	r3, [r4, #28]
 8003cd6:	6823      	ldr	r3, [r4, #0]
 8003cd8:	691a      	ldr	r2, [r3, #16]
 8003cda:	06d2      	lsls	r2, r2, #27
 8003cdc:	d510      	bpl.n	8003d00 <HAL_TIM_IRQHandler+0xa6>
 8003cde:	68da      	ldr	r2, [r3, #12]
 8003ce0:	06d0      	lsls	r0, r2, #27
 8003ce2:	d50d      	bpl.n	8003d00 <HAL_TIM_IRQHandler+0xa6>
 8003ce4:	f06f 0210 	mvn.w	r2, #16
 8003ce8:	611a      	str	r2, [r3, #16]
 8003cea:	69db      	ldr	r3, [r3, #28]
 8003cec:	2208      	movs	r2, #8
 8003cee:	f413 7f40 	tst.w	r3, #768	; 0x300
 8003cf2:	7722      	strb	r2, [r4, #28]
 8003cf4:	4620      	mov	r0, r4
 8003cf6:	d04b      	beq.n	8003d90 <HAL_TIM_IRQHandler+0x136>
 8003cf8:	f7ff ffac 	bl	8003c54 <HAL_TIM_IC_CaptureCallback>
 8003cfc:	2300      	movs	r3, #0
 8003cfe:	7723      	strb	r3, [r4, #28]
 8003d00:	6823      	ldr	r3, [r4, #0]
 8003d02:	691a      	ldr	r2, [r3, #16]
 8003d04:	07d1      	lsls	r1, r2, #31
 8003d06:	d508      	bpl.n	8003d1a <HAL_TIM_IRQHandler+0xc0>
 8003d08:	68da      	ldr	r2, [r3, #12]
 8003d0a:	07d2      	lsls	r2, r2, #31
 8003d0c:	d505      	bpl.n	8003d1a <HAL_TIM_IRQHandler+0xc0>
 8003d0e:	f06f 0201 	mvn.w	r2, #1
 8003d12:	611a      	str	r2, [r3, #16]
 8003d14:	4620      	mov	r0, r4
 8003d16:	f004 fb5f 	bl	80083d8 <HAL_TIM_PeriodElapsedCallback>
 8003d1a:	6823      	ldr	r3, [r4, #0]
 8003d1c:	691a      	ldr	r2, [r3, #16]
 8003d1e:	0610      	lsls	r0, r2, #24
 8003d20:	d508      	bpl.n	8003d34 <HAL_TIM_IRQHandler+0xda>
 8003d22:	68da      	ldr	r2, [r3, #12]
 8003d24:	0611      	lsls	r1, r2, #24
 8003d26:	d505      	bpl.n	8003d34 <HAL_TIM_IRQHandler+0xda>
 8003d28:	f06f 0280 	mvn.w	r2, #128	; 0x80
 8003d2c:	611a      	str	r2, [r3, #16]
 8003d2e:	4620      	mov	r0, r4
 8003d30:	f000 fe15 	bl	800495e <HAL_TIMEx_BreakCallback>
 8003d34:	6823      	ldr	r3, [r4, #0]
 8003d36:	691a      	ldr	r2, [r3, #16]
 8003d38:	0652      	lsls	r2, r2, #25
 8003d3a:	d508      	bpl.n	8003d4e <HAL_TIM_IRQHandler+0xf4>
 8003d3c:	68da      	ldr	r2, [r3, #12]
 8003d3e:	0650      	lsls	r0, r2, #25
 8003d40:	d505      	bpl.n	8003d4e <HAL_TIM_IRQHandler+0xf4>
 8003d42:	f06f 0240 	mvn.w	r2, #64	; 0x40
 8003d46:	611a      	str	r2, [r3, #16]
 8003d48:	4620      	mov	r0, r4
 8003d4a:	f7ff ff85 	bl	8003c58 <HAL_TIM_TriggerCallback>
 8003d4e:	6823      	ldr	r3, [r4, #0]
 8003d50:	691a      	ldr	r2, [r3, #16]
 8003d52:	0691      	lsls	r1, r2, #26
 8003d54:	d522      	bpl.n	8003d9c <HAL_TIM_IRQHandler+0x142>
 8003d56:	68da      	ldr	r2, [r3, #12]
 8003d58:	0692      	lsls	r2, r2, #26
 8003d5a:	d51f      	bpl.n	8003d9c <HAL_TIM_IRQHandler+0x142>
 8003d5c:	f06f 0220 	mvn.w	r2, #32
 8003d60:	4620      	mov	r0, r4
 8003d62:	611a      	str	r2, [r3, #16]
 8003d64:	e8bd 4010 	ldmia.w	sp!, {r4, lr}
 8003d68:	f000 bdf8 	b.w	800495c <HAL_TIMEx_CommutCallback>
 8003d6c:	f7ff ff71 	bl	8003c52 <HAL_TIM_OC_DelayElapsedCallback>
 8003d70:	4620      	mov	r0, r4
 8003d72:	f7ff ff70 	bl	8003c56 <HAL_TIM_PWM_PulseFinishedCallback>
 8003d76:	e783      	b.n	8003c80 <HAL_TIM_IRQHandler+0x26>
 8003d78:	f7ff ff6b 	bl	8003c52 <HAL_TIM_OC_DelayElapsedCallback>
 8003d7c:	4620      	mov	r0, r4
 8003d7e:	f7ff ff6a 	bl	8003c56 <HAL_TIM_PWM_PulseFinishedCallback>
 8003d82:	e792      	b.n	8003caa <HAL_TIM_IRQHandler+0x50>
 8003d84:	f7ff ff65 	bl	8003c52 <HAL_TIM_OC_DelayElapsedCallback>
 8003d88:	4620      	mov	r0, r4
 8003d8a:	f7ff ff64 	bl	8003c56 <HAL_TIM_PWM_PulseFinishedCallback>
 8003d8e:	e7a0      	b.n	8003cd2 <HAL_TIM_IRQHandler+0x78>
 8003d90:	f7ff ff5f 	bl	8003c52 <HAL_TIM_OC_DelayElapsedCallback>
 8003d94:	4620      	mov	r0, r4
 8003d96:	f7ff ff5e 	bl	8003c56 <HAL_TIM_PWM_PulseFinishedCallback>
 8003d9a:	e7af      	b.n	8003cfc <HAL_TIM_IRQHandler+0xa2>
 8003d9c:	bd10      	pop	{r4, pc}
	...

08003da0 <TIM_Base_SetConfig>:
 8003da0:	4a24      	ldr	r2, [pc, #144]	; (8003e34 <TIM_Base_SetConfig+0x94>)
 8003da2:	6803      	ldr	r3, [r0, #0]
 8003da4:	4290      	cmp	r0, r2
 8003da6:	d00e      	beq.n	8003dc6 <TIM_Base_SetConfig+0x26>
 8003da8:	f1b0 4f80 	cmp.w	r0, #1073741824	; 0x40000000
 8003dac:	d00b      	beq.n	8003dc6 <TIM_Base_SetConfig+0x26>
 8003dae:	f5a2 427c 	sub.w	r2, r2, #64512	; 0xfc00
 8003db2:	4290      	cmp	r0, r2
 8003db4:	d007      	beq.n	8003dc6 <TIM_Base_SetConfig+0x26>
 8003db6:	f502 6280 	add.w	r2, r2, #1024	; 0x400
 8003dba:	4290      	cmp	r0, r2
 8003dbc:	d003      	beq.n	8003dc6 <TIM_Base_SetConfig+0x26>
 8003dbe:	f502 6280 	add.w	r2, r2, #1024	; 0x400
 8003dc2:	4290      	cmp	r0, r2
 8003dc4:	d115      	bne.n	8003df2 <TIM_Base_SetConfig+0x52>
 8003dc6:	684a      	ldr	r2, [r1, #4]
 8003dc8:	f023 0370 	bic.w	r3, r3, #112	; 0x70
 8003dcc:	4313      	orrs	r3, r2
 8003dce:	4a19      	ldr	r2, [pc, #100]	; (8003e34 <TIM_Base_SetConfig+0x94>)
 8003dd0:	4290      	cmp	r0, r2
 8003dd2:	d019      	beq.n	8003e08 <TIM_Base_SetConfig+0x68>
 8003dd4:	f1b0 4f80 	cmp.w	r0, #1073741824	; 0x40000000
 8003dd8:	d016      	beq.n	8003e08 <TIM_Base_SetConfig+0x68>
 8003dda:	f5a2 427c 	sub.w	r2, r2, #64512	; 0xfc00
 8003dde:	4290      	cmp	r0, r2
 8003de0:	d012      	beq.n	8003e08 <TIM_Base_SetConfig+0x68>
 8003de2:	f502 6280 	add.w	r2, r2, #1024	; 0x400
 8003de6:	4290      	cmp	r0, r2
 8003de8:	d00e      	beq.n	8003e08 <TIM_Base_SetConfig+0x68>
 8003dea:	f502 6280 	add.w	r2, r2, #1024	; 0x400
 8003dee:	4290      	cmp	r0, r2
 8003df0:	d00a      	beq.n	8003e08 <TIM_Base_SetConfig+0x68>
 8003df2:	4a11      	ldr	r2, [pc, #68]	; (8003e38 <TIM_Base_SetConfig+0x98>)
 8003df4:	4290      	cmp	r0, r2
 8003df6:	d007      	beq.n	8003e08 <TIM_Base_SetConfig+0x68>
 8003df8:	f502 6280 	add.w	r2, r2, #1024	; 0x400
 8003dfc:	4290      	cmp	r0, r2
 8003dfe:	d003      	beq.n	8003e08 <TIM_Base_SetConfig+0x68>
 8003e00:	f502 6280 	add.w	r2, r2, #1024	; 0x400
 8003e04:	4290      	cmp	r0, r2
 8003e06:	d103      	bne.n	8003e10 <TIM_Base_SetConfig+0x70>
 8003e08:	68ca      	ldr	r2, [r1, #12]
 8003e0a:	f423 7340 	bic.w	r3, r3, #768	; 0x300
 8003e0e:	4313      	orrs	r3, r2
 8003e10:	694a      	ldr	r2, [r1, #20]
 8003e12:	f023 0380 	bic.w	r3, r3, #128	; 0x80
 8003e16:	4313      	orrs	r3, r2
 8003e18:	6003      	str	r3, [r0, #0]
 8003e1a:	688b      	ldr	r3, [r1, #8]
 8003e1c:	62c3      	str	r3, [r0, #44]	; 0x2c
 8003e1e:	680b      	ldr	r3, [r1, #0]
 8003e20:	6283      	str	r3, [r0, #40]	; 0x28
 8003e22:	4b04      	ldr	r3, [pc, #16]	; (8003e34 <TIM_Base_SetConfig+0x94>)
 8003e24:	4298      	cmp	r0, r3
 8003e26:	bf04      	itt	eq
 8003e28:	690b      	ldreq	r3, [r1, #16]
 8003e2a:	6303      	streq	r3, [r0, #48]	; 0x30
 8003e2c:	2301      	movs	r3, #1
 8003e2e:	6143      	str	r3, [r0, #20]
 8003e30:	4770      	bx	lr
 8003e32:	bf00      	nop
 8003e34:	40010000 	.word	0x40010000
 8003e38:	40014000 	.word	0x40014000

08003e3c <HAL_TIM_Base_Init>:
 8003e3c:	b510      	push	{r4, lr}
 8003e3e:	4604      	mov	r4, r0
 8003e40:	2800      	cmp	r0, #0
 8003e42:	d05d      	beq.n	8003f00 <HAL_TIM_Base_Init+0xc4>
 8003e44:	6803      	ldr	r3, [r0, #0]
 8003e46:	4a2f      	ldr	r2, [pc, #188]	; (8003f04 <HAL_TIM_Base_Init+0xc8>)
 8003e48:	4293      	cmp	r3, r2
 8003e4a:	d01f      	beq.n	8003e8c <HAL_TIM_Base_Init+0x50>
 8003e4c:	f1b3 4f80 	cmp.w	r3, #1073741824	; 0x40000000
 8003e50:	d01c      	beq.n	8003e8c <HAL_TIM_Base_Init+0x50>
 8003e52:	f5a2 427c 	sub.w	r2, r2, #64512	; 0xfc00
 8003e56:	4293      	cmp	r3, r2
 8003e58:	d018      	beq.n	8003e8c <HAL_TIM_Base_Init+0x50>
 8003e5a:	f502 6280 	add.w	r2, r2, #1024	; 0x400
 8003e5e:	4293      	cmp	r3, r2
 8003e60:	d014      	beq.n	8003e8c <HAL_TIM_Base_Init+0x50>
 8003e62:	f502 6280 	add.w	r2, r2, #1024	; 0x400
 8003e66:	4293      	cmp	r3, r2
 8003e68:	d010      	beq.n	8003e8c <HAL_TIM_Base_Init+0x50>
 8003e6a:	f502 329a 	add.w	r2, r2, #78848	; 0x13400
 8003e6e:	4293      	cmp	r3, r2
 8003e70:	d00c      	beq.n	8003e8c <HAL_TIM_Base_Init+0x50>
 8003e72:	f502 6280 	add.w	r2, r2, #1024	; 0x400
 8003e76:	4293      	cmp	r3, r2
 8003e78:	d008      	beq.n	8003e8c <HAL_TIM_Base_Init+0x50>
 8003e7a:	f502 6280 	add.w	r2, r2, #1024	; 0x400
 8003e7e:	4293      	cmp	r3, r2
 8003e80:	d004      	beq.n	8003e8c <HAL_TIM_Base_Init+0x50>
 8003e82:	f44f 7189 	mov.w	r1, #274	; 0x112
 8003e86:	4820      	ldr	r0, [pc, #128]	; (8003f08 <HAL_TIM_Base_Init+0xcc>)
 8003e88:	f004 fb48 	bl	800851c <assert_failed>
 8003e8c:	68a3      	ldr	r3, [r4, #8]
 8003e8e:	f033 0210 	bics.w	r2, r3, #16
 8003e92:	d00a      	beq.n	8003eaa <HAL_TIM_Base_Init+0x6e>
 8003e94:	f023 0240 	bic.w	r2, r3, #64	; 0x40
 8003e98:	2a20      	cmp	r2, #32
 8003e9a:	d006      	beq.n	8003eaa <HAL_TIM_Base_Init+0x6e>
 8003e9c:	2b40      	cmp	r3, #64	; 0x40
 8003e9e:	d004      	beq.n	8003eaa <HAL_TIM_Base_Init+0x6e>
 8003ea0:	f240 1113 	movw	r1, #275	; 0x113
 8003ea4:	4818      	ldr	r0, [pc, #96]	; (8003f08 <HAL_TIM_Base_Init+0xcc>)
 8003ea6:	f004 fb39 	bl	800851c <assert_failed>
 8003eaa:	6923      	ldr	r3, [r4, #16]
 8003eac:	f433 7280 	bics.w	r2, r3, #256	; 0x100
 8003eb0:	d007      	beq.n	8003ec2 <HAL_TIM_Base_Init+0x86>
 8003eb2:	f5b3 7f00 	cmp.w	r3, #512	; 0x200
 8003eb6:	d004      	beq.n	8003ec2 <HAL_TIM_Base_Init+0x86>
 8003eb8:	f44f 718a 	mov.w	r1, #276	; 0x114
 8003ebc:	4812      	ldr	r0, [pc, #72]	; (8003f08 <HAL_TIM_Base_Init+0xcc>)
 8003ebe:	f004 fb2d 	bl	800851c <assert_failed>
 8003ec2:	69a3      	ldr	r3, [r4, #24]
 8003ec4:	f033 0380 	bics.w	r3, r3, #128	; 0x80
 8003ec8:	d004      	beq.n	8003ed4 <HAL_TIM_Base_Init+0x98>
 8003eca:	f240 1115 	movw	r1, #277	; 0x115
 8003ece:	480e      	ldr	r0, [pc, #56]	; (8003f08 <HAL_TIM_Base_Init+0xcc>)
 8003ed0:	f004 fb24 	bl	800851c <assert_failed>
 8003ed4:	f894 303d 	ldrb.w	r3, [r4, #61]	; 0x3d
 8003ed8:	f003 02ff 	and.w	r2, r3, #255	; 0xff
 8003edc:	b923      	cbnz	r3, 8003ee8 <HAL_TIM_Base_Init+0xac>
 8003ede:	f884 203c 	strb.w	r2, [r4, #60]	; 0x3c
 8003ee2:	4620      	mov	r0, r4
 8003ee4:	f004 fd82 	bl	80089ec <HAL_TIM_Base_MspInit>
 8003ee8:	2302      	movs	r3, #2
 8003eea:	f884 303d 	strb.w	r3, [r4, #61]	; 0x3d
 8003eee:	6820      	ldr	r0, [r4, #0]
 8003ef0:	1d21      	adds	r1, r4, #4
 8003ef2:	f7ff ff55 	bl	8003da0 <TIM_Base_SetConfig>
 8003ef6:	2301      	movs	r3, #1
 8003ef8:	f884 303d 	strb.w	r3, [r4, #61]	; 0x3d
 8003efc:	2000      	movs	r0, #0
 8003efe:	bd10      	pop	{r4, pc}
 8003f00:	2001      	movs	r0, #1
 8003f02:	e7fc      	b.n	8003efe <HAL_TIM_Base_Init+0xc2>
 8003f04:	40010000 	.word	0x40010000
 8003f08:	0800b34d 	.word	0x0800b34d

08003f0c <HAL_TIM_PWM_Init>:
 8003f0c:	b510      	push	{r4, lr}
 8003f0e:	4604      	mov	r4, r0
 8003f10:	2800      	cmp	r0, #0
 8003f12:	d05d      	beq.n	8003fd0 <HAL_TIM_PWM_Init+0xc4>
 8003f14:	6803      	ldr	r3, [r0, #0]
 8003f16:	4a2f      	ldr	r2, [pc, #188]	; (8003fd4 <HAL_TIM_PWM_Init+0xc8>)
 8003f18:	4293      	cmp	r3, r2
 8003f1a:	d01f      	beq.n	8003f5c <HAL_TIM_PWM_Init+0x50>
 8003f1c:	f1b3 4f80 	cmp.w	r3, #1073741824	; 0x40000000
 8003f20:	d01c      	beq.n	8003f5c <HAL_TIM_PWM_Init+0x50>
 8003f22:	f5a2 427c 	sub.w	r2, r2, #64512	; 0xfc00
 8003f26:	4293      	cmp	r3, r2
 8003f28:	d018      	beq.n	8003f5c <HAL_TIM_PWM_Init+0x50>
 8003f2a:	f502 6280 	add.w	r2, r2, #1024	; 0x400
 8003f2e:	4293      	cmp	r3, r2
 8003f30:	d014      	beq.n	8003f5c <HAL_TIM_PWM_Init+0x50>
 8003f32:	f502 6280 	add.w	r2, r2, #1024	; 0x400
 8003f36:	4293      	cmp	r3, r2
 8003f38:	d010      	beq.n	8003f5c <HAL_TIM_PWM_Init+0x50>
 8003f3a:	f502 329a 	add.w	r2, r2, #78848	; 0x13400
 8003f3e:	4293      	cmp	r3, r2
 8003f40:	d00c      	beq.n	8003f5c <HAL_TIM_PWM_Init+0x50>
 8003f42:	f502 6280 	add.w	r2, r2, #1024	; 0x400
 8003f46:	4293      	cmp	r3, r2
 8003f48:	d008      	beq.n	8003f5c <HAL_TIM_PWM_Init+0x50>
 8003f4a:	f502 6280 	add.w	r2, r2, #1024	; 0x400
 8003f4e:	4293      	cmp	r3, r2
 8003f50:	d004      	beq.n	8003f5c <HAL_TIM_PWM_Init+0x50>
 8003f52:	f240 419b 	movw	r1, #1179	; 0x49b
 8003f56:	4820      	ldr	r0, [pc, #128]	; (8003fd8 <HAL_TIM_PWM_Init+0xcc>)
 8003f58:	f004 fae0 	bl	800851c <assert_failed>
 8003f5c:	68a3      	ldr	r3, [r4, #8]
 8003f5e:	f033 0210 	bics.w	r2, r3, #16
 8003f62:	d00a      	beq.n	8003f7a <HAL_TIM_PWM_Init+0x6e>
 8003f64:	f023 0240 	bic.w	r2, r3, #64	; 0x40
 8003f68:	2a20      	cmp	r2, #32
 8003f6a:	d006      	beq.n	8003f7a <HAL_TIM_PWM_Init+0x6e>
 8003f6c:	2b40      	cmp	r3, #64	; 0x40
 8003f6e:	d004      	beq.n	8003f7a <HAL_TIM_PWM_Init+0x6e>
 8003f70:	f240 419c 	movw	r1, #1180	; 0x49c
 8003f74:	4818      	ldr	r0, [pc, #96]	; (8003fd8 <HAL_TIM_PWM_Init+0xcc>)
 8003f76:	f004 fad1 	bl	800851c <assert_failed>
 8003f7a:	6923      	ldr	r3, [r4, #16]
 8003f7c:	f433 7280 	bics.w	r2, r3, #256	; 0x100
 8003f80:	d007      	beq.n	8003f92 <HAL_TIM_PWM_Init+0x86>
 8003f82:	f5b3 7f00 	cmp.w	r3, #512	; 0x200
 8003f86:	d004      	beq.n	8003f92 <HAL_TIM_PWM_Init+0x86>
 8003f88:	f240 419d 	movw	r1, #1181	; 0x49d
 8003f8c:	4812      	ldr	r0, [pc, #72]	; (8003fd8 <HAL_TIM_PWM_Init+0xcc>)
 8003f8e:	f004 fac5 	bl	800851c <assert_failed>
 8003f92:	69a3      	ldr	r3, [r4, #24]
 8003f94:	f033 0380 	bics.w	r3, r3, #128	; 0x80
 8003f98:	d004      	beq.n	8003fa4 <HAL_TIM_PWM_Init+0x98>
 8003f9a:	f240 419e 	movw	r1, #1182	; 0x49e
 8003f9e:	480e      	ldr	r0, [pc, #56]	; (8003fd8 <HAL_TIM_PWM_Init+0xcc>)
 8003fa0:	f004 fabc 	bl	800851c <assert_failed>
 8003fa4:	f894 303d 	ldrb.w	r3, [r4, #61]	; 0x3d
 8003fa8:	f003 02ff 	and.w	r2, r3, #255	; 0xff
 8003fac:	b923      	cbnz	r3, 8003fb8 <HAL_TIM_PWM_Init+0xac>
 8003fae:	f884 203c 	strb.w	r2, [r4, #60]	; 0x3c
 8003fb2:	4620      	mov	r0, r4
 8003fb4:	f7ff fe4c 	bl	8003c50 <HAL_TIM_PWM_MspInit>
 8003fb8:	2302      	movs	r3, #2
 8003fba:	f884 303d 	strb.w	r3, [r4, #61]	; 0x3d
 8003fbe:	6820      	ldr	r0, [r4, #0]
 8003fc0:	1d21      	adds	r1, r4, #4
 8003fc2:	f7ff feed 	bl	8003da0 <TIM_Base_SetConfig>
 8003fc6:	2301      	movs	r3, #1
 8003fc8:	f884 303d 	strb.w	r3, [r4, #61]	; 0x3d
 8003fcc:	2000      	movs	r0, #0
 8003fce:	bd10      	pop	{r4, pc}
 8003fd0:	2001      	movs	r0, #1
 8003fd2:	e7fc      	b.n	8003fce <HAL_TIM_PWM_Init+0xc2>
 8003fd4:	40010000 	.word	0x40010000
 8003fd8:	0800b34d 	.word	0x0800b34d

08003fdc <TIM_OC2_SetConfig>:
 8003fdc:	6a03      	ldr	r3, [r0, #32]
 8003fde:	f023 0310 	bic.w	r3, r3, #16
 8003fe2:	e92d 41f0 	stmdb	sp!, {r4, r5, r6, r7, r8, lr}
 8003fe6:	6203      	str	r3, [r0, #32]
 8003fe8:	6a04      	ldr	r4, [r0, #32]
 8003fea:	f8d0 8004 	ldr.w	r8, [r0, #4]
 8003fee:	6986      	ldr	r6, [r0, #24]
 8003ff0:	680b      	ldr	r3, [r1, #0]
 8003ff2:	f426 46e6 	bic.w	r6, r6, #29440	; 0x7300
 8003ff6:	ea46 2603 	orr.w	r6, r6, r3, lsl #8
 8003ffa:	688b      	ldr	r3, [r1, #8]
 8003ffc:	f024 0420 	bic.w	r4, r4, #32
 8004000:	ea44 1403 	orr.w	r4, r4, r3, lsl #4
 8004004:	4b1a      	ldr	r3, [pc, #104]	; (8004070 <TIM_OC2_SetConfig+0x94>)
 8004006:	4298      	cmp	r0, r3
 8004008:	4605      	mov	r5, r0
 800400a:	460f      	mov	r7, r1
 800400c:	d128      	bne.n	8004060 <TIM_OC2_SetConfig+0x84>
 800400e:	68cb      	ldr	r3, [r1, #12]
 8004010:	f033 0308 	bics.w	r3, r3, #8
 8004014:	d004      	beq.n	8004020 <TIM_OC2_SetConfig+0x44>
 8004016:	f241 714d 	movw	r1, #5965	; 0x174d
 800401a:	4816      	ldr	r0, [pc, #88]	; (8004074 <TIM_OC2_SetConfig+0x98>)
 800401c:	f004 fa7e 	bl	800851c <assert_failed>
 8004020:	68fb      	ldr	r3, [r7, #12]
 8004022:	f024 0480 	bic.w	r4, r4, #128	; 0x80
 8004026:	ea44 1403 	orr.w	r4, r4, r3, lsl #4
 800402a:	69bb      	ldr	r3, [r7, #24]
 800402c:	f433 7300 	bics.w	r3, r3, #512	; 0x200
 8004030:	f024 0440 	bic.w	r4, r4, #64	; 0x40
 8004034:	d004      	beq.n	8004040 <TIM_OC2_SetConfig+0x64>
 8004036:	f241 715b 	movw	r1, #5979	; 0x175b
 800403a:	480e      	ldr	r0, [pc, #56]	; (8004074 <TIM_OC2_SetConfig+0x98>)
 800403c:	f004 fa6e 	bl	800851c <assert_failed>
 8004040:	697b      	ldr	r3, [r7, #20]
 8004042:	f433 7380 	bics.w	r3, r3, #256	; 0x100
 8004046:	d004      	beq.n	8004052 <TIM_OC2_SetConfig+0x76>
 8004048:	f241 715c 	movw	r1, #5980	; 0x175c
 800404c:	4809      	ldr	r0, [pc, #36]	; (8004074 <TIM_OC2_SetConfig+0x98>)
 800404e:	f004 fa65 	bl	800851c <assert_failed>
 8004052:	e9d7 3205 	ldrd	r3, r2, [r7, #20]
 8004056:	f428 6840 	bic.w	r8, r8, #3072	; 0xc00
 800405a:	4313      	orrs	r3, r2
 800405c:	ea48 0883 	orr.w	r8, r8, r3, lsl #2
 8004060:	687b      	ldr	r3, [r7, #4]
 8004062:	f8c5 8004 	str.w	r8, [r5, #4]
 8004066:	61ae      	str	r6, [r5, #24]
 8004068:	63ab      	str	r3, [r5, #56]	; 0x38
 800406a:	622c      	str	r4, [r5, #32]
 800406c:	e8bd 81f0 	ldmia.w	sp!, {r4, r5, r6, r7, r8, pc}
 8004070:	40010000 	.word	0x40010000
 8004074:	0800b34d 	.word	0x0800b34d

08004078 <HAL_TIM_PWM_ConfigChannel>:
 8004078:	f032 030c 	bics.w	r3, r2, #12
 800407c:	b570      	push	{r4, r5, r6, lr}
 800407e:	4604      	mov	r4, r0
 8004080:	460d      	mov	r5, r1
 8004082:	4616      	mov	r6, r2
 8004084:	d006      	beq.n	8004094 <HAL_TIM_PWM_ConfigChannel+0x1c>
 8004086:	2a3c      	cmp	r2, #60	; 0x3c
 8004088:	d004      	beq.n	8004094 <HAL_TIM_PWM_ConfigChannel+0x1c>
 800408a:	f640 51ec 	movw	r1, #3564	; 0xdec
 800408e:	4879      	ldr	r0, [pc, #484]	; (8004274 <HAL_TIM_PWM_ConfigChannel+0x1fc>)
 8004090:	f004 fa44 	bl	800851c <assert_failed>
 8004094:	682b      	ldr	r3, [r5, #0]
 8004096:	f023 0310 	bic.w	r3, r3, #16
 800409a:	2b60      	cmp	r3, #96	; 0x60
 800409c:	d004      	beq.n	80040a8 <HAL_TIM_PWM_ConfigChannel+0x30>
 800409e:	f640 51ed 	movw	r1, #3565	; 0xded
 80040a2:	4874      	ldr	r0, [pc, #464]	; (8004274 <HAL_TIM_PWM_ConfigChannel+0x1fc>)
 80040a4:	f004 fa3a 	bl	800851c <assert_failed>
 80040a8:	68ab      	ldr	r3, [r5, #8]
 80040aa:	f033 0302 	bics.w	r3, r3, #2
 80040ae:	d004      	beq.n	80040ba <HAL_TIM_PWM_ConfigChannel+0x42>
 80040b0:	f640 51ee 	movw	r1, #3566	; 0xdee
 80040b4:	486f      	ldr	r0, [pc, #444]	; (8004274 <HAL_TIM_PWM_ConfigChannel+0x1fc>)
 80040b6:	f004 fa31 	bl	800851c <assert_failed>
 80040ba:	692b      	ldr	r3, [r5, #16]
 80040bc:	f033 0304 	bics.w	r3, r3, #4
 80040c0:	d004      	beq.n	80040cc <HAL_TIM_PWM_ConfigChannel+0x54>
 80040c2:	f640 51ef 	movw	r1, #3567	; 0xdef
 80040c6:	486b      	ldr	r0, [pc, #428]	; (8004274 <HAL_TIM_PWM_ConfigChannel+0x1fc>)
 80040c8:	f004 fa28 	bl	800851c <assert_failed>
 80040cc:	f894 303c 	ldrb.w	r3, [r4, #60]	; 0x3c
 80040d0:	2b01      	cmp	r3, #1
 80040d2:	f04f 0002 	mov.w	r0, #2
 80040d6:	d04a      	beq.n	800416e <HAL_TIM_PWM_ConfigChannel+0xf6>
 80040d8:	2301      	movs	r3, #1
 80040da:	f884 303c 	strb.w	r3, [r4, #60]	; 0x3c
 80040de:	f884 003d 	strb.w	r0, [r4, #61]	; 0x3d
 80040e2:	2e0c      	cmp	r6, #12
 80040e4:	d83d      	bhi.n	8004162 <HAL_TIM_PWM_ConfigChannel+0xea>
 80040e6:	e8df f006 	tbb	[pc, r6]
 80040ea:	3c07      	.short	0x3c07
 80040ec:	3c433c3c 	.word	0x3c433c3c
 80040f0:	3c713c3c 	.word	0x3c713c3c
 80040f4:	3c3c      	.short	0x3c3c
 80040f6:	9b          	.byte	0x9b
 80040f7:	00          	.byte	0x00
 80040f8:	6823      	ldr	r3, [r4, #0]
 80040fa:	4a5f      	ldr	r2, [pc, #380]	; (8004278 <HAL_TIM_PWM_ConfigChannel+0x200>)
 80040fc:	4293      	cmp	r3, r2
 80040fe:	d01f      	beq.n	8004140 <HAL_TIM_PWM_ConfigChannel+0xc8>
 8004100:	f1b3 4f80 	cmp.w	r3, #1073741824	; 0x40000000
 8004104:	d01c      	beq.n	8004140 <HAL_TIM_PWM_ConfigChannel+0xc8>
 8004106:	f5a2 427c 	sub.w	r2, r2, #64512	; 0xfc00
 800410a:	4293      	cmp	r3, r2
 800410c:	d018      	beq.n	8004140 <HAL_TIM_PWM_ConfigChannel+0xc8>
 800410e:	f502 6280 	add.w	r2, r2, #1024	; 0x400
 8004112:	4293      	cmp	r3, r2
 8004114:	d014      	beq.n	8004140 <HAL_TIM_PWM_ConfigChannel+0xc8>
 8004116:	f502 6280 	add.w	r2, r2, #1024	; 0x400
 800411a:	4293      	cmp	r3, r2
 800411c:	d010      	beq.n	8004140 <HAL_TIM_PWM_ConfigChannel+0xc8>
 800411e:	f502 329a 	add.w	r2, r2, #78848	; 0x13400
 8004122:	4293      	cmp	r3, r2
 8004124:	d00c      	beq.n	8004140 <HAL_TIM_PWM_ConfigChannel+0xc8>
 8004126:	f502 6280 	add.w	r2, r2, #1024	; 0x400
 800412a:	4293      	cmp	r3, r2
 800412c:	d008      	beq.n	8004140 <HAL_TIM_PWM_ConfigChannel+0xc8>
 800412e:	f502 6280 	add.w	r2, r2, #1024	; 0x400
 8004132:	4293      	cmp	r3, r2
 8004134:	d004      	beq.n	8004140 <HAL_TIM_PWM_ConfigChannel+0xc8>
 8004136:	f640 51fb 	movw	r1, #3579	; 0xdfb
 800413a:	484e      	ldr	r0, [pc, #312]	; (8004274 <HAL_TIM_PWM_ConfigChannel+0x1fc>)
 800413c:	f004 f9ee 	bl	800851c <assert_failed>
 8004140:	4629      	mov	r1, r5
 8004142:	6820      	ldr	r0, [r4, #0]
 8004144:	f7ff fc7c 	bl	8003a40 <TIM_OC1_SetConfig>
 8004148:	6823      	ldr	r3, [r4, #0]
 800414a:	6929      	ldr	r1, [r5, #16]
 800414c:	699a      	ldr	r2, [r3, #24]
 800414e:	f042 0208 	orr.w	r2, r2, #8
 8004152:	619a      	str	r2, [r3, #24]
 8004154:	699a      	ldr	r2, [r3, #24]
 8004156:	f022 0204 	bic.w	r2, r2, #4
 800415a:	619a      	str	r2, [r3, #24]
 800415c:	699a      	ldr	r2, [r3, #24]
 800415e:	430a      	orrs	r2, r1
 8004160:	619a      	str	r2, [r3, #24]
 8004162:	2301      	movs	r3, #1
 8004164:	2000      	movs	r0, #0
 8004166:	f884 303d 	strb.w	r3, [r4, #61]	; 0x3d
 800416a:	f884 003c 	strb.w	r0, [r4, #60]	; 0x3c
 800416e:	bd70      	pop	{r4, r5, r6, pc}
 8004170:	6823      	ldr	r3, [r4, #0]
 8004172:	4a41      	ldr	r2, [pc, #260]	; (8004278 <HAL_TIM_PWM_ConfigChannel+0x200>)
 8004174:	4293      	cmp	r3, r2
 8004176:	d017      	beq.n	80041a8 <HAL_TIM_PWM_ConfigChannel+0x130>
 8004178:	f1b3 4f80 	cmp.w	r3, #1073741824	; 0x40000000
 800417c:	d014      	beq.n	80041a8 <HAL_TIM_PWM_ConfigChannel+0x130>
 800417e:	f5a2 427c 	sub.w	r2, r2, #64512	; 0xfc00
 8004182:	4293      	cmp	r3, r2
 8004184:	d010      	beq.n	80041a8 <HAL_TIM_PWM_ConfigChannel+0x130>
 8004186:	f502 6280 	add.w	r2, r2, #1024	; 0x400
 800418a:	4293      	cmp	r3, r2
 800418c:	d00c      	beq.n	80041a8 <HAL_TIM_PWM_ConfigChannel+0x130>
 800418e:	f502 6280 	add.w	r2, r2, #1024	; 0x400
 8004192:	4293      	cmp	r3, r2
 8004194:	d008      	beq.n	80041a8 <HAL_TIM_PWM_ConfigChannel+0x130>
 8004196:	f502 329a 	add.w	r2, r2, #78848	; 0x13400
 800419a:	4293      	cmp	r3, r2
 800419c:	d004      	beq.n	80041a8 <HAL_TIM_PWM_ConfigChannel+0x130>
 800419e:	f640 610c 	movw	r1, #3596	; 0xe0c
 80041a2:	4834      	ldr	r0, [pc, #208]	; (8004274 <HAL_TIM_PWM_ConfigChannel+0x1fc>)
 80041a4:	f004 f9ba 	bl	800851c <assert_failed>
 80041a8:	4629      	mov	r1, r5
 80041aa:	6820      	ldr	r0, [r4, #0]
 80041ac:	f7ff ff16 	bl	8003fdc <TIM_OC2_SetConfig>
 80041b0:	6823      	ldr	r3, [r4, #0]
 80041b2:	6929      	ldr	r1, [r5, #16]
 80041b4:	699a      	ldr	r2, [r3, #24]
 80041b6:	f442 6200 	orr.w	r2, r2, #2048	; 0x800
 80041ba:	619a      	str	r2, [r3, #24]
 80041bc:	699a      	ldr	r2, [r3, #24]
 80041be:	f422 6280 	bic.w	r2, r2, #1024	; 0x400
 80041c2:	619a      	str	r2, [r3, #24]
 80041c4:	699a      	ldr	r2, [r3, #24]
 80041c6:	ea42 2201 	orr.w	r2, r2, r1, lsl #8
 80041ca:	e7c9      	b.n	8004160 <HAL_TIM_PWM_ConfigChannel+0xe8>
 80041cc:	6823      	ldr	r3, [r4, #0]
 80041ce:	4a2a      	ldr	r2, [pc, #168]	; (8004278 <HAL_TIM_PWM_ConfigChannel+0x200>)
 80041d0:	4293      	cmp	r3, r2
 80041d2:	d013      	beq.n	80041fc <HAL_TIM_PWM_ConfigChannel+0x184>
 80041d4:	f1b3 4f80 	cmp.w	r3, #1073741824	; 0x40000000
 80041d8:	d010      	beq.n	80041fc <HAL_TIM_PWM_ConfigChannel+0x184>
 80041da:	f5a2 427c 	sub.w	r2, r2, #64512	; 0xfc00
 80041de:	4293      	cmp	r3, r2
 80041e0:	d00c      	beq.n	80041fc <HAL_TIM_PWM_ConfigChannel+0x184>
 80041e2:	f502 6280 	add.w	r2, r2, #1024	; 0x400
 80041e6:	4293      	cmp	r3, r2
 80041e8:	d008      	beq.n	80041fc <HAL_TIM_PWM_ConfigChannel+0x184>
 80041ea:	f502 6280 	add.w	r2, r2, #1024	; 0x400
 80041ee:	4293      	cmp	r3, r2
 80041f0:	d004      	beq.n	80041fc <HAL_TIM_PWM_ConfigChannel+0x184>
 80041f2:	f640 611d 	movw	r1, #3613	; 0xe1d
 80041f6:	481f      	ldr	r0, [pc, #124]	; (8004274 <HAL_TIM_PWM_ConfigChannel+0x1fc>)
 80041f8:	f004 f990 	bl	800851c <assert_failed>
 80041fc:	4629      	mov	r1, r5
 80041fe:	6820      	ldr	r0, [r4, #0]
 8004200:	f7ff fc6a 	bl	8003ad8 <TIM_OC3_SetConfig>
 8004204:	6823      	ldr	r3, [r4, #0]
 8004206:	6929      	ldr	r1, [r5, #16]
 8004208:	69da      	ldr	r2, [r3, #28]
 800420a:	f042 0208 	orr.w	r2, r2, #8
 800420e:	61da      	str	r2, [r3, #28]
 8004210:	69da      	ldr	r2, [r3, #28]
 8004212:	f022 0204 	bic.w	r2, r2, #4
 8004216:	61da      	str	r2, [r3, #28]
 8004218:	69da      	ldr	r2, [r3, #28]
 800421a:	430a      	orrs	r2, r1
 800421c:	61da      	str	r2, [r3, #28]
 800421e:	e7a0      	b.n	8004162 <HAL_TIM_PWM_ConfigChannel+0xea>
 8004220:	6823      	ldr	r3, [r4, #0]
 8004222:	4a15      	ldr	r2, [pc, #84]	; (8004278 <HAL_TIM_PWM_ConfigChannel+0x200>)
 8004224:	4293      	cmp	r3, r2
 8004226:	d013      	beq.n	8004250 <HAL_TIM_PWM_ConfigChannel+0x1d8>
 8004228:	f1b3 4f80 	cmp.w	r3, #1073741824	; 0x40000000
 800422c:	d010      	beq.n	8004250 <HAL_TIM_PWM_ConfigChannel+0x1d8>
 800422e:	f5a2 427c 	sub.w	r2, r2, #64512	; 0xfc00
 8004232:	4293      	cmp	r3, r2
 8004234:	d00c      	beq.n	8004250 <HAL_TIM_PWM_ConfigChannel+0x1d8>
 8004236:	f502 6280 	add.w	r2, r2, #1024	; 0x400
 800423a:	4293      	cmp	r3, r2
 800423c:	d008      	beq.n	8004250 <HAL_TIM_PWM_ConfigChannel+0x1d8>
 800423e:	f502 6280 	add.w	r2, r2, #1024	; 0x400
 8004242:	4293      	cmp	r3, r2
 8004244:	d004      	beq.n	8004250 <HAL_TIM_PWM_ConfigChannel+0x1d8>
 8004246:	f640 612e 	movw	r1, #3630	; 0xe2e
 800424a:	480a      	ldr	r0, [pc, #40]	; (8004274 <HAL_TIM_PWM_ConfigChannel+0x1fc>)
 800424c:	f004 f966 	bl	800851c <assert_failed>
 8004250:	4629      	mov	r1, r5
 8004252:	6820      	ldr	r0, [r4, #0]
 8004254:	f7ff fc8e 	bl	8003b74 <TIM_OC4_SetConfig>
 8004258:	6823      	ldr	r3, [r4, #0]
 800425a:	6929      	ldr	r1, [r5, #16]
 800425c:	69da      	ldr	r2, [r3, #28]
 800425e:	f442 6200 	orr.w	r2, r2, #2048	; 0x800
 8004262:	61da      	str	r2, [r3, #28]
 8004264:	69da      	ldr	r2, [r3, #28]
 8004266:	f422 6280 	bic.w	r2, r2, #1024	; 0x400
 800426a:	61da      	str	r2, [r3, #28]
 800426c:	69da      	ldr	r2, [r3, #28]
 800426e:	ea42 2201 	orr.w	r2, r2, r1, lsl #8
 8004272:	e7d3      	b.n	800421c <HAL_TIM_PWM_ConfigChannel+0x1a4>
 8004274:	0800b34d 	.word	0x0800b34d
 8004278:	40010000 	.word	0x40010000

0800427c <TIM_ETR_SetConfig>:
 800427c:	b510      	push	{r4, lr}
 800427e:	6884      	ldr	r4, [r0, #8]
 8004280:	430a      	orrs	r2, r1
 8004282:	f424 447f 	bic.w	r4, r4, #65280	; 0xff00
 8004286:	ea42 2303 	orr.w	r3, r2, r3, lsl #8
 800428a:	4323      	orrs	r3, r4
 800428c:	6083      	str	r3, [r0, #8]
 800428e:	bd10      	pop	{r4, pc}

08004290 <HAL_TIM_ConfigClockSource>:
 8004290:	f890 303c 	ldrb.w	r3, [r0, #60]	; 0x3c
 8004294:	2b01      	cmp	r3, #1
 8004296:	b570      	push	{r4, r5, r6, lr}
 8004298:	4605      	mov	r5, r0
 800429a:	460c      	mov	r4, r1
 800429c:	f04f 0002 	mov.w	r0, #2
 80042a0:	d02b      	beq.n	80042fa <HAL_TIM_ConfigClockSource+0x6a>
 80042a2:	2301      	movs	r3, #1
 80042a4:	f885 303c 	strb.w	r3, [r5, #60]	; 0x3c
 80042a8:	680b      	ldr	r3, [r1, #0]
 80042aa:	f885 003d 	strb.w	r0, [r5, #61]	; 0x3d
 80042ae:	f5b3 5f80 	cmp.w	r3, #4096	; 0x1000
 80042b2:	d00c      	beq.n	80042ce <HAL_TIM_ConfigClockSource+0x3e>
 80042b4:	f5b3 5f00 	cmp.w	r3, #8192	; 0x2000
 80042b8:	d009      	beq.n	80042ce <HAL_TIM_ConfigClockSource+0x3e>
 80042ba:	f033 0330 	bics.w	r3, r3, #48	; 0x30
 80042be:	d006      	beq.n	80042ce <HAL_TIM_ConfigClockSource+0x3e>
 80042c0:	2b40      	cmp	r3, #64	; 0x40
 80042c2:	d004      	beq.n	80042ce <HAL_TIM_ConfigClockSource+0x3e>
 80042c4:	f241 118b 	movw	r1, #4491	; 0x118b
 80042c8:	48a7      	ldr	r0, [pc, #668]	; (8004568 <HAL_TIM_ConfigClockSource+0x2d8>)
 80042ca:	f004 f927 	bl	800851c <assert_failed>
 80042ce:	682b      	ldr	r3, [r5, #0]
 80042d0:	689a      	ldr	r2, [r3, #8]
 80042d2:	f422 427f 	bic.w	r2, r2, #65280	; 0xff00
 80042d6:	f022 0277 	bic.w	r2, r2, #119	; 0x77
 80042da:	609a      	str	r2, [r3, #8]
 80042dc:	6822      	ldr	r2, [r4, #0]
 80042de:	2a40      	cmp	r2, #64	; 0x40
 80042e0:	f000 8190 	beq.w	8004604 <HAL_TIM_ConfigClockSource+0x374>
 80042e4:	d833      	bhi.n	800434e <HAL_TIM_ConfigClockSource+0xbe>
 80042e6:	2a10      	cmp	r2, #16
 80042e8:	d00c      	beq.n	8004304 <HAL_TIM_ConfigClockSource+0x74>
 80042ea:	d807      	bhi.n	80042fc <HAL_TIM_ConfigClockSource+0x6c>
 80042ec:	b152      	cbz	r2, 8004304 <HAL_TIM_ConfigClockSource+0x74>
 80042ee:	2301      	movs	r3, #1
 80042f0:	2000      	movs	r0, #0
 80042f2:	f885 303d 	strb.w	r3, [r5, #61]	; 0x3d
 80042f6:	f885 003c 	strb.w	r0, [r5, #60]	; 0x3c
 80042fa:	bd70      	pop	{r4, r5, r6, pc}
 80042fc:	2a20      	cmp	r2, #32
 80042fe:	d001      	beq.n	8004304 <HAL_TIM_ConfigClockSource+0x74>
 8004300:	2a30      	cmp	r2, #48	; 0x30
 8004302:	d1f4      	bne.n	80042ee <HAL_TIM_ConfigClockSource+0x5e>
 8004304:	4a99      	ldr	r2, [pc, #612]	; (800456c <HAL_TIM_ConfigClockSource+0x2dc>)
 8004306:	4293      	cmp	r3, r2
 8004308:	d017      	beq.n	800433a <HAL_TIM_ConfigClockSource+0xaa>
 800430a:	f1b3 4f80 	cmp.w	r3, #1073741824	; 0x40000000
 800430e:	d014      	beq.n	800433a <HAL_TIM_ConfigClockSource+0xaa>
 8004310:	f5a2 427c 	sub.w	r2, r2, #64512	; 0xfc00
 8004314:	4293      	cmp	r3, r2
 8004316:	d010      	beq.n	800433a <HAL_TIM_ConfigClockSource+0xaa>
 8004318:	f502 6280 	add.w	r2, r2, #1024	; 0x400
 800431c:	4293      	cmp	r3, r2
 800431e:	d00c      	beq.n	800433a <HAL_TIM_ConfigClockSource+0xaa>
 8004320:	f502 6280 	add.w	r2, r2, #1024	; 0x400
 8004324:	4293      	cmp	r3, r2
 8004326:	d008      	beq.n	800433a <HAL_TIM_ConfigClockSource+0xaa>
 8004328:	f502 329a 	add.w	r2, r2, #78848	; 0x13400
 800432c:	4293      	cmp	r3, r2
 800432e:	d004      	beq.n	800433a <HAL_TIM_ConfigClockSource+0xaa>
 8004330:	f241 11fd 	movw	r1, #4605	; 0x11fd
 8004334:	488c      	ldr	r0, [pc, #560]	; (8004568 <HAL_TIM_ConfigClockSource+0x2d8>)
 8004336:	f004 f8f1 	bl	800851c <assert_failed>
 800433a:	6829      	ldr	r1, [r5, #0]
 800433c:	6823      	ldr	r3, [r4, #0]
 800433e:	688a      	ldr	r2, [r1, #8]
 8004340:	f043 0307 	orr.w	r3, r3, #7
 8004344:	f022 0270 	bic.w	r2, r2, #112	; 0x70
 8004348:	4313      	orrs	r3, r2
 800434a:	608b      	str	r3, [r1, #8]
 800434c:	e7cf      	b.n	80042ee <HAL_TIM_ConfigClockSource+0x5e>
 800434e:	2a70      	cmp	r2, #112	; 0x70
 8004350:	f000 80c4 	beq.w	80044dc <HAL_TIM_ConfigClockSource+0x24c>
 8004354:	d84e      	bhi.n	80043f4 <HAL_TIM_ConfigClockSource+0x164>
 8004356:	2a50      	cmp	r2, #80	; 0x50
 8004358:	f000 810a 	beq.w	8004570 <HAL_TIM_ConfigClockSource+0x2e0>
 800435c:	2a60      	cmp	r2, #96	; 0x60
 800435e:	d1c6      	bne.n	80042ee <HAL_TIM_ConfigClockSource+0x5e>
 8004360:	4a82      	ldr	r2, [pc, #520]	; (800456c <HAL_TIM_ConfigClockSource+0x2dc>)
 8004362:	4293      	cmp	r3, r2
 8004364:	d017      	beq.n	8004396 <HAL_TIM_ConfigClockSource+0x106>
 8004366:	f1b3 4f80 	cmp.w	r3, #1073741824	; 0x40000000
 800436a:	d014      	beq.n	8004396 <HAL_TIM_ConfigClockSource+0x106>
 800436c:	f5a2 427c 	sub.w	r2, r2, #64512	; 0xfc00
 8004370:	4293      	cmp	r3, r2
 8004372:	d010      	beq.n	8004396 <HAL_TIM_ConfigClockSource+0x106>
 8004374:	f502 6280 	add.w	r2, r2, #1024	; 0x400
 8004378:	4293      	cmp	r3, r2
 800437a:	d00c      	beq.n	8004396 <HAL_TIM_ConfigClockSource+0x106>
 800437c:	f502 6280 	add.w	r2, r2, #1024	; 0x400
 8004380:	4293      	cmp	r3, r2
 8004382:	d008      	beq.n	8004396 <HAL_TIM_ConfigClockSource+0x106>
 8004384:	f502 329a 	add.w	r2, r2, #78848	; 0x13400
 8004388:	4293      	cmp	r3, r2
 800438a:	d004      	beq.n	8004396 <HAL_TIM_ConfigClockSource+0x106>
 800438c:	f241 11da 	movw	r1, #4570	; 0x11da
 8004390:	4875      	ldr	r0, [pc, #468]	; (8004568 <HAL_TIM_ConfigClockSource+0x2d8>)
 8004392:	f004 f8c3 	bl	800851c <assert_failed>
 8004396:	6863      	ldr	r3, [r4, #4]
 8004398:	f5b3 4f00 	cmp.w	r3, #32768	; 0x8000
 800439c:	d009      	beq.n	80043b2 <HAL_TIM_ConfigClockSource+0x122>
 800439e:	f033 0202 	bics.w	r2, r3, #2
 80043a2:	d006      	beq.n	80043b2 <HAL_TIM_ConfigClockSource+0x122>
 80043a4:	2b0a      	cmp	r3, #10
 80043a6:	d004      	beq.n	80043b2 <HAL_TIM_ConfigClockSource+0x122>
 80043a8:	f241 11dd 	movw	r1, #4573	; 0x11dd
 80043ac:	486e      	ldr	r0, [pc, #440]	; (8004568 <HAL_TIM_ConfigClockSource+0x2d8>)
 80043ae:	f004 f8b5 	bl	800851c <assert_failed>
 80043b2:	68e3      	ldr	r3, [r4, #12]
 80043b4:	2b0f      	cmp	r3, #15
 80043b6:	d904      	bls.n	80043c2 <HAL_TIM_ConfigClockSource+0x132>
 80043b8:	f241 11de 	movw	r1, #4574	; 0x11de
 80043bc:	486a      	ldr	r0, [pc, #424]	; (8004568 <HAL_TIM_ConfigClockSource+0x2d8>)
 80043be:	f004 f8ad 	bl	800851c <assert_failed>
 80043c2:	682b      	ldr	r3, [r5, #0]
 80043c4:	6866      	ldr	r6, [r4, #4]
 80043c6:	6a18      	ldr	r0, [r3, #32]
 80043c8:	68e4      	ldr	r4, [r4, #12]
 80043ca:	f020 0010 	bic.w	r0, r0, #16
 80043ce:	6218      	str	r0, [r3, #32]
 80043d0:	6999      	ldr	r1, [r3, #24]
 80043d2:	6a1a      	ldr	r2, [r3, #32]
 80043d4:	f421 4170 	bic.w	r1, r1, #61440	; 0xf000
 80043d8:	f022 02a0 	bic.w	r2, r2, #160	; 0xa0
 80043dc:	ea42 1206 	orr.w	r2, r2, r6, lsl #4
 80043e0:	ea41 3104 	orr.w	r1, r1, r4, lsl #12
 80043e4:	6199      	str	r1, [r3, #24]
 80043e6:	621a      	str	r2, [r3, #32]
 80043e8:	689a      	ldr	r2, [r3, #8]
 80043ea:	f022 0270 	bic.w	r2, r2, #112	; 0x70
 80043ee:	f042 0267 	orr.w	r2, r2, #103	; 0x67
 80043f2:	e105      	b.n	8004600 <HAL_TIM_ConfigClockSource+0x370>
 80043f4:	f5b2 5f80 	cmp.w	r2, #4096	; 0x1000
 80043f8:	d044      	beq.n	8004484 <HAL_TIM_ConfigClockSource+0x1f4>
 80043fa:	f5b2 5f00 	cmp.w	r2, #8192	; 0x2000
 80043fe:	f47f af76 	bne.w	80042ee <HAL_TIM_ConfigClockSource+0x5e>
 8004402:	4a5a      	ldr	r2, [pc, #360]	; (800456c <HAL_TIM_ConfigClockSource+0x2dc>)
 8004404:	4293      	cmp	r3, r2
 8004406:	d013      	beq.n	8004430 <HAL_TIM_ConfigClockSource+0x1a0>
 8004408:	f1b3 4f80 	cmp.w	r3, #1073741824	; 0x40000000
 800440c:	d010      	beq.n	8004430 <HAL_TIM_ConfigClockSource+0x1a0>
 800440e:	f5a2 427c 	sub.w	r2, r2, #64512	; 0xfc00
 8004412:	4293      	cmp	r3, r2
 8004414:	d00c      	beq.n	8004430 <HAL_TIM_ConfigClockSource+0x1a0>
 8004416:	f502 6280 	add.w	r2, r2, #1024	; 0x400
 800441a:	4293      	cmp	r3, r2
 800441c:	d008      	beq.n	8004430 <HAL_TIM_ConfigClockSource+0x1a0>
 800441e:	f502 6280 	add.w	r2, r2, #1024	; 0x400
 8004422:	4293      	cmp	r3, r2
 8004424:	d004      	beq.n	8004430 <HAL_TIM_ConfigClockSource+0x1a0>
 8004426:	f241 11b6 	movw	r1, #4534	; 0x11b6
 800442a:	484f      	ldr	r0, [pc, #316]	; (8004568 <HAL_TIM_ConfigClockSource+0x2d8>)
 800442c:	f004 f876 	bl	800851c <assert_failed>
 8004430:	68a3      	ldr	r3, [r4, #8]
 8004432:	f433 5340 	bics.w	r3, r3, #12288	; 0x3000
 8004436:	d004      	beq.n	8004442 <HAL_TIM_ConfigClockSource+0x1b2>
 8004438:	f241 11b9 	movw	r1, #4537	; 0x11b9
 800443c:	484a      	ldr	r0, [pc, #296]	; (8004568 <HAL_TIM_ConfigClockSource+0x2d8>)
 800443e:	f004 f86d 	bl	800851c <assert_failed>
 8004442:	6863      	ldr	r3, [r4, #4]
 8004444:	f5b3 4f00 	cmp.w	r3, #32768	; 0x8000
 8004448:	d009      	beq.n	800445e <HAL_TIM_ConfigClockSource+0x1ce>
 800444a:	f033 0202 	bics.w	r2, r3, #2
 800444e:	d006      	beq.n	800445e <HAL_TIM_ConfigClockSource+0x1ce>
 8004450:	2b0a      	cmp	r3, #10
 8004452:	d004      	beq.n	800445e <HAL_TIM_ConfigClockSource+0x1ce>
 8004454:	f241 11ba 	movw	r1, #4538	; 0x11ba
 8004458:	4843      	ldr	r0, [pc, #268]	; (8004568 <HAL_TIM_ConfigClockSource+0x2d8>)
 800445a:	f004 f85f 	bl	800851c <assert_failed>
 800445e:	68e3      	ldr	r3, [r4, #12]
 8004460:	2b0f      	cmp	r3, #15
 8004462:	d904      	bls.n	800446e <HAL_TIM_ConfigClockSource+0x1de>
 8004464:	f241 11bb 	movw	r1, #4539	; 0x11bb
 8004468:	483f      	ldr	r0, [pc, #252]	; (8004568 <HAL_TIM_ConfigClockSource+0x2d8>)
 800446a:	f004 f857 	bl	800851c <assert_failed>
 800446e:	68e3      	ldr	r3, [r4, #12]
 8004470:	6828      	ldr	r0, [r5, #0]
 8004472:	e9d4 2101 	ldrd	r2, r1, [r4, #4]
 8004476:	f7ff ff01 	bl	800427c <TIM_ETR_SetConfig>
 800447a:	682a      	ldr	r2, [r5, #0]
 800447c:	6893      	ldr	r3, [r2, #8]
 800447e:	f443 4380 	orr.w	r3, r3, #16384	; 0x4000
 8004482:	e06f      	b.n	8004564 <HAL_TIM_ConfigClockSource+0x2d4>
 8004484:	4a39      	ldr	r2, [pc, #228]	; (800456c <HAL_TIM_ConfigClockSource+0x2dc>)
 8004486:	4293      	cmp	r3, r2
 8004488:	f43f af31 	beq.w	80042ee <HAL_TIM_ConfigClockSource+0x5e>
 800448c:	f1b3 4f80 	cmp.w	r3, #1073741824	; 0x40000000
 8004490:	f43f af2d 	beq.w	80042ee <HAL_TIM_ConfigClockSource+0x5e>
 8004494:	f5a2 427c 	sub.w	r2, r2, #64512	; 0xfc00
 8004498:	4293      	cmp	r3, r2
 800449a:	f43f af28 	beq.w	80042ee <HAL_TIM_ConfigClockSource+0x5e>
 800449e:	f502 6280 	add.w	r2, r2, #1024	; 0x400
 80044a2:	4293      	cmp	r3, r2
 80044a4:	f43f af23 	beq.w	80042ee <HAL_TIM_ConfigClockSource+0x5e>
 80044a8:	f502 6280 	add.w	r2, r2, #1024	; 0x400
 80044ac:	4293      	cmp	r3, r2
 80044ae:	f43f af1e 	beq.w	80042ee <HAL_TIM_ConfigClockSource+0x5e>
 80044b2:	f502 329a 	add.w	r2, r2, #78848	; 0x13400
 80044b6:	4293      	cmp	r3, r2
 80044b8:	f43f af19 	beq.w	80042ee <HAL_TIM_ConfigClockSource+0x5e>
 80044bc:	f502 6280 	add.w	r2, r2, #1024	; 0x400
 80044c0:	4293      	cmp	r3, r2
 80044c2:	f43f af14 	beq.w	80042ee <HAL_TIM_ConfigClockSource+0x5e>
 80044c6:	f502 6280 	add.w	r2, r2, #1024	; 0x400
 80044ca:	4293      	cmp	r3, r2
 80044cc:	f43f af0f 	beq.w	80042ee <HAL_TIM_ConfigClockSource+0x5e>
 80044d0:	f241 1197 	movw	r1, #4503	; 0x1197
 80044d4:	4824      	ldr	r0, [pc, #144]	; (8004568 <HAL_TIM_ConfigClockSource+0x2d8>)
 80044d6:	f004 f821 	bl	800851c <assert_failed>
 80044da:	e708      	b.n	80042ee <HAL_TIM_ConfigClockSource+0x5e>
 80044dc:	4a23      	ldr	r2, [pc, #140]	; (800456c <HAL_TIM_ConfigClockSource+0x2dc>)
 80044de:	4293      	cmp	r3, r2
 80044e0:	d017      	beq.n	8004512 <HAL_TIM_ConfigClockSource+0x282>
 80044e2:	f1b3 4f80 	cmp.w	r3, #1073741824	; 0x40000000
 80044e6:	d014      	beq.n	8004512 <HAL_TIM_ConfigClockSource+0x282>
 80044e8:	f5a2 427c 	sub.w	r2, r2, #64512	; 0xfc00
 80044ec:	4293      	cmp	r3, r2
 80044ee:	d010      	beq.n	8004512 <HAL_TIM_ConfigClockSource+0x282>
 80044f0:	f502 6280 	add.w	r2, r2, #1024	; 0x400
 80044f4:	4293      	cmp	r3, r2
 80044f6:	d00c      	beq.n	8004512 <HAL_TIM_ConfigClockSource+0x282>
 80044f8:	f502 6280 	add.w	r2, r2, #1024	; 0x400
 80044fc:	4293      	cmp	r3, r2
 80044fe:	d008      	beq.n	8004512 <HAL_TIM_ConfigClockSource+0x282>
 8004500:	f502 329a 	add.w	r2, r2, #78848	; 0x13400
 8004504:	4293      	cmp	r3, r2
 8004506:	d004      	beq.n	8004512 <HAL_TIM_ConfigClockSource+0x282>
 8004508:	f241 119e 	movw	r1, #4510	; 0x119e
 800450c:	4816      	ldr	r0, [pc, #88]	; (8004568 <HAL_TIM_ConfigClockSource+0x2d8>)
 800450e:	f004 f805 	bl	800851c <assert_failed>
 8004512:	68a3      	ldr	r3, [r4, #8]
 8004514:	f433 5340 	bics.w	r3, r3, #12288	; 0x3000
 8004518:	d004      	beq.n	8004524 <HAL_TIM_ConfigClockSource+0x294>
 800451a:	f241 11a1 	movw	r1, #4513	; 0x11a1
 800451e:	4812      	ldr	r0, [pc, #72]	; (8004568 <HAL_TIM_ConfigClockSource+0x2d8>)
 8004520:	f003 fffc 	bl	800851c <assert_failed>
 8004524:	6863      	ldr	r3, [r4, #4]
 8004526:	f5b3 4f00 	cmp.w	r3, #32768	; 0x8000
 800452a:	d009      	beq.n	8004540 <HAL_TIM_ConfigClockSource+0x2b0>
 800452c:	f033 0202 	bics.w	r2, r3, #2
 8004530:	d006      	beq.n	8004540 <HAL_TIM_ConfigClockSource+0x2b0>
 8004532:	2b0a      	cmp	r3, #10
 8004534:	d004      	beq.n	8004540 <HAL_TIM_ConfigClockSource+0x2b0>
 8004536:	f241 11a2 	movw	r1, #4514	; 0x11a2
 800453a:	480b      	ldr	r0, [pc, #44]	; (8004568 <HAL_TIM_ConfigClockSource+0x2d8>)
 800453c:	f003 ffee 	bl	800851c <assert_failed>
 8004540:	68e3      	ldr	r3, [r4, #12]
 8004542:	2b0f      	cmp	r3, #15
 8004544:	d904      	bls.n	8004550 <HAL_TIM_ConfigClockSource+0x2c0>
 8004546:	f241 11a3 	movw	r1, #4515	; 0x11a3
 800454a:	4807      	ldr	r0, [pc, #28]	; (8004568 <HAL_TIM_ConfigClockSource+0x2d8>)
 800454c:	f003 ffe6 	bl	800851c <assert_failed>
 8004550:	68e3      	ldr	r3, [r4, #12]
 8004552:	6828      	ldr	r0, [r5, #0]
 8004554:	e9d4 2101 	ldrd	r2, r1, [r4, #4]
 8004558:	f7ff fe90 	bl	800427c <TIM_ETR_SetConfig>
 800455c:	682a      	ldr	r2, [r5, #0]
 800455e:	6893      	ldr	r3, [r2, #8]
 8004560:	f043 0377 	orr.w	r3, r3, #119	; 0x77
 8004564:	6093      	str	r3, [r2, #8]
 8004566:	e6c2      	b.n	80042ee <HAL_TIM_ConfigClockSource+0x5e>
 8004568:	0800b34d 	.word	0x0800b34d
 800456c:	40010000 	.word	0x40010000
 8004570:	4a49      	ldr	r2, [pc, #292]	; (8004698 <HAL_TIM_ConfigClockSource+0x408>)
 8004572:	4293      	cmp	r3, r2
 8004574:	d017      	beq.n	80045a6 <HAL_TIM_ConfigClockSource+0x316>
 8004576:	f1b3 4f80 	cmp.w	r3, #1073741824	; 0x40000000
 800457a:	d014      	beq.n	80045a6 <HAL_TIM_ConfigClockSource+0x316>
 800457c:	f5a2 427c 	sub.w	r2, r2, #64512	; 0xfc00
 8004580:	4293      	cmp	r3, r2
 8004582:	d010      	beq.n	80045a6 <HAL_TIM_ConfigClockSource+0x316>
 8004584:	f502 6280 	add.w	r2, r2, #1024	; 0x400
 8004588:	4293      	cmp	r3, r2
 800458a:	d00c      	beq.n	80045a6 <HAL_TIM_ConfigClockSource+0x316>
 800458c:	f502 6280 	add.w	r2, r2, #1024	; 0x400
 8004590:	4293      	cmp	r3, r2
 8004592:	d008      	beq.n	80045a6 <HAL_TIM_ConfigClockSource+0x316>
 8004594:	f502 329a 	add.w	r2, r2, #78848	; 0x13400
 8004598:	4293      	cmp	r3, r2
 800459a:	d004      	beq.n	80045a6 <HAL_TIM_ConfigClockSource+0x316>
 800459c:	f241 11ca 	movw	r1, #4554	; 0x11ca
 80045a0:	483e      	ldr	r0, [pc, #248]	; (800469c <HAL_TIM_ConfigClockSource+0x40c>)
 80045a2:	f003 ffbb 	bl	800851c <assert_failed>
 80045a6:	6863      	ldr	r3, [r4, #4]
 80045a8:	f5b3 4f00 	cmp.w	r3, #32768	; 0x8000
 80045ac:	d009      	beq.n	80045c2 <HAL_TIM_ConfigClockSource+0x332>
 80045ae:	f033 0202 	bics.w	r2, r3, #2
 80045b2:	d006      	beq.n	80045c2 <HAL_TIM_ConfigClockSource+0x332>
 80045b4:	2b0a      	cmp	r3, #10
 80045b6:	d004      	beq.n	80045c2 <HAL_TIM_ConfigClockSource+0x332>
 80045b8:	f241 11cd 	movw	r1, #4557	; 0x11cd
 80045bc:	4837      	ldr	r0, [pc, #220]	; (800469c <HAL_TIM_ConfigClockSource+0x40c>)
 80045be:	f003 ffad 	bl	800851c <assert_failed>
 80045c2:	68e3      	ldr	r3, [r4, #12]
 80045c4:	2b0f      	cmp	r3, #15
 80045c6:	d904      	bls.n	80045d2 <HAL_TIM_ConfigClockSource+0x342>
 80045c8:	f241 11ce 	movw	r1, #4558	; 0x11ce
 80045cc:	4833      	ldr	r0, [pc, #204]	; (800469c <HAL_TIM_ConfigClockSource+0x40c>)
 80045ce:	f003 ffa5 	bl	800851c <assert_failed>
 80045d2:	682b      	ldr	r3, [r5, #0]
 80045d4:	6861      	ldr	r1, [r4, #4]
 80045d6:	6a18      	ldr	r0, [r3, #32]
 80045d8:	68e6      	ldr	r6, [r4, #12]
 80045da:	6a1c      	ldr	r4, [r3, #32]
 80045dc:	f024 0401 	bic.w	r4, r4, #1
 80045e0:	621c      	str	r4, [r3, #32]
 80045e2:	699a      	ldr	r2, [r3, #24]
 80045e4:	f020 000a 	bic.w	r0, r0, #10
 80045e8:	f022 02f0 	bic.w	r2, r2, #240	; 0xf0
 80045ec:	ea42 1206 	orr.w	r2, r2, r6, lsl #4
 80045f0:	4301      	orrs	r1, r0
 80045f2:	619a      	str	r2, [r3, #24]
 80045f4:	6219      	str	r1, [r3, #32]
 80045f6:	689a      	ldr	r2, [r3, #8]
 80045f8:	f022 0270 	bic.w	r2, r2, #112	; 0x70
 80045fc:	f042 0257 	orr.w	r2, r2, #87	; 0x57
 8004600:	609a      	str	r2, [r3, #8]
 8004602:	e674      	b.n	80042ee <HAL_TIM_ConfigClockSource+0x5e>
 8004604:	4a24      	ldr	r2, [pc, #144]	; (8004698 <HAL_TIM_ConfigClockSource+0x408>)
 8004606:	4293      	cmp	r3, r2
 8004608:	d017      	beq.n	800463a <HAL_TIM_ConfigClockSource+0x3aa>
 800460a:	f1b3 4f80 	cmp.w	r3, #1073741824	; 0x40000000
 800460e:	d014      	beq.n	800463a <HAL_TIM_ConfigClockSource+0x3aa>
 8004610:	f5a2 427c 	sub.w	r2, r2, #64512	; 0xfc00
 8004614:	4293      	cmp	r3, r2
 8004616:	d010      	beq.n	800463a <HAL_TIM_ConfigClockSource+0x3aa>
 8004618:	f502 6280 	add.w	r2, r2, #1024	; 0x400
 800461c:	4293      	cmp	r3, r2
 800461e:	d00c      	beq.n	800463a <HAL_TIM_ConfigClockSource+0x3aa>
 8004620:	f502 6280 	add.w	r2, r2, #1024	; 0x400
 8004624:	4293      	cmp	r3, r2
 8004626:	d008      	beq.n	800463a <HAL_TIM_ConfigClockSource+0x3aa>
 8004628:	f502 329a 	add.w	r2, r2, #78848	; 0x13400
 800462c:	4293      	cmp	r3, r2
 800462e:	d004      	beq.n	800463a <HAL_TIM_ConfigClockSource+0x3aa>
 8004630:	f241 11ea 	movw	r1, #4586	; 0x11ea
 8004634:	4819      	ldr	r0, [pc, #100]	; (800469c <HAL_TIM_ConfigClockSource+0x40c>)
 8004636:	f003 ff71 	bl	800851c <assert_failed>
 800463a:	6863      	ldr	r3, [r4, #4]
 800463c:	f5b3 4f00 	cmp.w	r3, #32768	; 0x8000
 8004640:	d009      	beq.n	8004656 <HAL_TIM_ConfigClockSource+0x3c6>
 8004642:	f033 0202 	bics.w	r2, r3, #2
 8004646:	d006      	beq.n	8004656 <HAL_TIM_ConfigClockSource+0x3c6>
 8004648:	2b0a      	cmp	r3, #10
 800464a:	d004      	beq.n	8004656 <HAL_TIM_ConfigClockSource+0x3c6>
 800464c:	f241 11ed 	movw	r1, #4589	; 0x11ed
 8004650:	4812      	ldr	r0, [pc, #72]	; (800469c <HAL_TIM_ConfigClockSource+0x40c>)
 8004652:	f003 ff63 	bl	800851c <assert_failed>
 8004656:	68e3      	ldr	r3, [r4, #12]
 8004658:	2b0f      	cmp	r3, #15
 800465a:	d904      	bls.n	8004666 <HAL_TIM_ConfigClockSource+0x3d6>
 800465c:	f241 11ee 	movw	r1, #4590	; 0x11ee
 8004660:	480e      	ldr	r0, [pc, #56]	; (800469c <HAL_TIM_ConfigClockSource+0x40c>)
 8004662:	f003 ff5b 	bl	800851c <assert_failed>
 8004666:	682b      	ldr	r3, [r5, #0]
 8004668:	6861      	ldr	r1, [r4, #4]
 800466a:	6a18      	ldr	r0, [r3, #32]
 800466c:	68e6      	ldr	r6, [r4, #12]
 800466e:	6a1c      	ldr	r4, [r3, #32]
 8004670:	f024 0401 	bic.w	r4, r4, #1
 8004674:	621c      	str	r4, [r3, #32]
 8004676:	699a      	ldr	r2, [r3, #24]
 8004678:	f020 000a 	bic.w	r0, r0, #10
 800467c:	f022 02f0 	bic.w	r2, r2, #240	; 0xf0
 8004680:	ea42 1206 	orr.w	r2, r2, r6, lsl #4
 8004684:	4301      	orrs	r1, r0
 8004686:	619a      	str	r2, [r3, #24]
 8004688:	6219      	str	r1, [r3, #32]
 800468a:	689a      	ldr	r2, [r3, #8]
 800468c:	f022 0270 	bic.w	r2, r2, #112	; 0x70
 8004690:	f042 0247 	orr.w	r2, r2, #71	; 0x47
 8004694:	e7b4      	b.n	8004600 <HAL_TIM_ConfigClockSource+0x370>
 8004696:	bf00      	nop
 8004698:	40010000 	.word	0x40010000
 800469c:	0800b34d 	.word	0x0800b34d

080046a0 <TIM_CCxChannelCmd>:
 80046a0:	4b1f      	ldr	r3, [pc, #124]	; (8004720 <TIM_CCxChannelCmd+0x80>)
 80046a2:	4298      	cmp	r0, r3
 80046a4:	b570      	push	{r4, r5, r6, lr}
 80046a6:	4604      	mov	r4, r0
 80046a8:	460d      	mov	r5, r1
 80046aa:	4616      	mov	r6, r2
 80046ac:	d01f      	beq.n	80046ee <TIM_CCxChannelCmd+0x4e>
 80046ae:	f1b0 4f80 	cmp.w	r0, #1073741824	; 0x40000000
 80046b2:	d01c      	beq.n	80046ee <TIM_CCxChannelCmd+0x4e>
 80046b4:	f5a3 437c 	sub.w	r3, r3, #64512	; 0xfc00
 80046b8:	4298      	cmp	r0, r3
 80046ba:	d018      	beq.n	80046ee <TIM_CCxChannelCmd+0x4e>
 80046bc:	f503 6380 	add.w	r3, r3, #1024	; 0x400
 80046c0:	4298      	cmp	r0, r3
 80046c2:	d014      	beq.n	80046ee <TIM_CCxChannelCmd+0x4e>
 80046c4:	f503 6380 	add.w	r3, r3, #1024	; 0x400
 80046c8:	4298      	cmp	r0, r3
 80046ca:	d010      	beq.n	80046ee <TIM_CCxChannelCmd+0x4e>
 80046cc:	f503 339a 	add.w	r3, r3, #78848	; 0x13400
 80046d0:	4298      	cmp	r0, r3
 80046d2:	d00c      	beq.n	80046ee <TIM_CCxChannelCmd+0x4e>
 80046d4:	f503 6380 	add.w	r3, r3, #1024	; 0x400
 80046d8:	4298      	cmp	r0, r3
 80046da:	d008      	beq.n	80046ee <TIM_CCxChannelCmd+0x4e>
 80046dc:	f503 6380 	add.w	r3, r3, #1024	; 0x400
 80046e0:	4298      	cmp	r0, r3
 80046e2:	d004      	beq.n	80046ee <TIM_CCxChannelCmd+0x4e>
 80046e4:	f641 11cc 	movw	r1, #6604	; 0x19cc
 80046e8:	480e      	ldr	r0, [pc, #56]	; (8004724 <TIM_CCxChannelCmd+0x84>)
 80046ea:	f003 ff17 	bl	800851c <assert_failed>
 80046ee:	f035 030c 	bics.w	r3, r5, #12
 80046f2:	d006      	beq.n	8004702 <TIM_CCxChannelCmd+0x62>
 80046f4:	2d3c      	cmp	r5, #60	; 0x3c
 80046f6:	d004      	beq.n	8004702 <TIM_CCxChannelCmd+0x62>
 80046f8:	f641 11cd 	movw	r1, #6605	; 0x19cd
 80046fc:	4809      	ldr	r0, [pc, #36]	; (8004724 <TIM_CCxChannelCmd+0x84>)
 80046fe:	f003 ff0d 	bl	800851c <assert_failed>
 8004702:	6a23      	ldr	r3, [r4, #32]
 8004704:	f005 051f 	and.w	r5, r5, #31
 8004708:	2201      	movs	r2, #1
 800470a:	40aa      	lsls	r2, r5
 800470c:	ea23 0302 	bic.w	r3, r3, r2
 8004710:	6223      	str	r3, [r4, #32]
 8004712:	6a23      	ldr	r3, [r4, #32]
 8004714:	fa06 f505 	lsl.w	r5, r6, r5
 8004718:	431d      	orrs	r5, r3
 800471a:	6225      	str	r5, [r4, #32]
 800471c:	bd70      	pop	{r4, r5, r6, pc}
 800471e:	bf00      	nop
 8004720:	40010000 	.word	0x40010000
 8004724:	0800b34d 	.word	0x0800b34d

08004728 <HAL_TIM_PWM_Start>:
 8004728:	b538      	push	{r3, r4, r5, lr}
 800472a:	4a22      	ldr	r2, [pc, #136]	; (80047b4 <HAL_TIM_PWM_Start+0x8c>)
 800472c:	6803      	ldr	r3, [r0, #0]
 800472e:	4293      	cmp	r3, r2
 8004730:	4605      	mov	r5, r0
 8004732:	460c      	mov	r4, r1
 8004734:	d00e      	beq.n	8004754 <HAL_TIM_PWM_Start+0x2c>
 8004736:	f1b3 4f80 	cmp.w	r3, #1073741824	; 0x40000000
 800473a:	d00b      	beq.n	8004754 <HAL_TIM_PWM_Start+0x2c>
 800473c:	f5a2 427c 	sub.w	r2, r2, #64512	; 0xfc00
 8004740:	4293      	cmp	r3, r2
 8004742:	d007      	beq.n	8004754 <HAL_TIM_PWM_Start+0x2c>
 8004744:	f502 6280 	add.w	r2, r2, #1024	; 0x400
 8004748:	4293      	cmp	r3, r2
 800474a:	d003      	beq.n	8004754 <HAL_TIM_PWM_Start+0x2c>
 800474c:	f502 6280 	add.w	r2, r2, #1024	; 0x400
 8004750:	4293      	cmp	r3, r2
 8004752:	d102      	bne.n	800475a <HAL_TIM_PWM_Start+0x32>
 8004754:	f034 020c 	bics.w	r2, r4, #12
 8004758:	d005      	beq.n	8004766 <HAL_TIM_PWM_Start+0x3e>
 800475a:	4a17      	ldr	r2, [pc, #92]	; (80047b8 <HAL_TIM_PWM_Start+0x90>)
 800475c:	4293      	cmp	r3, r2
 800475e:	d11a      	bne.n	8004796 <HAL_TIM_PWM_Start+0x6e>
 8004760:	f034 0304 	bics.w	r3, r4, #4
 8004764:	d11c      	bne.n	80047a0 <HAL_TIM_PWM_Start+0x78>
 8004766:	6828      	ldr	r0, [r5, #0]
 8004768:	2201      	movs	r2, #1
 800476a:	4621      	mov	r1, r4
 800476c:	f7ff ff98 	bl	80046a0 <TIM_CCxChannelCmd>
 8004770:	682b      	ldr	r3, [r5, #0]
 8004772:	4a10      	ldr	r2, [pc, #64]	; (80047b4 <HAL_TIM_PWM_Start+0x8c>)
 8004774:	4293      	cmp	r3, r2
 8004776:	bf02      	ittt	eq
 8004778:	6c5a      	ldreq	r2, [r3, #68]	; 0x44
 800477a:	f442 4200 	orreq.w	r2, r2, #32768	; 0x8000
 800477e:	645a      	streq	r2, [r3, #68]	; 0x44
 8004780:	689a      	ldr	r2, [r3, #8]
 8004782:	f002 0207 	and.w	r2, r2, #7
 8004786:	2a06      	cmp	r2, #6
 8004788:	bf1e      	ittt	ne
 800478a:	681a      	ldrne	r2, [r3, #0]
 800478c:	f042 0201 	orrne.w	r2, r2, #1
 8004790:	601a      	strne	r2, [r3, #0]
 8004792:	2000      	movs	r0, #0
 8004794:	bd38      	pop	{r3, r4, r5, pc}
 8004796:	4a09      	ldr	r2, [pc, #36]	; (80047bc <HAL_TIM_PWM_Start+0x94>)
 8004798:	4293      	cmp	r3, r2
 800479a:	d107      	bne.n	80047ac <HAL_TIM_PWM_Start+0x84>
 800479c:	2c00      	cmp	r4, #0
 800479e:	d0e2      	beq.n	8004766 <HAL_TIM_PWM_Start+0x3e>
 80047a0:	f240 5113 	movw	r1, #1299	; 0x513
 80047a4:	4806      	ldr	r0, [pc, #24]	; (80047c0 <HAL_TIM_PWM_Start+0x98>)
 80047a6:	f003 feb9 	bl	800851c <assert_failed>
 80047aa:	e7dc      	b.n	8004766 <HAL_TIM_PWM_Start+0x3e>
 80047ac:	4a05      	ldr	r2, [pc, #20]	; (80047c4 <HAL_TIM_PWM_Start+0x9c>)
 80047ae:	4293      	cmp	r3, r2
 80047b0:	d0f4      	beq.n	800479c <HAL_TIM_PWM_Start+0x74>
 80047b2:	e7f5      	b.n	80047a0 <HAL_TIM_PWM_Start+0x78>
 80047b4:	40010000 	.word	0x40010000
 80047b8:	40014000 	.word	0x40014000
 80047bc:	40014400 	.word	0x40014400
 80047c0:	0800b34d 	.word	0x0800b34d
 80047c4:	40014800 	.word	0x40014800

080047c8 <HAL_TIM_PWM_Stop>:
 80047c8:	b538      	push	{r3, r4, r5, lr}
 80047ca:	4a2b      	ldr	r2, [pc, #172]	; (8004878 <HAL_TIM_PWM_Stop+0xb0>)
 80047cc:	6803      	ldr	r3, [r0, #0]
 80047ce:	4293      	cmp	r3, r2
 80047d0:	4604      	mov	r4, r0
 80047d2:	460d      	mov	r5, r1
 80047d4:	d00e      	beq.n	80047f4 <HAL_TIM_PWM_Stop+0x2c>
 80047d6:	f1b3 4f80 	cmp.w	r3, #1073741824	; 0x40000000
 80047da:	d00b      	beq.n	80047f4 <HAL_TIM_PWM_Stop+0x2c>
 80047dc:	f5a2 427c 	sub.w	r2, r2, #64512	; 0xfc00
 80047e0:	4293      	cmp	r3, r2
 80047e2:	d007      	beq.n	80047f4 <HAL_TIM_PWM_Stop+0x2c>
 80047e4:	f502 6280 	add.w	r2, r2, #1024	; 0x400
 80047e8:	4293      	cmp	r3, r2
 80047ea:	d003      	beq.n	80047f4 <HAL_TIM_PWM_Stop+0x2c>
 80047ec:	f502 6280 	add.w	r2, r2, #1024	; 0x400
 80047f0:	4293      	cmp	r3, r2
 80047f2:	d102      	bne.n	80047fa <HAL_TIM_PWM_Stop+0x32>
 80047f4:	f035 020c 	bics.w	r2, r5, #12
 80047f8:	d005      	beq.n	8004806 <HAL_TIM_PWM_Stop+0x3e>
 80047fa:	4a20      	ldr	r2, [pc, #128]	; (800487c <HAL_TIM_PWM_Stop+0xb4>)
 80047fc:	4293      	cmp	r3, r2
 80047fe:	d12c      	bne.n	800485a <HAL_TIM_PWM_Stop+0x92>
 8004800:	f035 0304 	bics.w	r3, r5, #4
 8004804:	d12e      	bne.n	8004864 <HAL_TIM_PWM_Stop+0x9c>
 8004806:	2200      	movs	r2, #0
 8004808:	4629      	mov	r1, r5
 800480a:	6820      	ldr	r0, [r4, #0]
 800480c:	f7ff ff48 	bl	80046a0 <TIM_CCxChannelCmd>
 8004810:	6823      	ldr	r3, [r4, #0]
 8004812:	4a19      	ldr	r2, [pc, #100]	; (8004878 <HAL_TIM_PWM_Stop+0xb0>)
 8004814:	4293      	cmp	r3, r2
 8004816:	d10d      	bne.n	8004834 <HAL_TIM_PWM_Stop+0x6c>
 8004818:	6a19      	ldr	r1, [r3, #32]
 800481a:	f241 1211 	movw	r2, #4369	; 0x1111
 800481e:	4211      	tst	r1, r2
 8004820:	d108      	bne.n	8004834 <HAL_TIM_PWM_Stop+0x6c>
 8004822:	6a19      	ldr	r1, [r3, #32]
 8004824:	f240 4244 	movw	r2, #1092	; 0x444
 8004828:	4211      	tst	r1, r2
 800482a:	bf02      	ittt	eq
 800482c:	6c5a      	ldreq	r2, [r3, #68]	; 0x44
 800482e:	f422 4200 	biceq.w	r2, r2, #32768	; 0x8000
 8004832:	645a      	streq	r2, [r3, #68]	; 0x44
 8004834:	6a19      	ldr	r1, [r3, #32]
 8004836:	f241 1211 	movw	r2, #4369	; 0x1111
 800483a:	4211      	tst	r1, r2
 800483c:	d108      	bne.n	8004850 <HAL_TIM_PWM_Stop+0x88>
 800483e:	6a19      	ldr	r1, [r3, #32]
 8004840:	f240 4244 	movw	r2, #1092	; 0x444
 8004844:	4211      	tst	r1, r2
 8004846:	bf02      	ittt	eq
 8004848:	681a      	ldreq	r2, [r3, #0]
 800484a:	f022 0201 	biceq.w	r2, r2, #1
 800484e:	601a      	streq	r2, [r3, #0]
 8004850:	2301      	movs	r3, #1
 8004852:	f884 303d 	strb.w	r3, [r4, #61]	; 0x3d
 8004856:	2000      	movs	r0, #0
 8004858:	bd38      	pop	{r3, r4, r5, pc}
 800485a:	4a09      	ldr	r2, [pc, #36]	; (8004880 <HAL_TIM_PWM_Stop+0xb8>)
 800485c:	4293      	cmp	r3, r2
 800485e:	d107      	bne.n	8004870 <HAL_TIM_PWM_Stop+0xa8>
 8004860:	2d00      	cmp	r5, #0
 8004862:	d0d0      	beq.n	8004806 <HAL_TIM_PWM_Stop+0x3e>
 8004864:	f240 5137 	movw	r1, #1335	; 0x537
 8004868:	4806      	ldr	r0, [pc, #24]	; (8004884 <HAL_TIM_PWM_Stop+0xbc>)
 800486a:	f003 fe57 	bl	800851c <assert_failed>
 800486e:	e7ca      	b.n	8004806 <HAL_TIM_PWM_Stop+0x3e>
 8004870:	4a05      	ldr	r2, [pc, #20]	; (8004888 <HAL_TIM_PWM_Stop+0xc0>)
 8004872:	4293      	cmp	r3, r2
 8004874:	d0f4      	beq.n	8004860 <HAL_TIM_PWM_Stop+0x98>
 8004876:	e7f5      	b.n	8004864 <HAL_TIM_PWM_Stop+0x9c>
 8004878:	40010000 	.word	0x40010000
 800487c:	40014000 	.word	0x40014000
 8004880:	40014400 	.word	0x40014400
 8004884:	0800b34d 	.word	0x0800b34d
 8004888:	40014800 	.word	0x40014800

0800488c <HAL_TIMEx_MasterConfigSynchronization>:
 800488c:	b538      	push	{r3, r4, r5, lr}
 800488e:	4a31      	ldr	r2, [pc, #196]	; (8004954 <HAL_TIMEx_MasterConfigSynchronization+0xc8>)
 8004890:	6803      	ldr	r3, [r0, #0]
 8004892:	4293      	cmp	r3, r2
 8004894:	4604      	mov	r4, r0
 8004896:	460d      	mov	r5, r1
 8004898:	d013      	beq.n	80048c2 <HAL_TIMEx_MasterConfigSynchronization+0x36>
 800489a:	f1b3 4f80 	cmp.w	r3, #1073741824	; 0x40000000
 800489e:	d010      	beq.n	80048c2 <HAL_TIMEx_MasterConfigSynchronization+0x36>
 80048a0:	f5a2 427c 	sub.w	r2, r2, #64512	; 0xfc00
 80048a4:	4293      	cmp	r3, r2
 80048a6:	d00c      	beq.n	80048c2 <HAL_TIMEx_MasterConfigSynchronization+0x36>
 80048a8:	f502 6280 	add.w	r2, r2, #1024	; 0x400
 80048ac:	4293      	cmp	r3, r2
 80048ae:	d008      	beq.n	80048c2 <HAL_TIMEx_MasterConfigSynchronization+0x36>
 80048b0:	f502 6280 	add.w	r2, r2, #1024	; 0x400
 80048b4:	4293      	cmp	r3, r2
 80048b6:	d004      	beq.n	80048c2 <HAL_TIMEx_MasterConfigSynchronization+0x36>
 80048b8:	f240 6164 	movw	r1, #1636	; 0x664
 80048bc:	4826      	ldr	r0, [pc, #152]	; (8004958 <HAL_TIMEx_MasterConfigSynchronization+0xcc>)
 80048be:	f003 fe2d 	bl	800851c <assert_failed>
 80048c2:	682b      	ldr	r3, [r5, #0]
 80048c4:	f033 0330 	bics.w	r3, r3, #48	; 0x30
 80048c8:	d006      	beq.n	80048d8 <HAL_TIMEx_MasterConfigSynchronization+0x4c>
 80048ca:	2b40      	cmp	r3, #64	; 0x40
 80048cc:	d004      	beq.n	80048d8 <HAL_TIMEx_MasterConfigSynchronization+0x4c>
 80048ce:	f240 6165 	movw	r1, #1637	; 0x665
 80048d2:	4821      	ldr	r0, [pc, #132]	; (8004958 <HAL_TIMEx_MasterConfigSynchronization+0xcc>)
 80048d4:	f003 fe22 	bl	800851c <assert_failed>
 80048d8:	686b      	ldr	r3, [r5, #4]
 80048da:	f033 0380 	bics.w	r3, r3, #128	; 0x80
 80048de:	d004      	beq.n	80048ea <HAL_TIMEx_MasterConfigSynchronization+0x5e>
 80048e0:	f240 6166 	movw	r1, #1638	; 0x666
 80048e4:	481c      	ldr	r0, [pc, #112]	; (8004958 <HAL_TIMEx_MasterConfigSynchronization+0xcc>)
 80048e6:	f003 fe19 	bl	800851c <assert_failed>
 80048ea:	f894 303c 	ldrb.w	r3, [r4, #60]	; 0x3c
 80048ee:	2b01      	cmp	r3, #1
 80048f0:	f04f 0002 	mov.w	r0, #2
 80048f4:	d02d      	beq.n	8004952 <HAL_TIMEx_MasterConfigSynchronization+0xc6>
 80048f6:	2301      	movs	r3, #1
 80048f8:	f884 303c 	strb.w	r3, [r4, #60]	; 0x3c
 80048fc:	6823      	ldr	r3, [r4, #0]
 80048fe:	f884 003d 	strb.w	r0, [r4, #61]	; 0x3d
 8004902:	6859      	ldr	r1, [r3, #4]
 8004904:	6828      	ldr	r0, [r5, #0]
 8004906:	689a      	ldr	r2, [r3, #8]
 8004908:	f021 0170 	bic.w	r1, r1, #112	; 0x70
 800490c:	4301      	orrs	r1, r0
 800490e:	6059      	str	r1, [r3, #4]
 8004910:	4910      	ldr	r1, [pc, #64]	; (8004954 <HAL_TIMEx_MasterConfigSynchronization+0xc8>)
 8004912:	428b      	cmp	r3, r1
 8004914:	d012      	beq.n	800493c <HAL_TIMEx_MasterConfigSynchronization+0xb0>
 8004916:	f1b3 4f80 	cmp.w	r3, #1073741824	; 0x40000000
 800491a:	d00f      	beq.n	800493c <HAL_TIMEx_MasterConfigSynchronization+0xb0>
 800491c:	f5a1 417c 	sub.w	r1, r1, #64512	; 0xfc00
 8004920:	428b      	cmp	r3, r1
 8004922:	d00b      	beq.n	800493c <HAL_TIMEx_MasterConfigSynchronization+0xb0>
 8004924:	f501 6180 	add.w	r1, r1, #1024	; 0x400
 8004928:	428b      	cmp	r3, r1
 800492a:	d007      	beq.n	800493c <HAL_TIMEx_MasterConfigSynchronization+0xb0>
 800492c:	f501 6180 	add.w	r1, r1, #1024	; 0x400
 8004930:	428b      	cmp	r3, r1
 8004932:	d003      	beq.n	800493c <HAL_TIMEx_MasterConfigSynchronization+0xb0>
 8004934:	f501 319a 	add.w	r1, r1, #78848	; 0x13400
 8004938:	428b      	cmp	r3, r1
 800493a:	d104      	bne.n	8004946 <HAL_TIMEx_MasterConfigSynchronization+0xba>
 800493c:	6869      	ldr	r1, [r5, #4]
 800493e:	f022 0280 	bic.w	r2, r2, #128	; 0x80
 8004942:	430a      	orrs	r2, r1
 8004944:	609a      	str	r2, [r3, #8]
 8004946:	2301      	movs	r3, #1
 8004948:	2000      	movs	r0, #0
 800494a:	f884 303d 	strb.w	r3, [r4, #61]	; 0x3d
 800494e:	f884 003c 	strb.w	r0, [r4, #60]	; 0x3c
 8004952:	bd38      	pop	{r3, r4, r5, pc}
 8004954:	40010000 	.word	0x40010000
 8004958:	0800b385 	.word	0x0800b385

0800495c <HAL_TIMEx_CommutCallback>:
 800495c:	4770      	bx	lr

0800495e <HAL_TIMEx_BreakCallback>:
 800495e:	4770      	bx	lr

08004960 <UART_EndRxTransfer>:
 8004960:	6803      	ldr	r3, [r0, #0]
 8004962:	68da      	ldr	r2, [r3, #12]
 8004964:	f422 7290 	bic.w	r2, r2, #288	; 0x120
 8004968:	60da      	str	r2, [r3, #12]
 800496a:	695a      	ldr	r2, [r3, #20]
 800496c:	f022 0201 	bic.w	r2, r2, #1
 8004970:	615a      	str	r2, [r3, #20]
 8004972:	2320      	movs	r3, #32
 8004974:	f880 303a 	strb.w	r3, [r0, #58]	; 0x3a
 8004978:	4770      	bx	lr
	...

0800497c <UART_SetConfig>:
 800497c:	6842      	ldr	r2, [r0, #4]
 800497e:	4b49      	ldr	r3, [pc, #292]	; (8004aa4 <UART_SetConfig+0x128>)
 8004980:	429a      	cmp	r2, r3
 8004982:	b570      	push	{r4, r5, r6, lr}
 8004984:	4604      	mov	r4, r0
 8004986:	d904      	bls.n	8004992 <UART_SetConfig+0x16>
 8004988:	f640 31fb 	movw	r1, #3067	; 0xbfb
 800498c:	4846      	ldr	r0, [pc, #280]	; (8004aa8 <UART_SetConfig+0x12c>)
 800498e:	f003 fdc5 	bl	800851c <assert_failed>
 8004992:	68e3      	ldr	r3, [r4, #12]
 8004994:	f433 5300 	bics.w	r3, r3, #8192	; 0x2000
 8004998:	d004      	beq.n	80049a4 <UART_SetConfig+0x28>
 800499a:	f640 31fc 	movw	r1, #3068	; 0xbfc
 800499e:	4842      	ldr	r0, [pc, #264]	; (8004aa8 <UART_SetConfig+0x12c>)
 80049a0:	f003 fdbc 	bl	800851c <assert_failed>
 80049a4:	6923      	ldr	r3, [r4, #16]
 80049a6:	f433 6280 	bics.w	r2, r3, #1024	; 0x400
 80049aa:	d007      	beq.n	80049bc <UART_SetConfig+0x40>
 80049ac:	f5b3 6fc0 	cmp.w	r3, #1536	; 0x600
 80049b0:	d004      	beq.n	80049bc <UART_SetConfig+0x40>
 80049b2:	f640 31fd 	movw	r1, #3069	; 0xbfd
 80049b6:	483c      	ldr	r0, [pc, #240]	; (8004aa8 <UART_SetConfig+0x12c>)
 80049b8:	f003 fdb0 	bl	800851c <assert_failed>
 80049bc:	6963      	ldr	r3, [r4, #20]
 80049be:	f64f 72f3 	movw	r2, #65523	; 0xfff3
 80049c2:	4213      	tst	r3, r2
 80049c4:	d100      	bne.n	80049c8 <UART_SetConfig+0x4c>
 80049c6:	b923      	cbnz	r3, 80049d2 <UART_SetConfig+0x56>
 80049c8:	f640 31fe 	movw	r1, #3070	; 0xbfe
 80049cc:	4836      	ldr	r0, [pc, #216]	; (8004aa8 <UART_SetConfig+0x12c>)
 80049ce:	f003 fda5 	bl	800851c <assert_failed>
 80049d2:	6823      	ldr	r3, [r4, #0]
 80049d4:	68e1      	ldr	r1, [r4, #12]
 80049d6:	691a      	ldr	r2, [r3, #16]
 80049d8:	6925      	ldr	r5, [r4, #16]
 80049da:	69e0      	ldr	r0, [r4, #28]
 80049dc:	f422 5240 	bic.w	r2, r2, #12288	; 0x3000
 80049e0:	430a      	orrs	r2, r1
 80049e2:	611a      	str	r2, [r3, #16]
 80049e4:	68a2      	ldr	r2, [r4, #8]
 80049e6:	68d9      	ldr	r1, [r3, #12]
 80049e8:	432a      	orrs	r2, r5
 80049ea:	6965      	ldr	r5, [r4, #20]
 80049ec:	f421 4116 	bic.w	r1, r1, #38400	; 0x9600
 80049f0:	432a      	orrs	r2, r5
 80049f2:	f021 010c 	bic.w	r1, r1, #12
 80049f6:	4302      	orrs	r2, r0
 80049f8:	430a      	orrs	r2, r1
 80049fa:	60da      	str	r2, [r3, #12]
 80049fc:	695a      	ldr	r2, [r3, #20]
 80049fe:	69a1      	ldr	r1, [r4, #24]
 8004a00:	f422 7240 	bic.w	r2, r2, #768	; 0x300
 8004a04:	430a      	orrs	r2, r1
 8004a06:	f5b0 4f00 	cmp.w	r0, #32768	; 0x8000
 8004a0a:	615a      	str	r2, [r3, #20]
 8004a0c:	4a27      	ldr	r2, [pc, #156]	; (8004aac <UART_SetConfig+0x130>)
 8004a0e:	d129      	bne.n	8004a64 <UART_SetConfig+0xe8>
 8004a10:	4293      	cmp	r3, r2
 8004a12:	d003      	beq.n	8004a1c <UART_SetConfig+0xa0>
 8004a14:	f502 6280 	add.w	r2, r2, #1024	; 0x400
 8004a18:	4293      	cmp	r3, r2
 8004a1a:	d120      	bne.n	8004a5e <UART_SetConfig+0xe2>
 8004a1c:	f7fe f9c0 	bl	8002da0 <HAL_RCC_GetPCLK2Freq>
 8004a20:	6862      	ldr	r2, [r4, #4]
 8004a22:	2600      	movs	r6, #0
 8004a24:	1892      	adds	r2, r2, r2
 8004a26:	f04f 0119 	mov.w	r1, #25
 8004a2a:	eb46 0306 	adc.w	r3, r6, r6
 8004a2e:	fba0 0101 	umull	r0, r1, r0, r1
 8004a32:	f7fc f8c1 	bl	8000bb8 <__aeabi_uldivmod>
 8004a36:	2164      	movs	r1, #100	; 0x64
 8004a38:	fbb0 f5f1 	udiv	r5, r0, r1
 8004a3c:	fb01 0315 	mls	r3, r1, r5, r0
 8004a40:	00db      	lsls	r3, r3, #3
 8004a42:	3332      	adds	r3, #50	; 0x32
 8004a44:	fbb3 f3f1 	udiv	r3, r3, r1
 8004a48:	f003 0207 	and.w	r2, r3, #7
 8004a4c:	005b      	lsls	r3, r3, #1
 8004a4e:	6821      	ldr	r1, [r4, #0]
 8004a50:	eb02 1205 	add.w	r2, r2, r5, lsl #4
 8004a54:	f403 73f8 	and.w	r3, r3, #496	; 0x1f0
 8004a58:	4413      	add	r3, r2
 8004a5a:	608b      	str	r3, [r1, #8]
 8004a5c:	bd70      	pop	{r4, r5, r6, pc}
 8004a5e:	f7fe f98f 	bl	8002d80 <HAL_RCC_GetPCLK1Freq>
 8004a62:	e7dd      	b.n	8004a20 <UART_SetConfig+0xa4>
 8004a64:	4293      	cmp	r3, r2
 8004a66:	d002      	beq.n	8004a6e <UART_SetConfig+0xf2>
 8004a68:	4a11      	ldr	r2, [pc, #68]	; (8004ab0 <UART_SetConfig+0x134>)
 8004a6a:	4293      	cmp	r3, r2
 8004a6c:	d117      	bne.n	8004a9e <UART_SetConfig+0x122>
 8004a6e:	f7fe f997 	bl	8002da0 <HAL_RCC_GetPCLK2Freq>
 8004a72:	6863      	ldr	r3, [r4, #4]
 8004a74:	2119      	movs	r1, #25
 8004a76:	009a      	lsls	r2, r3, #2
 8004a78:	fba0 0101 	umull	r0, r1, r0, r1
 8004a7c:	0f9b      	lsrs	r3, r3, #30
 8004a7e:	f7fc f89b 	bl	8000bb8 <__aeabi_uldivmod>
 8004a82:	2264      	movs	r2, #100	; 0x64
 8004a84:	fbb0 f1f2 	udiv	r1, r0, r2
 8004a88:	fb02 0311 	mls	r3, r2, r1, r0
 8004a8c:	6824      	ldr	r4, [r4, #0]
 8004a8e:	011b      	lsls	r3, r3, #4
 8004a90:	3332      	adds	r3, #50	; 0x32
 8004a92:	fbb3 f3f2 	udiv	r3, r3, r2
 8004a96:	eb03 1301 	add.w	r3, r3, r1, lsl #4
 8004a9a:	60a3      	str	r3, [r4, #8]
 8004a9c:	e7de      	b.n	8004a5c <UART_SetConfig+0xe0>
 8004a9e:	f7fe f96f 	bl	8002d80 <HAL_RCC_GetPCLK1Freq>
 8004aa2:	e7e6      	b.n	8004a72 <UART_SetConfig+0xf6>
 8004aa4:	00a037a0 	.word	0x00a037a0
 8004aa8:	0800b3c0 	.word	0x0800b3c0
 8004aac:	40011000 	.word	0x40011000
 8004ab0:	40011400 	.word	0x40011400

08004ab4 <HAL_UART_Init>:
 8004ab4:	b510      	push	{r4, lr}
 8004ab6:	4604      	mov	r4, r0
 8004ab8:	2800      	cmp	r0, #0
 8004aba:	d064      	beq.n	8004b86 <HAL_UART_Init+0xd2>
 8004abc:	6981      	ldr	r1, [r0, #24]
 8004abe:	6803      	ldr	r3, [r0, #0]
 8004ac0:	4a32      	ldr	r2, [pc, #200]	; (8004b8c <HAL_UART_Init+0xd8>)
 8004ac2:	2900      	cmp	r1, #0
 8004ac4:	d053      	beq.n	8004b6e <HAL_UART_Init+0xba>
 8004ac6:	4293      	cmp	r3, r2
 8004ac8:	d00c      	beq.n	8004ae4 <HAL_UART_Init+0x30>
 8004aca:	f5a2 424c 	sub.w	r2, r2, #52224	; 0xcc00
 8004ace:	4293      	cmp	r3, r2
 8004ad0:	d008      	beq.n	8004ae4 <HAL_UART_Init+0x30>
 8004ad2:	f502 4250 	add.w	r2, r2, #53248	; 0xd000
 8004ad6:	4293      	cmp	r3, r2
 8004ad8:	d004      	beq.n	8004ae4 <HAL_UART_Init+0x30>
 8004ada:	f240 114b 	movw	r1, #331	; 0x14b
 8004ade:	482c      	ldr	r0, [pc, #176]	; (8004b90 <HAL_UART_Init+0xdc>)
 8004ae0:	f003 fd1c 	bl	800851c <assert_failed>
 8004ae4:	69a3      	ldr	r3, [r4, #24]
 8004ae6:	f433 7340 	bics.w	r3, r3, #768	; 0x300
 8004aea:	d004      	beq.n	8004af6 <HAL_UART_Init+0x42>
 8004aec:	f44f 71a6 	mov.w	r1, #332	; 0x14c
 8004af0:	4827      	ldr	r0, [pc, #156]	; (8004b90 <HAL_UART_Init+0xdc>)
 8004af2:	f003 fd13 	bl	800851c <assert_failed>
 8004af6:	68a3      	ldr	r3, [r4, #8]
 8004af8:	f433 5380 	bics.w	r3, r3, #4096	; 0x1000
 8004afc:	d004      	beq.n	8004b08 <HAL_UART_Init+0x54>
 8004afe:	f44f 71a9 	mov.w	r1, #338	; 0x152
 8004b02:	4823      	ldr	r0, [pc, #140]	; (8004b90 <HAL_UART_Init+0xdc>)
 8004b04:	f003 fd0a 	bl	800851c <assert_failed>
 8004b08:	69e3      	ldr	r3, [r4, #28]
 8004b0a:	f433 4300 	bics.w	r3, r3, #32768	; 0x8000
 8004b0e:	d004      	beq.n	8004b1a <HAL_UART_Init+0x66>
 8004b10:	f240 1153 	movw	r1, #339	; 0x153
 8004b14:	481e      	ldr	r0, [pc, #120]	; (8004b90 <HAL_UART_Init+0xdc>)
 8004b16:	f003 fd01 	bl	800851c <assert_failed>
 8004b1a:	f894 3039 	ldrb.w	r3, [r4, #57]	; 0x39
 8004b1e:	f003 02ff 	and.w	r2, r3, #255	; 0xff
 8004b22:	b923      	cbnz	r3, 8004b2e <HAL_UART_Init+0x7a>
 8004b24:	f884 2038 	strb.w	r2, [r4, #56]	; 0x38
 8004b28:	4620      	mov	r0, r4
 8004b2a:	f004 f80d 	bl	8008b48 <HAL_UART_MspInit>
 8004b2e:	6822      	ldr	r2, [r4, #0]
 8004b30:	2324      	movs	r3, #36	; 0x24
 8004b32:	f884 3039 	strb.w	r3, [r4, #57]	; 0x39
 8004b36:	68d3      	ldr	r3, [r2, #12]
 8004b38:	f423 5300 	bic.w	r3, r3, #8192	; 0x2000
 8004b3c:	60d3      	str	r3, [r2, #12]
 8004b3e:	4620      	mov	r0, r4
 8004b40:	f7ff ff1c 	bl	800497c <UART_SetConfig>
 8004b44:	6823      	ldr	r3, [r4, #0]
 8004b46:	691a      	ldr	r2, [r3, #16]
 8004b48:	f422 4290 	bic.w	r2, r2, #18432	; 0x4800
 8004b4c:	611a      	str	r2, [r3, #16]
 8004b4e:	695a      	ldr	r2, [r3, #20]
 8004b50:	f022 022a 	bic.w	r2, r2, #42	; 0x2a
 8004b54:	615a      	str	r2, [r3, #20]
 8004b56:	68da      	ldr	r2, [r3, #12]
 8004b58:	f442 5200 	orr.w	r2, r2, #8192	; 0x2000
 8004b5c:	60da      	str	r2, [r3, #12]
 8004b5e:	2000      	movs	r0, #0
 8004b60:	2320      	movs	r3, #32
 8004b62:	63e0      	str	r0, [r4, #60]	; 0x3c
 8004b64:	f884 3039 	strb.w	r3, [r4, #57]	; 0x39
 8004b68:	f884 303a 	strb.w	r3, [r4, #58]	; 0x3a
 8004b6c:	bd10      	pop	{r4, pc}
 8004b6e:	4293      	cmp	r3, r2
 8004b70:	d0c1      	beq.n	8004af6 <HAL_UART_Init+0x42>
 8004b72:	4a08      	ldr	r2, [pc, #32]	; (8004b94 <HAL_UART_Init+0xe0>)
 8004b74:	4293      	cmp	r3, r2
 8004b76:	d0be      	beq.n	8004af6 <HAL_UART_Init+0x42>
 8004b78:	f502 4250 	add.w	r2, r2, #53248	; 0xd000
 8004b7c:	4293      	cmp	r3, r2
 8004b7e:	d0ba      	beq.n	8004af6 <HAL_UART_Init+0x42>
 8004b80:	f44f 71a8 	mov.w	r1, #336	; 0x150
 8004b84:	e7b4      	b.n	8004af0 <HAL_UART_Init+0x3c>
 8004b86:	2001      	movs	r0, #1
 8004b88:	e7f0      	b.n	8004b6c <HAL_UART_Init+0xb8>
 8004b8a:	bf00      	nop
 8004b8c:	40011000 	.word	0x40011000
 8004b90:	0800b3c0 	.word	0x0800b3c0
 8004b94:	40004400 	.word	0x40004400

08004b98 <HAL_UART_Transmit_DMA>:
 8004b98:	b538      	push	{r3, r4, r5, lr}
 8004b9a:	4604      	mov	r4, r0
 8004b9c:	4613      	mov	r3, r2
 8004b9e:	f894 2039 	ldrb.w	r2, [r4, #57]	; 0x39
 8004ba2:	2a20      	cmp	r2, #32
 8004ba4:	d12a      	bne.n	8004bfc <HAL_UART_Transmit_DMA+0x64>
 8004ba6:	b339      	cbz	r1, 8004bf8 <HAL_UART_Transmit_DMA+0x60>
 8004ba8:	b333      	cbz	r3, 8004bf8 <HAL_UART_Transmit_DMA+0x60>
 8004baa:	f894 2038 	ldrb.w	r2, [r4, #56]	; 0x38
 8004bae:	2a01      	cmp	r2, #1
 8004bb0:	d024      	beq.n	8004bfc <HAL_UART_Transmit_DMA+0x64>
 8004bb2:	2201      	movs	r2, #1
 8004bb4:	f884 2038 	strb.w	r2, [r4, #56]	; 0x38
 8004bb8:	2500      	movs	r5, #0
 8004bba:	6b20      	ldr	r0, [r4, #48]	; 0x30
 8004bbc:	84e3      	strh	r3, [r4, #38]	; 0x26
 8004bbe:	2221      	movs	r2, #33	; 0x21
 8004bc0:	63e5      	str	r5, [r4, #60]	; 0x3c
 8004bc2:	f884 2039 	strb.w	r2, [r4, #57]	; 0x39
 8004bc6:	4a0e      	ldr	r2, [pc, #56]	; (8004c00 <HAL_UART_Transmit_DMA+0x68>)
 8004bc8:	84a3      	strh	r3, [r4, #36]	; 0x24
 8004bca:	6221      	str	r1, [r4, #32]
 8004bcc:	63c2      	str	r2, [r0, #60]	; 0x3c
 8004bce:	4a0d      	ldr	r2, [pc, #52]	; (8004c04 <HAL_UART_Transmit_DMA+0x6c>)
 8004bd0:	6402      	str	r2, [r0, #64]	; 0x40
 8004bd2:	4a0d      	ldr	r2, [pc, #52]	; (8004c08 <HAL_UART_Transmit_DMA+0x70>)
 8004bd4:	e9c0 2513 	strd	r2, r5, [r0, #76]	; 0x4c
 8004bd8:	6822      	ldr	r2, [r4, #0]
 8004bda:	3204      	adds	r2, #4
 8004bdc:	f7fc fb80 	bl	80012e0 <HAL_DMA_Start_IT>
 8004be0:	6823      	ldr	r3, [r4, #0]
 8004be2:	f06f 0240 	mvn.w	r2, #64	; 0x40
 8004be6:	601a      	str	r2, [r3, #0]
 8004be8:	695a      	ldr	r2, [r3, #20]
 8004bea:	f884 5038 	strb.w	r5, [r4, #56]	; 0x38
 8004bee:	f042 0280 	orr.w	r2, r2, #128	; 0x80
 8004bf2:	615a      	str	r2, [r3, #20]
 8004bf4:	4628      	mov	r0, r5
 8004bf6:	bd38      	pop	{r3, r4, r5, pc}
 8004bf8:	2001      	movs	r0, #1
 8004bfa:	e7fc      	b.n	8004bf6 <HAL_UART_Transmit_DMA+0x5e>
 8004bfc:	2002      	movs	r0, #2
 8004bfe:	e7fa      	b.n	8004bf6 <HAL_UART_Transmit_DMA+0x5e>
 8004c00:	08004c9d 	.word	0x08004c9d
 8004c04:	08004ccb 	.word	0x08004ccb
 8004c08:	08004d91 	.word	0x08004d91

08004c0c <HAL_UART_Receive_DMA>:
 8004c0c:	4613      	mov	r3, r2
 8004c0e:	f890 203a 	ldrb.w	r2, [r0, #58]	; 0x3a
 8004c12:	2a20      	cmp	r2, #32
 8004c14:	b573      	push	{r0, r1, r4, r5, r6, lr}
 8004c16:	4605      	mov	r5, r0
 8004c18:	d138      	bne.n	8004c8c <HAL_UART_Receive_DMA+0x80>
 8004c1a:	2900      	cmp	r1, #0
 8004c1c:	d034      	beq.n	8004c88 <HAL_UART_Receive_DMA+0x7c>
 8004c1e:	2b00      	cmp	r3, #0
 8004c20:	d032      	beq.n	8004c88 <HAL_UART_Receive_DMA+0x7c>
 8004c22:	f890 2038 	ldrb.w	r2, [r0, #56]	; 0x38
 8004c26:	2a01      	cmp	r2, #1
 8004c28:	d030      	beq.n	8004c8c <HAL_UART_Receive_DMA+0x80>
 8004c2a:	2201      	movs	r2, #1
 8004c2c:	2400      	movs	r4, #0
 8004c2e:	f880 2038 	strb.w	r2, [r0, #56]	; 0x38
 8004c32:	2222      	movs	r2, #34	; 0x22
 8004c34:	63c4      	str	r4, [r0, #60]	; 0x3c
 8004c36:	6281      	str	r1, [r0, #40]	; 0x28
 8004c38:	8583      	strh	r3, [r0, #44]	; 0x2c
 8004c3a:	f880 203a 	strb.w	r2, [r0, #58]	; 0x3a
 8004c3e:	6b40      	ldr	r0, [r0, #52]	; 0x34
 8004c40:	4a13      	ldr	r2, [pc, #76]	; (8004c90 <HAL_UART_Receive_DMA+0x84>)
 8004c42:	63c2      	str	r2, [r0, #60]	; 0x3c
 8004c44:	4a13      	ldr	r2, [pc, #76]	; (8004c94 <HAL_UART_Receive_DMA+0x88>)
 8004c46:	6402      	str	r2, [r0, #64]	; 0x40
 8004c48:	682e      	ldr	r6, [r5, #0]
 8004c4a:	4a13      	ldr	r2, [pc, #76]	; (8004c98 <HAL_UART_Receive_DMA+0x8c>)
 8004c4c:	e9c0 2413 	strd	r2, r4, [r0, #76]	; 0x4c
 8004c50:	460a      	mov	r2, r1
 8004c52:	1d31      	adds	r1, r6, #4
 8004c54:	f7fc fb44 	bl	80012e0 <HAL_DMA_Start_IT>
 8004c58:	682b      	ldr	r3, [r5, #0]
 8004c5a:	9401      	str	r4, [sp, #4]
 8004c5c:	681a      	ldr	r2, [r3, #0]
 8004c5e:	9201      	str	r2, [sp, #4]
 8004c60:	685a      	ldr	r2, [r3, #4]
 8004c62:	9201      	str	r2, [sp, #4]
 8004c64:	9a01      	ldr	r2, [sp, #4]
 8004c66:	68da      	ldr	r2, [r3, #12]
 8004c68:	f885 4038 	strb.w	r4, [r5, #56]	; 0x38
 8004c6c:	f442 7280 	orr.w	r2, r2, #256	; 0x100
 8004c70:	60da      	str	r2, [r3, #12]
 8004c72:	695a      	ldr	r2, [r3, #20]
 8004c74:	f042 0201 	orr.w	r2, r2, #1
 8004c78:	615a      	str	r2, [r3, #20]
 8004c7a:	695a      	ldr	r2, [r3, #20]
 8004c7c:	f042 0240 	orr.w	r2, r2, #64	; 0x40
 8004c80:	615a      	str	r2, [r3, #20]
 8004c82:	4620      	mov	r0, r4
 8004c84:	b002      	add	sp, #8
 8004c86:	bd70      	pop	{r4, r5, r6, pc}
 8004c88:	2001      	movs	r0, #1
 8004c8a:	e7fb      	b.n	8004c84 <HAL_UART_Receive_DMA+0x78>
 8004c8c:	2002      	movs	r0, #2
 8004c8e:	e7f9      	b.n	8004c84 <HAL_UART_Receive_DMA+0x78>
 8004c90:	08004cd5 	.word	0x08004cd5
 8004c94:	08004d85 	.word	0x08004d85
 8004c98:	08004d91 	.word	0x08004d91

08004c9c <UART_DMATransmitCplt>:
 8004c9c:	b508      	push	{r3, lr}
 8004c9e:	6803      	ldr	r3, [r0, #0]
 8004ca0:	6b82      	ldr	r2, [r0, #56]	; 0x38
 8004ca2:	681b      	ldr	r3, [r3, #0]
 8004ca4:	f413 7380 	ands.w	r3, r3, #256	; 0x100
 8004ca8:	d10a      	bne.n	8004cc0 <UART_DMATransmitCplt+0x24>
 8004caa:	84d3      	strh	r3, [r2, #38]	; 0x26
 8004cac:	6813      	ldr	r3, [r2, #0]
 8004cae:	695a      	ldr	r2, [r3, #20]
 8004cb0:	f022 0280 	bic.w	r2, r2, #128	; 0x80
 8004cb4:	615a      	str	r2, [r3, #20]
 8004cb6:	68da      	ldr	r2, [r3, #12]
 8004cb8:	f042 0240 	orr.w	r2, r2, #64	; 0x40
 8004cbc:	60da      	str	r2, [r3, #12]
 8004cbe:	bd08      	pop	{r3, pc}
 8004cc0:	4610      	mov	r0, r2
 8004cc2:	f002 f8d9 	bl	8006e78 <HAL_UART_TxCpltCallback>
 8004cc6:	e7fa      	b.n	8004cbe <UART_DMATransmitCplt+0x22>

08004cc8 <HAL_UART_TxHalfCpltCallback>:
 8004cc8:	4770      	bx	lr

08004cca <UART_DMATxHalfCplt>:
 8004cca:	b508      	push	{r3, lr}
 8004ccc:	6b80      	ldr	r0, [r0, #56]	; 0x38
 8004cce:	f7ff fffb 	bl	8004cc8 <HAL_UART_TxHalfCpltCallback>
 8004cd2:	bd08      	pop	{r3, pc}

08004cd4 <UART_DMAReceiveCplt>:
 8004cd4:	b508      	push	{r3, lr}
 8004cd6:	6803      	ldr	r3, [r0, #0]
 8004cd8:	6b82      	ldr	r2, [r0, #56]	; 0x38
 8004cda:	681b      	ldr	r3, [r3, #0]
 8004cdc:	f413 7380 	ands.w	r3, r3, #256	; 0x100
 8004ce0:	d110      	bne.n	8004d04 <UART_DMAReceiveCplt+0x30>
 8004ce2:	85d3      	strh	r3, [r2, #46]	; 0x2e
 8004ce4:	6813      	ldr	r3, [r2, #0]
 8004ce6:	68d9      	ldr	r1, [r3, #12]
 8004ce8:	f421 7180 	bic.w	r1, r1, #256	; 0x100
 8004cec:	60d9      	str	r1, [r3, #12]
 8004cee:	6959      	ldr	r1, [r3, #20]
 8004cf0:	f021 0101 	bic.w	r1, r1, #1
 8004cf4:	6159      	str	r1, [r3, #20]
 8004cf6:	6959      	ldr	r1, [r3, #20]
 8004cf8:	f021 0140 	bic.w	r1, r1, #64	; 0x40
 8004cfc:	6159      	str	r1, [r3, #20]
 8004cfe:	2320      	movs	r3, #32
 8004d00:	f882 303a 	strb.w	r3, [r2, #58]	; 0x3a
 8004d04:	4610      	mov	r0, r2
 8004d06:	f003 fe3d 	bl	8008984 <HAL_UART_RxCpltCallback>
 8004d0a:	bd08      	pop	{r3, pc}

08004d0c <UART_Receive_IT>:
 8004d0c:	f890 303a 	ldrb.w	r3, [r0, #58]	; 0x3a
 8004d10:	2b22      	cmp	r3, #34	; 0x22
 8004d12:	b510      	push	{r4, lr}
 8004d14:	d133      	bne.n	8004d7e <UART_Receive_IT+0x72>
 8004d16:	6881      	ldr	r1, [r0, #8]
 8004d18:	6904      	ldr	r4, [r0, #16]
 8004d1a:	6a83      	ldr	r3, [r0, #40]	; 0x28
 8004d1c:	6802      	ldr	r2, [r0, #0]
 8004d1e:	f5b1 5f80 	cmp.w	r1, #4096	; 0x1000
 8004d22:	d123      	bne.n	8004d6c <UART_Receive_IT+0x60>
 8004d24:	6852      	ldr	r2, [r2, #4]
 8004d26:	b9ec      	cbnz	r4, 8004d64 <UART_Receive_IT+0x58>
 8004d28:	f3c2 0208 	ubfx	r2, r2, #0, #9
 8004d2c:	f823 2b02 	strh.w	r2, [r3], #2
 8004d30:	6283      	str	r3, [r0, #40]	; 0x28
 8004d32:	8dc4      	ldrh	r4, [r0, #46]	; 0x2e
 8004d34:	3c01      	subs	r4, #1
 8004d36:	b2a4      	uxth	r4, r4
 8004d38:	85c4      	strh	r4, [r0, #46]	; 0x2e
 8004d3a:	b98c      	cbnz	r4, 8004d60 <UART_Receive_IT+0x54>
 8004d3c:	6803      	ldr	r3, [r0, #0]
 8004d3e:	68da      	ldr	r2, [r3, #12]
 8004d40:	f022 0220 	bic.w	r2, r2, #32
 8004d44:	60da      	str	r2, [r3, #12]
 8004d46:	68da      	ldr	r2, [r3, #12]
 8004d48:	f422 7280 	bic.w	r2, r2, #256	; 0x100
 8004d4c:	60da      	str	r2, [r3, #12]
 8004d4e:	695a      	ldr	r2, [r3, #20]
 8004d50:	f022 0201 	bic.w	r2, r2, #1
 8004d54:	615a      	str	r2, [r3, #20]
 8004d56:	2320      	movs	r3, #32
 8004d58:	f880 303a 	strb.w	r3, [r0, #58]	; 0x3a
 8004d5c:	f003 fe12 	bl	8008984 <HAL_UART_RxCpltCallback>
 8004d60:	2000      	movs	r0, #0
 8004d62:	e00d      	b.n	8004d80 <UART_Receive_IT+0x74>
 8004d64:	b2d2      	uxtb	r2, r2
 8004d66:	f823 2b01 	strh.w	r2, [r3], #1
 8004d6a:	e7e1      	b.n	8004d30 <UART_Receive_IT+0x24>
 8004d6c:	1c59      	adds	r1, r3, #1
 8004d6e:	6852      	ldr	r2, [r2, #4]
 8004d70:	6281      	str	r1, [r0, #40]	; 0x28
 8004d72:	b90c      	cbnz	r4, 8004d78 <UART_Receive_IT+0x6c>
 8004d74:	701a      	strb	r2, [r3, #0]
 8004d76:	e7dc      	b.n	8004d32 <UART_Receive_IT+0x26>
 8004d78:	f002 027f 	and.w	r2, r2, #127	; 0x7f
 8004d7c:	e7fa      	b.n	8004d74 <UART_Receive_IT+0x68>
 8004d7e:	2002      	movs	r0, #2
 8004d80:	bd10      	pop	{r4, pc}

08004d82 <HAL_UART_RxHalfCpltCallback>:
 8004d82:	4770      	bx	lr

08004d84 <UART_DMARxHalfCplt>:
 8004d84:	b508      	push	{r3, lr}
 8004d86:	6b80      	ldr	r0, [r0, #56]	; 0x38
 8004d88:	f7ff fffb 	bl	8004d82 <HAL_UART_RxHalfCpltCallback>
 8004d8c:	bd08      	pop	{r3, pc}

08004d8e <HAL_UART_ErrorCallback>:
 8004d8e:	4770      	bx	lr

08004d90 <UART_DMAError>:
 8004d90:	6b81      	ldr	r1, [r0, #56]	; 0x38
 8004d92:	b508      	push	{r3, lr}
 8004d94:	680b      	ldr	r3, [r1, #0]
 8004d96:	695a      	ldr	r2, [r3, #20]
 8004d98:	f891 0039 	ldrb.w	r0, [r1, #57]	; 0x39
 8004d9c:	2821      	cmp	r0, #33	; 0x21
 8004d9e:	d10a      	bne.n	8004db6 <UART_DMAError+0x26>
 8004da0:	0612      	lsls	r2, r2, #24
 8004da2:	d508      	bpl.n	8004db6 <UART_DMAError+0x26>
 8004da4:	2200      	movs	r2, #0
 8004da6:	84ca      	strh	r2, [r1, #38]	; 0x26
 8004da8:	68da      	ldr	r2, [r3, #12]
 8004daa:	f022 02c0 	bic.w	r2, r2, #192	; 0xc0
 8004dae:	60da      	str	r2, [r3, #12]
 8004db0:	2220      	movs	r2, #32
 8004db2:	f881 2039 	strb.w	r2, [r1, #57]	; 0x39
 8004db6:	695b      	ldr	r3, [r3, #20]
 8004db8:	f891 203a 	ldrb.w	r2, [r1, #58]	; 0x3a
 8004dbc:	2a22      	cmp	r2, #34	; 0x22
 8004dbe:	d106      	bne.n	8004dce <UART_DMAError+0x3e>
 8004dc0:	065b      	lsls	r3, r3, #25
 8004dc2:	d504      	bpl.n	8004dce <UART_DMAError+0x3e>
 8004dc4:	2300      	movs	r3, #0
 8004dc6:	85cb      	strh	r3, [r1, #46]	; 0x2e
 8004dc8:	4608      	mov	r0, r1
 8004dca:	f7ff fdc9 	bl	8004960 <UART_EndRxTransfer>
 8004dce:	6bcb      	ldr	r3, [r1, #60]	; 0x3c
 8004dd0:	f043 0310 	orr.w	r3, r3, #16
 8004dd4:	63cb      	str	r3, [r1, #60]	; 0x3c
 8004dd6:	4608      	mov	r0, r1
 8004dd8:	f7ff ffd9 	bl	8004d8e <HAL_UART_ErrorCallback>
 8004ddc:	bd08      	pop	{r3, pc}
	...

08004de0 <HAL_UART_IRQHandler>:
 8004de0:	6803      	ldr	r3, [r0, #0]
 8004de2:	681a      	ldr	r2, [r3, #0]
 8004de4:	68d9      	ldr	r1, [r3, #12]
 8004de6:	b570      	push	{r4, r5, r6, lr}
 8004de8:	0716      	lsls	r6, r2, #28
 8004dea:	4604      	mov	r4, r0
 8004dec:	695d      	ldr	r5, [r3, #20]
 8004dee:	d107      	bne.n	8004e00 <HAL_UART_IRQHandler+0x20>
 8004df0:	0696      	lsls	r6, r2, #26
 8004df2:	d55a      	bpl.n	8004eaa <HAL_UART_IRQHandler+0xca>
 8004df4:	068d      	lsls	r5, r1, #26
 8004df6:	d558      	bpl.n	8004eaa <HAL_UART_IRQHandler+0xca>
 8004df8:	e8bd 4070 	ldmia.w	sp!, {r4, r5, r6, lr}
 8004dfc:	f7ff bf86 	b.w	8004d0c <UART_Receive_IT>
 8004e00:	f015 0501 	ands.w	r5, r5, #1
 8004e04:	d102      	bne.n	8004e0c <HAL_UART_IRQHandler+0x2c>
 8004e06:	f411 7f90 	tst.w	r1, #288	; 0x120
 8004e0a:	d04e      	beq.n	8004eaa <HAL_UART_IRQHandler+0xca>
 8004e0c:	07d0      	lsls	r0, r2, #31
 8004e0e:	d505      	bpl.n	8004e1c <HAL_UART_IRQHandler+0x3c>
 8004e10:	05cb      	lsls	r3, r1, #23
 8004e12:	bf42      	ittt	mi
 8004e14:	6be3      	ldrmi	r3, [r4, #60]	; 0x3c
 8004e16:	f043 0301 	orrmi.w	r3, r3, #1
 8004e1a:	63e3      	strmi	r3, [r4, #60]	; 0x3c
 8004e1c:	0756      	lsls	r6, r2, #29
 8004e1e:	d504      	bpl.n	8004e2a <HAL_UART_IRQHandler+0x4a>
 8004e20:	b11d      	cbz	r5, 8004e2a <HAL_UART_IRQHandler+0x4a>
 8004e22:	6be3      	ldr	r3, [r4, #60]	; 0x3c
 8004e24:	f043 0302 	orr.w	r3, r3, #2
 8004e28:	63e3      	str	r3, [r4, #60]	; 0x3c
 8004e2a:	0790      	lsls	r0, r2, #30
 8004e2c:	d504      	bpl.n	8004e38 <HAL_UART_IRQHandler+0x58>
 8004e2e:	b11d      	cbz	r5, 8004e38 <HAL_UART_IRQHandler+0x58>
 8004e30:	6be3      	ldr	r3, [r4, #60]	; 0x3c
 8004e32:	f043 0304 	orr.w	r3, r3, #4
 8004e36:	63e3      	str	r3, [r4, #60]	; 0x3c
 8004e38:	0713      	lsls	r3, r2, #28
 8004e3a:	d506      	bpl.n	8004e4a <HAL_UART_IRQHandler+0x6a>
 8004e3c:	068e      	lsls	r6, r1, #26
 8004e3e:	d400      	bmi.n	8004e42 <HAL_UART_IRQHandler+0x62>
 8004e40:	b11d      	cbz	r5, 8004e4a <HAL_UART_IRQHandler+0x6a>
 8004e42:	6be3      	ldr	r3, [r4, #60]	; 0x3c
 8004e44:	f043 0308 	orr.w	r3, r3, #8
 8004e48:	63e3      	str	r3, [r4, #60]	; 0x3c
 8004e4a:	6be3      	ldr	r3, [r4, #60]	; 0x3c
 8004e4c:	b343      	cbz	r3, 8004ea0 <HAL_UART_IRQHandler+0xc0>
 8004e4e:	0695      	lsls	r5, r2, #26
 8004e50:	d504      	bpl.n	8004e5c <HAL_UART_IRQHandler+0x7c>
 8004e52:	0688      	lsls	r0, r1, #26
 8004e54:	d502      	bpl.n	8004e5c <HAL_UART_IRQHandler+0x7c>
 8004e56:	4620      	mov	r0, r4
 8004e58:	f7ff ff58 	bl	8004d0c <UART_Receive_IT>
 8004e5c:	6823      	ldr	r3, [r4, #0]
 8004e5e:	695d      	ldr	r5, [r3, #20]
 8004e60:	6be2      	ldr	r2, [r4, #60]	; 0x3c
 8004e62:	0711      	lsls	r1, r2, #28
 8004e64:	4620      	mov	r0, r4
 8004e66:	d402      	bmi.n	8004e6e <HAL_UART_IRQHandler+0x8e>
 8004e68:	f015 0540 	ands.w	r5, r5, #64	; 0x40
 8004e6c:	d019      	beq.n	8004ea2 <HAL_UART_IRQHandler+0xc2>
 8004e6e:	f7ff fd77 	bl	8004960 <UART_EndRxTransfer>
 8004e72:	6823      	ldr	r3, [r4, #0]
 8004e74:	695a      	ldr	r2, [r3, #20]
 8004e76:	0652      	lsls	r2, r2, #25
 8004e78:	d50f      	bpl.n	8004e9a <HAL_UART_IRQHandler+0xba>
 8004e7a:	695a      	ldr	r2, [r3, #20]
 8004e7c:	6b60      	ldr	r0, [r4, #52]	; 0x34
 8004e7e:	f022 0240 	bic.w	r2, r2, #64	; 0x40
 8004e82:	615a      	str	r2, [r3, #20]
 8004e84:	b148      	cbz	r0, 8004e9a <HAL_UART_IRQHandler+0xba>
 8004e86:	4b26      	ldr	r3, [pc, #152]	; (8004f20 <HAL_UART_IRQHandler+0x140>)
 8004e88:	6503      	str	r3, [r0, #80]	; 0x50
 8004e8a:	f7fc fa79 	bl	8001380 <HAL_DMA_Abort_IT>
 8004e8e:	b138      	cbz	r0, 8004ea0 <HAL_UART_IRQHandler+0xc0>
 8004e90:	6b60      	ldr	r0, [r4, #52]	; 0x34
 8004e92:	e8bd 4070 	ldmia.w	sp!, {r4, r5, r6, lr}
 8004e96:	6d03      	ldr	r3, [r0, #80]	; 0x50
 8004e98:	4718      	bx	r3
 8004e9a:	4620      	mov	r0, r4
 8004e9c:	f7ff ff77 	bl	8004d8e <HAL_UART_ErrorCallback>
 8004ea0:	bd70      	pop	{r4, r5, r6, pc}
 8004ea2:	f7ff ff74 	bl	8004d8e <HAL_UART_ErrorCallback>
 8004ea6:	63e5      	str	r5, [r4, #60]	; 0x3c
 8004ea8:	e7fa      	b.n	8004ea0 <HAL_UART_IRQHandler+0xc0>
 8004eaa:	0616      	lsls	r6, r2, #24
 8004eac:	d528      	bpl.n	8004f00 <HAL_UART_IRQHandler+0x120>
 8004eae:	060d      	lsls	r5, r1, #24
 8004eb0:	d526      	bpl.n	8004f00 <HAL_UART_IRQHandler+0x120>
 8004eb2:	f894 2039 	ldrb.w	r2, [r4, #57]	; 0x39
 8004eb6:	2a21      	cmp	r2, #33	; 0x21
 8004eb8:	d1f2      	bne.n	8004ea0 <HAL_UART_IRQHandler+0xc0>
 8004eba:	68a1      	ldr	r1, [r4, #8]
 8004ebc:	6a22      	ldr	r2, [r4, #32]
 8004ebe:	f5b1 5f80 	cmp.w	r1, #4096	; 0x1000
 8004ec2:	d118      	bne.n	8004ef6 <HAL_UART_IRQHandler+0x116>
 8004ec4:	8811      	ldrh	r1, [r2, #0]
 8004ec6:	f3c1 0108 	ubfx	r1, r1, #0, #9
 8004eca:	6059      	str	r1, [r3, #4]
 8004ecc:	6921      	ldr	r1, [r4, #16]
 8004ece:	b981      	cbnz	r1, 8004ef2 <HAL_UART_IRQHandler+0x112>
 8004ed0:	3202      	adds	r2, #2
 8004ed2:	6222      	str	r2, [r4, #32]
 8004ed4:	8ce2      	ldrh	r2, [r4, #38]	; 0x26
 8004ed6:	3a01      	subs	r2, #1
 8004ed8:	b292      	uxth	r2, r2
 8004eda:	84e2      	strh	r2, [r4, #38]	; 0x26
 8004edc:	2a00      	cmp	r2, #0
 8004ede:	d1df      	bne.n	8004ea0 <HAL_UART_IRQHandler+0xc0>
 8004ee0:	68da      	ldr	r2, [r3, #12]
 8004ee2:	f022 0280 	bic.w	r2, r2, #128	; 0x80
 8004ee6:	60da      	str	r2, [r3, #12]
 8004ee8:	68da      	ldr	r2, [r3, #12]
 8004eea:	f042 0240 	orr.w	r2, r2, #64	; 0x40
 8004eee:	60da      	str	r2, [r3, #12]
 8004ef0:	e7d6      	b.n	8004ea0 <HAL_UART_IRQHandler+0xc0>
 8004ef2:	3201      	adds	r2, #1
 8004ef4:	e7ed      	b.n	8004ed2 <HAL_UART_IRQHandler+0xf2>
 8004ef6:	1c51      	adds	r1, r2, #1
 8004ef8:	6221      	str	r1, [r4, #32]
 8004efa:	7812      	ldrb	r2, [r2, #0]
 8004efc:	605a      	str	r2, [r3, #4]
 8004efe:	e7e9      	b.n	8004ed4 <HAL_UART_IRQHandler+0xf4>
 8004f00:	0650      	lsls	r0, r2, #25
 8004f02:	d5cd      	bpl.n	8004ea0 <HAL_UART_IRQHandler+0xc0>
 8004f04:	064a      	lsls	r2, r1, #25
 8004f06:	d5cb      	bpl.n	8004ea0 <HAL_UART_IRQHandler+0xc0>
 8004f08:	68da      	ldr	r2, [r3, #12]
 8004f0a:	f022 0240 	bic.w	r2, r2, #64	; 0x40
 8004f0e:	60da      	str	r2, [r3, #12]
 8004f10:	2320      	movs	r3, #32
 8004f12:	f884 3039 	strb.w	r3, [r4, #57]	; 0x39
 8004f16:	4620      	mov	r0, r4
 8004f18:	f001 ffae 	bl	8006e78 <HAL_UART_TxCpltCallback>
 8004f1c:	e7c0      	b.n	8004ea0 <HAL_UART_IRQHandler+0xc0>
 8004f1e:	bf00      	nop
 8004f20:	08004f25 	.word	0x08004f25

08004f24 <UART_DMAAbortOnError>:
 8004f24:	b508      	push	{r3, lr}
 8004f26:	6b80      	ldr	r0, [r0, #56]	; 0x38
 8004f28:	2300      	movs	r3, #0
 8004f2a:	85c3      	strh	r3, [r0, #46]	; 0x2e
 8004f2c:	84c3      	strh	r3, [r0, #38]	; 0x26
 8004f2e:	f7ff ff2e 	bl	8004d8e <HAL_UART_ErrorCallback>
 8004f32:	bd08      	pop	{r3, pc}

08004f34 <osKernelStart>:
 8004f34:	b508      	push	{r3, lr}
 8004f36:	f000 ff15 	bl	8005d64 <vTaskStartScheduler>
 8004f3a:	2000      	movs	r0, #0
 8004f3c:	bd08      	pop	{r3, pc}

08004f3e <osThreadCreate>:
 8004f3e:	b570      	push	{r4, r5, r6, lr}
 8004f40:	4605      	mov	r5, r0
 8004f42:	6946      	ldr	r6, [r0, #20]
 8004f44:	692a      	ldr	r2, [r5, #16]
 8004f46:	f9b5 4008 	ldrsh.w	r4, [r5, #8]
 8004f4a:	460b      	mov	r3, r1
 8004f4c:	b086      	sub	sp, #24
 8004f4e:	e9d0 1000 	ldrd	r1, r0, [r0]
 8004f52:	b176      	cbz	r6, 8004f72 <osThreadCreate+0x34>
 8004f54:	69ad      	ldr	r5, [r5, #24]
 8004f56:	b165      	cbz	r5, 8004f72 <osThreadCreate+0x34>
 8004f58:	2c84      	cmp	r4, #132	; 0x84
 8004f5a:	bf14      	ite	ne
 8004f5c:	3403      	addne	r4, #3
 8004f5e:	2400      	moveq	r4, #0
 8004f60:	e9cd 6501 	strd	r6, r5, [sp, #4]
 8004f64:	9400      	str	r4, [sp, #0]
 8004f66:	f000 fe97 	bl	8005c98 <xTaskCreateStatic>
 8004f6a:	9005      	str	r0, [sp, #20]
 8004f6c:	9805      	ldr	r0, [sp, #20]
 8004f6e:	b006      	add	sp, #24
 8004f70:	bd70      	pop	{r4, r5, r6, pc}
 8004f72:	2c84      	cmp	r4, #132	; 0x84
 8004f74:	bf14      	ite	ne
 8004f76:	3403      	addne	r4, #3
 8004f78:	2400      	moveq	r4, #0
 8004f7a:	ad05      	add	r5, sp, #20
 8004f7c:	b292      	uxth	r2, r2
 8004f7e:	e9cd 4500 	strd	r4, r5, [sp]
 8004f82:	f000 fec1 	bl	8005d08 <xTaskCreate>
 8004f86:	2801      	cmp	r0, #1
 8004f88:	d0f0      	beq.n	8004f6c <osThreadCreate+0x2e>
 8004f8a:	2000      	movs	r0, #0
 8004f8c:	e7ef      	b.n	8004f6e <osThreadCreate+0x30>
	...

08004f90 <osTimerCreate>:
 8004f90:	b513      	push	{r0, r1, r4, lr}
 8004f92:	e9d0 0400 	ldrd	r0, r4, [r0]
 8004f96:	3901      	subs	r1, #1
 8004f98:	4613      	mov	r3, r2
 8004f9a:	424a      	negs	r2, r1
 8004f9c:	414a      	adcs	r2, r1
 8004f9e:	b13c      	cbz	r4, 8004fb0 <osTimerCreate+0x20>
 8004fa0:	e9cd 0400 	strd	r0, r4, [sp]
 8004fa4:	2101      	movs	r1, #1
 8004fa6:	4805      	ldr	r0, [pc, #20]	; (8004fbc <osTimerCreate+0x2c>)
 8004fa8:	f001 fbad 	bl	8006706 <xTimerCreateStatic>
 8004fac:	b002      	add	sp, #8
 8004fae:	bd10      	pop	{r4, pc}
 8004fb0:	9000      	str	r0, [sp, #0]
 8004fb2:	2101      	movs	r1, #1
 8004fb4:	4801      	ldr	r0, [pc, #4]	; (8004fbc <osTimerCreate+0x2c>)
 8004fb6:	f001 fb79 	bl	80066ac <xTimerCreate>
 8004fba:	e7f7      	b.n	8004fac <osTimerCreate+0x1c>
 8004fbc:	0800b7a2 	.word	0x0800b7a2

08004fc0 <osTimerStart>:
 8004fc0:	b51f      	push	{r0, r1, r2, r3, r4, lr}
 8004fc2:	2400      	movs	r4, #0
 8004fc4:	9403      	str	r4, [sp, #12]
 8004fc6:	42a1      	cmp	r1, r4
 8004fc8:	bf14      	ite	ne
 8004fca:	460a      	movne	r2, r1
 8004fcc:	2201      	moveq	r2, #1
 8004fce:	f3ef 8305 	mrs	r3, IPSR
 8004fd2:	b1a3      	cbz	r3, 8004ffe <osTimerStart+0x3e>
 8004fd4:	9400      	str	r4, [sp, #0]
 8004fd6:	ab03      	add	r3, sp, #12
 8004fd8:	2109      	movs	r1, #9
 8004fda:	f001 fbd7 	bl	800678c <xTimerGenericCommand>
 8004fde:	2801      	cmp	r0, #1
 8004fe0:	d113      	bne.n	800500a <osTimerStart+0x4a>
 8004fe2:	9b03      	ldr	r3, [sp, #12]
 8004fe4:	b913      	cbnz	r3, 8004fec <osTimerStart+0x2c>
 8004fe6:	2000      	movs	r0, #0
 8004fe8:	b004      	add	sp, #16
 8004fea:	bd10      	pop	{r4, pc}
 8004fec:	4b08      	ldr	r3, [pc, #32]	; (8005010 <osTimerStart+0x50>)
 8004fee:	f04f 5280 	mov.w	r2, #268435456	; 0x10000000
 8004ff2:	601a      	str	r2, [r3, #0]
 8004ff4:	f3bf 8f4f 	dsb	sy
 8004ff8:	f3bf 8f6f 	isb	sy
 8004ffc:	e7f3      	b.n	8004fe6 <osTimerStart+0x26>
 8004ffe:	9300      	str	r3, [sp, #0]
 8005000:	2104      	movs	r1, #4
 8005002:	f001 fbc3 	bl	800678c <xTimerGenericCommand>
 8005006:	2801      	cmp	r0, #1
 8005008:	d0ed      	beq.n	8004fe6 <osTimerStart+0x26>
 800500a:	20ff      	movs	r0, #255	; 0xff
 800500c:	e7ec      	b.n	8004fe8 <osTimerStart+0x28>
 800500e:	bf00      	nop
 8005010:	e000ed04 	.word	0xe000ed04

08005014 <osTimerStop>:
 8005014:	b51f      	push	{r0, r1, r2, r3, r4, lr}
 8005016:	2400      	movs	r4, #0
 8005018:	9403      	str	r4, [sp, #12]
 800501a:	f3ef 8305 	mrs	r3, IPSR
 800501e:	b1ab      	cbz	r3, 800504c <osTimerStop+0x38>
 8005020:	9400      	str	r4, [sp, #0]
 8005022:	ab03      	add	r3, sp, #12
 8005024:	4622      	mov	r2, r4
 8005026:	2108      	movs	r1, #8
 8005028:	f001 fbb0 	bl	800678c <xTimerGenericCommand>
 800502c:	2801      	cmp	r0, #1
 800502e:	d114      	bne.n	800505a <osTimerStop+0x46>
 8005030:	9b03      	ldr	r3, [sp, #12]
 8005032:	b913      	cbnz	r3, 800503a <osTimerStop+0x26>
 8005034:	2000      	movs	r0, #0
 8005036:	b004      	add	sp, #16
 8005038:	bd10      	pop	{r4, pc}
 800503a:	4b09      	ldr	r3, [pc, #36]	; (8005060 <osTimerStop+0x4c>)
 800503c:	f04f 5280 	mov.w	r2, #268435456	; 0x10000000
 8005040:	601a      	str	r2, [r3, #0]
 8005042:	f3bf 8f4f 	dsb	sy
 8005046:	f3bf 8f6f 	isb	sy
 800504a:	e7f3      	b.n	8005034 <osTimerStop+0x20>
 800504c:	9300      	str	r3, [sp, #0]
 800504e:	461a      	mov	r2, r3
 8005050:	2103      	movs	r1, #3
 8005052:	f001 fb9b 	bl	800678c <xTimerGenericCommand>
 8005056:	2801      	cmp	r0, #1
 8005058:	d0ec      	beq.n	8005034 <osTimerStop+0x20>
 800505a:	20ff      	movs	r0, #255	; 0xff
 800505c:	e7eb      	b.n	8005036 <osTimerStop+0x22>
 800505e:	bf00      	nop
 8005060:	e000ed04 	.word	0xe000ed04

08005064 <osSignalSet>:
 8005064:	b51f      	push	{r0, r1, r2, r3, r4, lr}
 8005066:	ab04      	add	r3, sp, #16
 8005068:	2200      	movs	r2, #0
 800506a:	9202      	str	r2, [sp, #8]
 800506c:	f843 2d04 	str.w	r2, [r3, #-4]!
 8005070:	f3ef 8205 	mrs	r2, IPSR
 8005074:	b1ba      	cbz	r2, 80050a6 <osSignalSet+0x42>
 8005076:	aa02      	add	r2, sp, #8
 8005078:	9200      	str	r2, [sp, #0]
 800507a:	2201      	movs	r2, #1
 800507c:	f001 fa00 	bl	8006480 <xTaskGenericNotifyFromISR>
 8005080:	2801      	cmp	r0, #1
 8005082:	d004      	beq.n	800508e <osSignalSet+0x2a>
 8005084:	f04f 4000 	mov.w	r0, #2147483648	; 0x80000000
 8005088:	b005      	add	sp, #20
 800508a:	f85d fb04 	ldr.w	pc, [sp], #4
 800508e:	9b02      	ldr	r3, [sp, #8]
 8005090:	b13b      	cbz	r3, 80050a2 <osSignalSet+0x3e>
 8005092:	4b08      	ldr	r3, [pc, #32]	; (80050b4 <osSignalSet+0x50>)
 8005094:	f04f 5280 	mov.w	r2, #268435456	; 0x10000000
 8005098:	601a      	str	r2, [r3, #0]
 800509a:	f3bf 8f4f 	dsb	sy
 800509e:	f3bf 8f6f 	isb	sy
 80050a2:	9803      	ldr	r0, [sp, #12]
 80050a4:	e7f0      	b.n	8005088 <osSignalSet+0x24>
 80050a6:	2201      	movs	r2, #1
 80050a8:	f001 f970 	bl	800638c <xTaskGenericNotify>
 80050ac:	2801      	cmp	r0, #1
 80050ae:	d0f8      	beq.n	80050a2 <osSignalSet+0x3e>
 80050b0:	e7e8      	b.n	8005084 <osSignalSet+0x20>
 80050b2:	bf00      	nop
 80050b4:	e000ed04 	.word	0xe000ed04

080050b8 <osSignalWait>:
 80050b8:	b530      	push	{r4, r5, lr}
 80050ba:	b085      	sub	sp, #20
 80050bc:	2300      	movs	r3, #0
 80050be:	4604      	mov	r4, r0
 80050c0:	4615      	mov	r5, r2
 80050c2:	9302      	str	r3, [sp, #8]
 80050c4:	f3ef 8005 	mrs	r0, IPSR
 80050c8:	b110      	cbz	r0, 80050d0 <osSignalWait+0x18>
 80050ca:	2382      	movs	r3, #130	; 0x82
 80050cc:	9301      	str	r3, [sp, #4]
 80050ce:	e007      	b.n	80050e0 <osSignalWait+0x28>
 80050d0:	4613      	mov	r3, r2
 80050d2:	aa02      	add	r2, sp, #8
 80050d4:	f001 f910 	bl	80062f8 <xTaskNotifyWait>
 80050d8:	2801      	cmp	r0, #1
 80050da:	d00b      	beq.n	80050f4 <osSignalWait+0x3c>
 80050dc:	b945      	cbnz	r5, 80050f0 <osSignalWait+0x38>
 80050de:	9501      	str	r5, [sp, #4]
 80050e0:	ab04      	add	r3, sp, #16
 80050e2:	e913 0007 	ldmdb	r3, {r0, r1, r2}
 80050e6:	e884 0007 	stmia.w	r4, {r0, r1, r2}
 80050ea:	4620      	mov	r0, r4
 80050ec:	b005      	add	sp, #20
 80050ee:	bd30      	pop	{r4, r5, pc}
 80050f0:	2340      	movs	r3, #64	; 0x40
 80050f2:	e7eb      	b.n	80050cc <osSignalWait+0x14>
 80050f4:	9b02      	ldr	r3, [sp, #8]
 80050f6:	2b00      	cmp	r3, #0
 80050f8:	bfb4      	ite	lt
 80050fa:	2386      	movlt	r3, #134	; 0x86
 80050fc:	2308      	movge	r3, #8
 80050fe:	e7e5      	b.n	80050cc <osSignalWait+0x14>

08005100 <osMessageCreate>:
 8005100:	b513      	push	{r0, r1, r4, lr}
 8005102:	4603      	mov	r3, r0
 8005104:	c807      	ldmia	r0, {r0, r1, r2}
 8005106:	b13a      	cbz	r2, 8005118 <osMessageCreate+0x18>
 8005108:	68db      	ldr	r3, [r3, #12]
 800510a:	b12b      	cbz	r3, 8005118 <osMessageCreate+0x18>
 800510c:	2400      	movs	r4, #0
 800510e:	9400      	str	r4, [sp, #0]
 8005110:	f000 f97e 	bl	8005410 <xQueueGenericCreateStatic>
 8005114:	b002      	add	sp, #8
 8005116:	bd10      	pop	{r4, pc}
 8005118:	2200      	movs	r2, #0
 800511a:	b002      	add	sp, #8
 800511c:	e8bd 4010 	ldmia.w	sp!, {r4, lr}
 8005120:	f000 b9c0 	b.w	80054a4 <xQueueGenericCreate>

08005124 <osMessagePut>:
 8005124:	b51f      	push	{r0, r1, r2, r3, r4, lr}
 8005126:	2400      	movs	r4, #0
 8005128:	9101      	str	r1, [sp, #4]
 800512a:	9403      	str	r4, [sp, #12]
 800512c:	42a2      	cmp	r2, r4
 800512e:	bf08      	it	eq
 8005130:	2201      	moveq	r2, #1
 8005132:	f3ef 8305 	mrs	r3, IPSR
 8005136:	b1ab      	cbz	r3, 8005164 <osMessagePut+0x40>
 8005138:	4623      	mov	r3, r4
 800513a:	aa03      	add	r2, sp, #12
 800513c:	a901      	add	r1, sp, #4
 800513e:	f000 fa87 	bl	8005650 <xQueueGenericSendFromISR>
 8005142:	2801      	cmp	r0, #1
 8005144:	d002      	beq.n	800514c <osMessagePut+0x28>
 8005146:	20ff      	movs	r0, #255	; 0xff
 8005148:	b004      	add	sp, #16
 800514a:	bd10      	pop	{r4, pc}
 800514c:	9b03      	ldr	r3, [sp, #12]
 800514e:	b13b      	cbz	r3, 8005160 <osMessagePut+0x3c>
 8005150:	4b07      	ldr	r3, [pc, #28]	; (8005170 <osMessagePut+0x4c>)
 8005152:	f04f 5280 	mov.w	r2, #268435456	; 0x10000000
 8005156:	601a      	str	r2, [r3, #0]
 8005158:	f3bf 8f4f 	dsb	sy
 800515c:	f3bf 8f6f 	isb	sy
 8005160:	2000      	movs	r0, #0
 8005162:	e7f1      	b.n	8005148 <osMessagePut+0x24>
 8005164:	a901      	add	r1, sp, #4
 8005166:	f000 f9c1 	bl	80054ec <xQueueGenericSend>
 800516a:	2801      	cmp	r0, #1
 800516c:	d0f8      	beq.n	8005160 <osMessagePut+0x3c>
 800516e:	e7ea      	b.n	8005146 <osMessagePut+0x22>
 8005170:	e000ed04 	.word	0xe000ed04

08005174 <osMessageGet>:
 8005174:	b5f0      	push	{r4, r5, r6, r7, lr}
 8005176:	b085      	sub	sp, #20
 8005178:	2600      	movs	r6, #0
 800517a:	4604      	mov	r4, r0
 800517c:	4617      	mov	r7, r2
 800517e:	4608      	mov	r0, r1
 8005180:	9103      	str	r1, [sp, #12]
 8005182:	9602      	str	r6, [sp, #8]
 8005184:	ad01      	add	r5, sp, #4
 8005186:	b911      	cbnz	r1, 800518e <osMessageGet+0x1a>
 8005188:	2380      	movs	r3, #128	; 0x80
 800518a:	9301      	str	r3, [sp, #4]
 800518c:	e017      	b.n	80051be <osMessageGet+0x4a>
 800518e:	9600      	str	r6, [sp, #0]
 8005190:	f3ef 8305 	mrs	r3, IPSR
 8005194:	b1d3      	cbz	r3, 80051cc <osMessageGet+0x58>
 8005196:	466a      	mov	r2, sp
 8005198:	a902      	add	r1, sp, #8
 800519a:	f000 fb5b 	bl	8005854 <xQueueReceiveFromISR>
 800519e:	2801      	cmp	r0, #1
 80051a0:	bf04      	itt	eq
 80051a2:	2310      	moveq	r3, #16
 80051a4:	9301      	streq	r3, [sp, #4]
 80051a6:	9b00      	ldr	r3, [sp, #0]
 80051a8:	bf18      	it	ne
 80051aa:	9601      	strne	r6, [sp, #4]
 80051ac:	b13b      	cbz	r3, 80051be <osMessageGet+0x4a>
 80051ae:	4b0d      	ldr	r3, [pc, #52]	; (80051e4 <osMessageGet+0x70>)
 80051b0:	f04f 5280 	mov.w	r2, #268435456	; 0x10000000
 80051b4:	601a      	str	r2, [r3, #0]
 80051b6:	f3bf 8f4f 	dsb	sy
 80051ba:	f3bf 8f6f 	isb	sy
 80051be:	e895 0007 	ldmia.w	r5, {r0, r1, r2}
 80051c2:	e884 0007 	stmia.w	r4, {r0, r1, r2}
 80051c6:	4620      	mov	r0, r4
 80051c8:	b005      	add	sp, #20
 80051ca:	bdf0      	pop	{r4, r5, r6, r7, pc}
 80051cc:	a902      	add	r1, sp, #8
 80051ce:	f000 faa1 	bl	8005714 <xQueueReceive>
 80051d2:	2801      	cmp	r0, #1
 80051d4:	d101      	bne.n	80051da <osMessageGet+0x66>
 80051d6:	2310      	movs	r3, #16
 80051d8:	e7d7      	b.n	800518a <osMessageGet+0x16>
 80051da:	2f00      	cmp	r7, #0
 80051dc:	bf0c      	ite	eq
 80051de:	2300      	moveq	r3, #0
 80051e0:	2340      	movne	r3, #64	; 0x40
 80051e2:	e7d2      	b.n	800518a <osMessageGet+0x16>
 80051e4:	e000ed04 	.word	0xe000ed04

080051e8 <osMessageWaiting>:
 80051e8:	f3ef 8305 	mrs	r3, IPSR
 80051ec:	b10b      	cbz	r3, 80051f2 <osMessageWaiting+0xa>
 80051ee:	f000 bb93 	b.w	8005918 <uxQueueMessagesWaitingFromISR>
 80051f2:	f000 bb7e 	b.w	80058f2 <uxQueueMessagesWaiting>

080051f6 <vListInitialise>:
 80051f6:	f100 0308 	add.w	r3, r0, #8
 80051fa:	f04f 32ff 	mov.w	r2, #4294967295
 80051fe:	6043      	str	r3, [r0, #4]
 8005200:	e9c0 2302 	strd	r2, r3, [r0, #8]
 8005204:	6103      	str	r3, [r0, #16]
 8005206:	2300      	movs	r3, #0
 8005208:	6003      	str	r3, [r0, #0]
 800520a:	4770      	bx	lr

0800520c <vListInitialiseItem>:
 800520c:	2300      	movs	r3, #0
 800520e:	6103      	str	r3, [r0, #16]
 8005210:	4770      	bx	lr

08005212 <vListInsertEnd>:
 8005212:	6843      	ldr	r3, [r0, #4]
 8005214:	604b      	str	r3, [r1, #4]
 8005216:	689a      	ldr	r2, [r3, #8]
 8005218:	608a      	str	r2, [r1, #8]
 800521a:	689a      	ldr	r2, [r3, #8]
 800521c:	6051      	str	r1, [r2, #4]
 800521e:	6099      	str	r1, [r3, #8]
 8005220:	6803      	ldr	r3, [r0, #0]
 8005222:	6108      	str	r0, [r1, #16]
 8005224:	3301      	adds	r3, #1
 8005226:	6003      	str	r3, [r0, #0]
 8005228:	4770      	bx	lr

0800522a <vListInsert>:
 800522a:	680a      	ldr	r2, [r1, #0]
 800522c:	1c53      	adds	r3, r2, #1
 800522e:	b530      	push	{r4, r5, lr}
 8005230:	d10a      	bne.n	8005248 <vListInsert+0x1e>
 8005232:	6903      	ldr	r3, [r0, #16]
 8005234:	685a      	ldr	r2, [r3, #4]
 8005236:	604a      	str	r2, [r1, #4]
 8005238:	6091      	str	r1, [r2, #8]
 800523a:	608b      	str	r3, [r1, #8]
 800523c:	6059      	str	r1, [r3, #4]
 800523e:	6803      	ldr	r3, [r0, #0]
 8005240:	6108      	str	r0, [r1, #16]
 8005242:	3301      	adds	r3, #1
 8005244:	6003      	str	r3, [r0, #0]
 8005246:	bd30      	pop	{r4, r5, pc}
 8005248:	f100 0308 	add.w	r3, r0, #8
 800524c:	685c      	ldr	r4, [r3, #4]
 800524e:	6825      	ldr	r5, [r4, #0]
 8005250:	4295      	cmp	r5, r2
 8005252:	d8ef      	bhi.n	8005234 <vListInsert+0xa>
 8005254:	4623      	mov	r3, r4
 8005256:	e7f9      	b.n	800524c <vListInsert+0x22>

08005258 <uxListRemove>:
 8005258:	e9d0 1201 	ldrd	r1, r2, [r0, #4]
 800525c:	6903      	ldr	r3, [r0, #16]
 800525e:	608a      	str	r2, [r1, #8]
 8005260:	6882      	ldr	r2, [r0, #8]
 8005262:	6051      	str	r1, [r2, #4]
 8005264:	6859      	ldr	r1, [r3, #4]
 8005266:	4281      	cmp	r1, r0
 8005268:	bf08      	it	eq
 800526a:	605a      	streq	r2, [r3, #4]
 800526c:	2200      	movs	r2, #0
 800526e:	6102      	str	r2, [r0, #16]
 8005270:	681a      	ldr	r2, [r3, #0]
 8005272:	3a01      	subs	r2, #1
 8005274:	601a      	str	r2, [r3, #0]
 8005276:	6818      	ldr	r0, [r3, #0]
 8005278:	4770      	bx	lr

0800527a <prvIsQueueEmpty>:
 800527a:	b510      	push	{r4, lr}
 800527c:	4604      	mov	r4, r0
 800527e:	f001 fc61 	bl	8006b44 <vPortEnterCritical>
 8005282:	6ba4      	ldr	r4, [r4, #56]	; 0x38
 8005284:	f001 fc80 	bl	8006b88 <vPortExitCritical>
 8005288:	fab4 f084 	clz	r0, r4
 800528c:	0940      	lsrs	r0, r0, #5
 800528e:	bd10      	pop	{r4, pc}

08005290 <prvCopyDataToQueue>:
 8005290:	b570      	push	{r4, r5, r6, lr}
 8005292:	4615      	mov	r5, r2
 8005294:	6c02      	ldr	r2, [r0, #64]	; 0x40
 8005296:	6b86      	ldr	r6, [r0, #56]	; 0x38
 8005298:	4604      	mov	r4, r0
 800529a:	b942      	cbnz	r2, 80052ae <prvCopyDataToQueue+0x1e>
 800529c:	6805      	ldr	r5, [r0, #0]
 800529e:	b99d      	cbnz	r5, 80052c8 <prvCopyDataToQueue+0x38>
 80052a0:	6880      	ldr	r0, [r0, #8]
 80052a2:	f000 ffd9 	bl	8006258 <xTaskPriorityDisinherit>
 80052a6:	60a5      	str	r5, [r4, #8]
 80052a8:	3601      	adds	r6, #1
 80052aa:	63a6      	str	r6, [r4, #56]	; 0x38
 80052ac:	bd70      	pop	{r4, r5, r6, pc}
 80052ae:	b96d      	cbnz	r5, 80052cc <prvCopyDataToQueue+0x3c>
 80052b0:	6840      	ldr	r0, [r0, #4]
 80052b2:	f003 fd23 	bl	8008cfc <memcpy>
 80052b6:	6863      	ldr	r3, [r4, #4]
 80052b8:	6c22      	ldr	r2, [r4, #64]	; 0x40
 80052ba:	4413      	add	r3, r2
 80052bc:	68a2      	ldr	r2, [r4, #8]
 80052be:	6063      	str	r3, [r4, #4]
 80052c0:	4293      	cmp	r3, r2
 80052c2:	d301      	bcc.n	80052c8 <prvCopyDataToQueue+0x38>
 80052c4:	6823      	ldr	r3, [r4, #0]
 80052c6:	6063      	str	r3, [r4, #4]
 80052c8:	2000      	movs	r0, #0
 80052ca:	e7ed      	b.n	80052a8 <prvCopyDataToQueue+0x18>
 80052cc:	68c0      	ldr	r0, [r0, #12]
 80052ce:	f003 fd15 	bl	8008cfc <memcpy>
 80052d2:	6c23      	ldr	r3, [r4, #64]	; 0x40
 80052d4:	68e2      	ldr	r2, [r4, #12]
 80052d6:	6821      	ldr	r1, [r4, #0]
 80052d8:	425b      	negs	r3, r3
 80052da:	441a      	add	r2, r3
 80052dc:	428a      	cmp	r2, r1
 80052de:	60e2      	str	r2, [r4, #12]
 80052e0:	bf3e      	ittt	cc
 80052e2:	68a2      	ldrcc	r2, [r4, #8]
 80052e4:	189b      	addcc	r3, r3, r2
 80052e6:	60e3      	strcc	r3, [r4, #12]
 80052e8:	2d02      	cmp	r5, #2
 80052ea:	d1ed      	bne.n	80052c8 <prvCopyDataToQueue+0x38>
 80052ec:	b10e      	cbz	r6, 80052f2 <prvCopyDataToQueue+0x62>
 80052ee:	3e01      	subs	r6, #1
 80052f0:	e7ea      	b.n	80052c8 <prvCopyDataToQueue+0x38>
 80052f2:	4630      	mov	r0, r6
 80052f4:	e7d8      	b.n	80052a8 <prvCopyDataToQueue+0x18>

080052f6 <prvCopyDataFromQueue>:
 80052f6:	4603      	mov	r3, r0
 80052f8:	b410      	push	{r4}
 80052fa:	6c1a      	ldr	r2, [r3, #64]	; 0x40
 80052fc:	4608      	mov	r0, r1
 80052fe:	b162      	cbz	r2, 800531a <prvCopyDataFromQueue+0x24>
 8005300:	68d9      	ldr	r1, [r3, #12]
 8005302:	689c      	ldr	r4, [r3, #8]
 8005304:	4411      	add	r1, r2
 8005306:	42a1      	cmp	r1, r4
 8005308:	60d9      	str	r1, [r3, #12]
 800530a:	bf24      	itt	cs
 800530c:	6819      	ldrcs	r1, [r3, #0]
 800530e:	60d9      	strcs	r1, [r3, #12]
 8005310:	68d9      	ldr	r1, [r3, #12]
 8005312:	f85d 4b04 	ldr.w	r4, [sp], #4
 8005316:	f003 bcf1 	b.w	8008cfc <memcpy>
 800531a:	f85d 4b04 	ldr.w	r4, [sp], #4
 800531e:	4770      	bx	lr

08005320 <prvUnlockQueue>:
 8005320:	b570      	push	{r4, r5, r6, lr}
 8005322:	4604      	mov	r4, r0
 8005324:	f001 fc0e 	bl	8006b44 <vPortEnterCritical>
 8005328:	f894 5045 	ldrb.w	r5, [r4, #69]	; 0x45
 800532c:	f104 0624 	add.w	r6, r4, #36	; 0x24
 8005330:	b26d      	sxtb	r5, r5
 8005332:	2d00      	cmp	r5, #0
 8005334:	dc14      	bgt.n	8005360 <prvUnlockQueue+0x40>
 8005336:	23ff      	movs	r3, #255	; 0xff
 8005338:	f884 3045 	strb.w	r3, [r4, #69]	; 0x45
 800533c:	f001 fc24 	bl	8006b88 <vPortExitCritical>
 8005340:	f001 fc00 	bl	8006b44 <vPortEnterCritical>
 8005344:	f894 5044 	ldrb.w	r5, [r4, #68]	; 0x44
 8005348:	f104 0610 	add.w	r6, r4, #16
 800534c:	b26d      	sxtb	r5, r5
 800534e:	2d00      	cmp	r5, #0
 8005350:	dc12      	bgt.n	8005378 <prvUnlockQueue+0x58>
 8005352:	23ff      	movs	r3, #255	; 0xff
 8005354:	f884 3044 	strb.w	r3, [r4, #68]	; 0x44
 8005358:	e8bd 4070 	ldmia.w	sp!, {r4, r5, r6, lr}
 800535c:	f001 bc14 	b.w	8006b88 <vPortExitCritical>
 8005360:	6a63      	ldr	r3, [r4, #36]	; 0x24
 8005362:	2b00      	cmp	r3, #0
 8005364:	d0e7      	beq.n	8005336 <prvUnlockQueue+0x16>
 8005366:	4630      	mov	r0, r6
 8005368:	f000 fed6 	bl	8006118 <xTaskRemoveFromEventList>
 800536c:	b108      	cbz	r0, 8005372 <prvUnlockQueue+0x52>
 800536e:	f000 ff5d 	bl	800622c <vTaskMissedYield>
 8005372:	3d01      	subs	r5, #1
 8005374:	b26d      	sxtb	r5, r5
 8005376:	e7dc      	b.n	8005332 <prvUnlockQueue+0x12>
 8005378:	6923      	ldr	r3, [r4, #16]
 800537a:	2b00      	cmp	r3, #0
 800537c:	d0e9      	beq.n	8005352 <prvUnlockQueue+0x32>
 800537e:	4630      	mov	r0, r6
 8005380:	f000 feca 	bl	8006118 <xTaskRemoveFromEventList>
 8005384:	b108      	cbz	r0, 800538a <prvUnlockQueue+0x6a>
 8005386:	f000 ff51 	bl	800622c <vTaskMissedYield>
 800538a:	3d01      	subs	r5, #1
 800538c:	b26d      	sxtb	r5, r5
 800538e:	e7de      	b.n	800534e <prvUnlockQueue+0x2e>

08005390 <xQueueGenericReset>:
 8005390:	b538      	push	{r3, r4, r5, lr}
 8005392:	460d      	mov	r5, r1
 8005394:	4604      	mov	r4, r0
 8005396:	b940      	cbnz	r0, 80053aa <xQueueGenericReset+0x1a>
 8005398:	f04f 0350 	mov.w	r3, #80	; 0x50
 800539c:	f383 8811 	msr	BASEPRI, r3
 80053a0:	f3bf 8f6f 	isb	sy
 80053a4:	f3bf 8f4f 	dsb	sy
 80053a8:	e7fe      	b.n	80053a8 <xQueueGenericReset+0x18>
 80053aa:	f001 fbcb 	bl	8006b44 <vPortEnterCritical>
 80053ae:	e9d4 300f 	ldrd	r3, r0, [r4, #60]	; 0x3c
 80053b2:	6822      	ldr	r2, [r4, #0]
 80053b4:	6062      	str	r2, [r4, #4]
 80053b6:	4343      	muls	r3, r0
 80053b8:	18d1      	adds	r1, r2, r3
 80053ba:	1a1b      	subs	r3, r3, r0
 80053bc:	4413      	add	r3, r2
 80053be:	60a1      	str	r1, [r4, #8]
 80053c0:	60e3      	str	r3, [r4, #12]
 80053c2:	2100      	movs	r1, #0
 80053c4:	23ff      	movs	r3, #255	; 0xff
 80053c6:	63a1      	str	r1, [r4, #56]	; 0x38
 80053c8:	f884 3044 	strb.w	r3, [r4, #68]	; 0x44
 80053cc:	f884 3045 	strb.w	r3, [r4, #69]	; 0x45
 80053d0:	b995      	cbnz	r5, 80053f8 <xQueueGenericReset+0x68>
 80053d2:	6923      	ldr	r3, [r4, #16]
 80053d4:	b163      	cbz	r3, 80053f0 <xQueueGenericReset+0x60>
 80053d6:	f104 0010 	add.w	r0, r4, #16
 80053da:	f000 fe9d 	bl	8006118 <xTaskRemoveFromEventList>
 80053de:	b138      	cbz	r0, 80053f0 <xQueueGenericReset+0x60>
 80053e0:	4b0a      	ldr	r3, [pc, #40]	; (800540c <xQueueGenericReset+0x7c>)
 80053e2:	f04f 5280 	mov.w	r2, #268435456	; 0x10000000
 80053e6:	601a      	str	r2, [r3, #0]
 80053e8:	f3bf 8f4f 	dsb	sy
 80053ec:	f3bf 8f6f 	isb	sy
 80053f0:	f001 fbca 	bl	8006b88 <vPortExitCritical>
 80053f4:	2001      	movs	r0, #1
 80053f6:	bd38      	pop	{r3, r4, r5, pc}
 80053f8:	f104 0010 	add.w	r0, r4, #16
 80053fc:	f7ff fefb 	bl	80051f6 <vListInitialise>
 8005400:	f104 0024 	add.w	r0, r4, #36	; 0x24
 8005404:	f7ff fef7 	bl	80051f6 <vListInitialise>
 8005408:	e7f2      	b.n	80053f0 <xQueueGenericReset+0x60>
 800540a:	bf00      	nop
 800540c:	e000ed04 	.word	0xe000ed04

08005410 <xQueueGenericCreateStatic>:
 8005410:	b513      	push	{r0, r1, r4, lr}
 8005412:	461c      	mov	r4, r3
 8005414:	b940      	cbnz	r0, 8005428 <xQueueGenericCreateStatic+0x18>
 8005416:	f04f 0350 	mov.w	r3, #80	; 0x50
 800541a:	f383 8811 	msr	BASEPRI, r3
 800541e:	f3bf 8f6f 	isb	sy
 8005422:	f3bf 8f4f 	dsb	sy
 8005426:	e7fe      	b.n	8005426 <xQueueGenericCreateStatic+0x16>
 8005428:	b943      	cbnz	r3, 800543c <xQueueGenericCreateStatic+0x2c>
 800542a:	f04f 0350 	mov.w	r3, #80	; 0x50
 800542e:	f383 8811 	msr	BASEPRI, r3
 8005432:	f3bf 8f6f 	isb	sy
 8005436:	f3bf 8f4f 	dsb	sy
 800543a:	e7fe      	b.n	800543a <xQueueGenericCreateStatic+0x2a>
 800543c:	b14a      	cbz	r2, 8005452 <xQueueGenericCreateStatic+0x42>
 800543e:	b991      	cbnz	r1, 8005466 <xQueueGenericCreateStatic+0x56>
 8005440:	f04f 0350 	mov.w	r3, #80	; 0x50
 8005444:	f383 8811 	msr	BASEPRI, r3
 8005448:	f3bf 8f6f 	isb	sy
 800544c:	f3bf 8f4f 	dsb	sy
 8005450:	e7fe      	b.n	8005450 <xQueueGenericCreateStatic+0x40>
 8005452:	b141      	cbz	r1, 8005466 <xQueueGenericCreateStatic+0x56>
 8005454:	f04f 0350 	mov.w	r3, #80	; 0x50
 8005458:	f383 8811 	msr	BASEPRI, r3
 800545c:	f3bf 8f6f 	isb	sy
 8005460:	f3bf 8f4f 	dsb	sy
 8005464:	e7fe      	b.n	8005464 <xQueueGenericCreateStatic+0x54>
 8005466:	2348      	movs	r3, #72	; 0x48
 8005468:	9301      	str	r3, [sp, #4]
 800546a:	9b01      	ldr	r3, [sp, #4]
 800546c:	2b48      	cmp	r3, #72	; 0x48
 800546e:	d008      	beq.n	8005482 <xQueueGenericCreateStatic+0x72>
 8005470:	f04f 0350 	mov.w	r3, #80	; 0x50
 8005474:	f383 8811 	msr	BASEPRI, r3
 8005478:	f3bf 8f6f 	isb	sy
 800547c:	f3bf 8f4f 	dsb	sy
 8005480:	e7fe      	b.n	8005480 <xQueueGenericCreateStatic+0x70>
 8005482:	2900      	cmp	r1, #0
 8005484:	bf08      	it	eq
 8005486:	4622      	moveq	r2, r4
 8005488:	9b01      	ldr	r3, [sp, #4]
 800548a:	6022      	str	r2, [r4, #0]
 800548c:	2301      	movs	r3, #1
 800548e:	e9c4 010f 	strd	r0, r1, [r4, #60]	; 0x3c
 8005492:	f884 3046 	strb.w	r3, [r4, #70]	; 0x46
 8005496:	4619      	mov	r1, r3
 8005498:	4620      	mov	r0, r4
 800549a:	f7ff ff79 	bl	8005390 <xQueueGenericReset>
 800549e:	4620      	mov	r0, r4
 80054a0:	b002      	add	sp, #8
 80054a2:	bd10      	pop	{r4, pc}

080054a4 <xQueueGenericCreate>:
 80054a4:	b570      	push	{r4, r5, r6, lr}
 80054a6:	460d      	mov	r5, r1
 80054a8:	4606      	mov	r6, r0
 80054aa:	b940      	cbnz	r0, 80054be <xQueueGenericCreate+0x1a>
 80054ac:	f04f 0350 	mov.w	r3, #80	; 0x50
 80054b0:	f383 8811 	msr	BASEPRI, r3
 80054b4:	f3bf 8f6f 	isb	sy
 80054b8:	f3bf 8f4f 	dsb	sy
 80054bc:	e7fe      	b.n	80054bc <xQueueGenericCreate+0x18>
 80054be:	4348      	muls	r0, r1
 80054c0:	3048      	adds	r0, #72	; 0x48
 80054c2:	f002 f819 	bl	80074f8 <pvPortMalloc>
 80054c6:	4604      	mov	r4, r0
 80054c8:	b150      	cbz	r0, 80054e0 <xQueueGenericCreate+0x3c>
 80054ca:	2300      	movs	r3, #0
 80054cc:	f880 3046 	strb.w	r3, [r0, #70]	; 0x46
 80054d0:	b945      	cbnz	r5, 80054e4 <xQueueGenericCreate+0x40>
 80054d2:	6020      	str	r0, [r4, #0]
 80054d4:	e9c4 650f 	strd	r6, r5, [r4, #60]	; 0x3c
 80054d8:	2101      	movs	r1, #1
 80054da:	4620      	mov	r0, r4
 80054dc:	f7ff ff58 	bl	8005390 <xQueueGenericReset>
 80054e0:	4620      	mov	r0, r4
 80054e2:	bd70      	pop	{r4, r5, r6, pc}
 80054e4:	f100 0348 	add.w	r3, r0, #72	; 0x48
 80054e8:	6003      	str	r3, [r0, #0]
 80054ea:	e7f3      	b.n	80054d4 <xQueueGenericCreate+0x30>

080054ec <xQueueGenericSend>:
 80054ec:	e92d 47ff 	stmdb	sp!, {r0, r1, r2, r3, r4, r5, r6, r7, r8, r9, sl, lr}
 80054f0:	4688      	mov	r8, r1
 80054f2:	9201      	str	r2, [sp, #4]
 80054f4:	461f      	mov	r7, r3
 80054f6:	4604      	mov	r4, r0
 80054f8:	b940      	cbnz	r0, 800550c <xQueueGenericSend+0x20>
 80054fa:	f04f 0350 	mov.w	r3, #80	; 0x50
 80054fe:	f383 8811 	msr	BASEPRI, r3
 8005502:	f3bf 8f6f 	isb	sy
 8005506:	f3bf 8f4f 	dsb	sy
 800550a:	e7fe      	b.n	800550a <xQueueGenericSend+0x1e>
 800550c:	b951      	cbnz	r1, 8005524 <xQueueGenericSend+0x38>
 800550e:	6c03      	ldr	r3, [r0, #64]	; 0x40
 8005510:	b143      	cbz	r3, 8005524 <xQueueGenericSend+0x38>
 8005512:	f04f 0350 	mov.w	r3, #80	; 0x50
 8005516:	f383 8811 	msr	BASEPRI, r3
 800551a:	f3bf 8f6f 	isb	sy
 800551e:	f3bf 8f4f 	dsb	sy
 8005522:	e7fe      	b.n	8005522 <xQueueGenericSend+0x36>
 8005524:	2f02      	cmp	r7, #2
 8005526:	d10b      	bne.n	8005540 <xQueueGenericSend+0x54>
 8005528:	6be3      	ldr	r3, [r4, #60]	; 0x3c
 800552a:	2b01      	cmp	r3, #1
 800552c:	d008      	beq.n	8005540 <xQueueGenericSend+0x54>
 800552e:	f04f 0350 	mov.w	r3, #80	; 0x50
 8005532:	f383 8811 	msr	BASEPRI, r3
 8005536:	f3bf 8f6f 	isb	sy
 800553a:	f3bf 8f4f 	dsb	sy
 800553e:	e7fe      	b.n	800553e <xQueueGenericSend+0x52>
 8005540:	f000 fe7a 	bl	8006238 <xTaskGetSchedulerState>
 8005544:	b950      	cbnz	r0, 800555c <xQueueGenericSend+0x70>
 8005546:	9e01      	ldr	r6, [sp, #4]
 8005548:	b14e      	cbz	r6, 800555e <xQueueGenericSend+0x72>
 800554a:	f04f 0350 	mov.w	r3, #80	; 0x50
 800554e:	f383 8811 	msr	BASEPRI, r3
 8005552:	f3bf 8f6f 	isb	sy
 8005556:	f3bf 8f4f 	dsb	sy
 800555a:	e7fe      	b.n	800555a <xQueueGenericSend+0x6e>
 800555c:	2600      	movs	r6, #0
 800555e:	f04f 0900 	mov.w	r9, #0
 8005562:	f8df a0e8 	ldr.w	sl, [pc, #232]	; 800564c <xQueueGenericSend+0x160>
 8005566:	e037      	b.n	80055d8 <xQueueGenericSend+0xec>
 8005568:	9d01      	ldr	r5, [sp, #4]
 800556a:	b91d      	cbnz	r5, 8005574 <xQueueGenericSend+0x88>
 800556c:	f001 fb0c 	bl	8006b88 <vPortExitCritical>
 8005570:	2000      	movs	r0, #0
 8005572:	e050      	b.n	8005616 <xQueueGenericSend+0x12a>
 8005574:	b916      	cbnz	r6, 800557c <xQueueGenericSend+0x90>
 8005576:	a802      	add	r0, sp, #8
 8005578:	f000 fe10 	bl	800619c <vTaskInternalSetTimeOutState>
 800557c:	f001 fb04 	bl	8006b88 <vPortExitCritical>
 8005580:	f000 fc3c 	bl	8005dfc <vTaskSuspendAll>
 8005584:	f001 fade 	bl	8006b44 <vPortEnterCritical>
 8005588:	f894 3044 	ldrb.w	r3, [r4, #68]	; 0x44
 800558c:	2bff      	cmp	r3, #255	; 0xff
 800558e:	bf08      	it	eq
 8005590:	f884 9044 	strbeq.w	r9, [r4, #68]	; 0x44
 8005594:	f894 3045 	ldrb.w	r3, [r4, #69]	; 0x45
 8005598:	2bff      	cmp	r3, #255	; 0xff
 800559a:	bf08      	it	eq
 800559c:	f884 9045 	strbeq.w	r9, [r4, #69]	; 0x45
 80055a0:	f001 faf2 	bl	8006b88 <vPortExitCritical>
 80055a4:	a901      	add	r1, sp, #4
 80055a6:	a802      	add	r0, sp, #8
 80055a8:	f000 fe04 	bl	80061b4 <xTaskCheckForTimeOut>
 80055ac:	2800      	cmp	r0, #0
 80055ae:	d146      	bne.n	800563e <xQueueGenericSend+0x152>
 80055b0:	f001 fac8 	bl	8006b44 <vPortEnterCritical>
 80055b4:	6ba2      	ldr	r2, [r4, #56]	; 0x38
 80055b6:	6be3      	ldr	r3, [r4, #60]	; 0x3c
 80055b8:	429a      	cmp	r2, r3
 80055ba:	d12f      	bne.n	800561c <xQueueGenericSend+0x130>
 80055bc:	f001 fae4 	bl	8006b88 <vPortExitCritical>
 80055c0:	9901      	ldr	r1, [sp, #4]
 80055c2:	f104 0010 	add.w	r0, r4, #16
 80055c6:	f000 fd6f 	bl	80060a8 <vTaskPlaceOnEventList>
 80055ca:	4620      	mov	r0, r4
 80055cc:	f7ff fea8 	bl	8005320 <prvUnlockQueue>
 80055d0:	f000 fcb4 	bl	8005f3c <xTaskResumeAll>
 80055d4:	b350      	cbz	r0, 800562c <xQueueGenericSend+0x140>
 80055d6:	2601      	movs	r6, #1
 80055d8:	f001 fab4 	bl	8006b44 <vPortEnterCritical>
 80055dc:	6ba2      	ldr	r2, [r4, #56]	; 0x38
 80055de:	6be3      	ldr	r3, [r4, #60]	; 0x3c
 80055e0:	429a      	cmp	r2, r3
 80055e2:	d301      	bcc.n	80055e8 <xQueueGenericSend+0xfc>
 80055e4:	2f02      	cmp	r7, #2
 80055e6:	d1bf      	bne.n	8005568 <xQueueGenericSend+0x7c>
 80055e8:	463a      	mov	r2, r7
 80055ea:	4641      	mov	r1, r8
 80055ec:	4620      	mov	r0, r4
 80055ee:	f7ff fe4f 	bl	8005290 <prvCopyDataToQueue>
 80055f2:	6a63      	ldr	r3, [r4, #36]	; 0x24
 80055f4:	b11b      	cbz	r3, 80055fe <xQueueGenericSend+0x112>
 80055f6:	f104 0024 	add.w	r0, r4, #36	; 0x24
 80055fa:	f000 fd8d 	bl	8006118 <xTaskRemoveFromEventList>
 80055fe:	b138      	cbz	r0, 8005610 <xQueueGenericSend+0x124>
 8005600:	4b12      	ldr	r3, [pc, #72]	; (800564c <xQueueGenericSend+0x160>)
 8005602:	f04f 5280 	mov.w	r2, #268435456	; 0x10000000
 8005606:	601a      	str	r2, [r3, #0]
 8005608:	f3bf 8f4f 	dsb	sy
 800560c:	f3bf 8f6f 	isb	sy
 8005610:	f001 faba 	bl	8006b88 <vPortExitCritical>
 8005614:	2001      	movs	r0, #1
 8005616:	b004      	add	sp, #16
 8005618:	e8bd 87f0 	ldmia.w	sp!, {r4, r5, r6, r7, r8, r9, sl, pc}
 800561c:	f001 fab4 	bl	8006b88 <vPortExitCritical>
 8005620:	4620      	mov	r0, r4
 8005622:	f7ff fe7d 	bl	8005320 <prvUnlockQueue>
 8005626:	f000 fc89 	bl	8005f3c <xTaskResumeAll>
 800562a:	e7d4      	b.n	80055d6 <xQueueGenericSend+0xea>
 800562c:	f04f 5380 	mov.w	r3, #268435456	; 0x10000000
 8005630:	f8ca 3000 	str.w	r3, [sl]
 8005634:	f3bf 8f4f 	dsb	sy
 8005638:	f3bf 8f6f 	isb	sy
 800563c:	e7cb      	b.n	80055d6 <xQueueGenericSend+0xea>
 800563e:	4620      	mov	r0, r4
 8005640:	f7ff fe6e 	bl	8005320 <prvUnlockQueue>
 8005644:	f000 fc7a 	bl	8005f3c <xTaskResumeAll>
 8005648:	e792      	b.n	8005570 <xQueueGenericSend+0x84>
 800564a:	bf00      	nop
 800564c:	e000ed04 	.word	0xe000ed04

08005650 <xQueueGenericSendFromISR>:
 8005650:	e92d 43f8 	stmdb	sp!, {r3, r4, r5, r6, r7, r8, r9, lr}
 8005654:	4689      	mov	r9, r1
 8005656:	4690      	mov	r8, r2
 8005658:	461f      	mov	r7, r3
 800565a:	4604      	mov	r4, r0
 800565c:	b940      	cbnz	r0, 8005670 <xQueueGenericSendFromISR+0x20>
 800565e:	f04f 0350 	mov.w	r3, #80	; 0x50
 8005662:	f383 8811 	msr	BASEPRI, r3
 8005666:	f3bf 8f6f 	isb	sy
 800566a:	f3bf 8f4f 	dsb	sy
 800566e:	e7fe      	b.n	800566e <xQueueGenericSendFromISR+0x1e>
 8005670:	b951      	cbnz	r1, 8005688 <xQueueGenericSendFromISR+0x38>
 8005672:	6c03      	ldr	r3, [r0, #64]	; 0x40
 8005674:	b143      	cbz	r3, 8005688 <xQueueGenericSendFromISR+0x38>
 8005676:	f04f 0350 	mov.w	r3, #80	; 0x50
 800567a:	f383 8811 	msr	BASEPRI, r3
 800567e:	f3bf 8f6f 	isb	sy
 8005682:	f3bf 8f4f 	dsb	sy
 8005686:	e7fe      	b.n	8005686 <xQueueGenericSendFromISR+0x36>
 8005688:	2f02      	cmp	r7, #2
 800568a:	d10b      	bne.n	80056a4 <xQueueGenericSendFromISR+0x54>
 800568c:	6be3      	ldr	r3, [r4, #60]	; 0x3c
 800568e:	2b01      	cmp	r3, #1
 8005690:	d008      	beq.n	80056a4 <xQueueGenericSendFromISR+0x54>
 8005692:	f04f 0350 	mov.w	r3, #80	; 0x50
 8005696:	f383 8811 	msr	BASEPRI, r3
 800569a:	f3bf 8f6f 	isb	sy
 800569e:	f3bf 8f4f 	dsb	sy
 80056a2:	e7fe      	b.n	80056a2 <xQueueGenericSendFromISR+0x52>
 80056a4:	f001 fb6c 	bl	8006d80 <vPortValidateInterruptPriority>
 80056a8:	f3ef 8611 	mrs	r6, BASEPRI
 80056ac:	f04f 0350 	mov.w	r3, #80	; 0x50
 80056b0:	f383 8811 	msr	BASEPRI, r3
 80056b4:	f3bf 8f6f 	isb	sy
 80056b8:	f3bf 8f4f 	dsb	sy
 80056bc:	6ba2      	ldr	r2, [r4, #56]	; 0x38
 80056be:	6be3      	ldr	r3, [r4, #60]	; 0x3c
 80056c0:	429a      	cmp	r2, r3
 80056c2:	d301      	bcc.n	80056c8 <xQueueGenericSendFromISR+0x78>
 80056c4:	2f02      	cmp	r7, #2
 80056c6:	d122      	bne.n	800570e <xQueueGenericSendFromISR+0xbe>
 80056c8:	f894 5045 	ldrb.w	r5, [r4, #69]	; 0x45
 80056cc:	463a      	mov	r2, r7
 80056ce:	b26d      	sxtb	r5, r5
 80056d0:	4649      	mov	r1, r9
 80056d2:	4620      	mov	r0, r4
 80056d4:	f7ff fddc 	bl	8005290 <prvCopyDataToQueue>
 80056d8:	1c6b      	adds	r3, r5, #1
 80056da:	d113      	bne.n	8005704 <xQueueGenericSendFromISR+0xb4>
 80056dc:	6a63      	ldr	r3, [r4, #36]	; 0x24
 80056de:	b90b      	cbnz	r3, 80056e4 <xQueueGenericSendFromISR+0x94>
 80056e0:	2001      	movs	r0, #1
 80056e2:	e00b      	b.n	80056fc <xQueueGenericSendFromISR+0xac>
 80056e4:	f104 0024 	add.w	r0, r4, #36	; 0x24
 80056e8:	f000 fd16 	bl	8006118 <xTaskRemoveFromEventList>
 80056ec:	2800      	cmp	r0, #0
 80056ee:	d0f7      	beq.n	80056e0 <xQueueGenericSendFromISR+0x90>
 80056f0:	f1b8 0f00 	cmp.w	r8, #0
 80056f4:	d0f4      	beq.n	80056e0 <xQueueGenericSendFromISR+0x90>
 80056f6:	2001      	movs	r0, #1
 80056f8:	f8c8 0000 	str.w	r0, [r8]
 80056fc:	f386 8811 	msr	BASEPRI, r6
 8005700:	e8bd 83f8 	ldmia.w	sp!, {r3, r4, r5, r6, r7, r8, r9, pc}
 8005704:	3501      	adds	r5, #1
 8005706:	b26d      	sxtb	r5, r5
 8005708:	f884 5045 	strb.w	r5, [r4, #69]	; 0x45
 800570c:	e7e8      	b.n	80056e0 <xQueueGenericSendFromISR+0x90>
 800570e:	2000      	movs	r0, #0
 8005710:	e7f4      	b.n	80056fc <xQueueGenericSendFromISR+0xac>
	...

08005714 <xQueueReceive>:
 8005714:	e92d 43f0 	stmdb	sp!, {r4, r5, r6, r7, r8, r9, lr}
 8005718:	b085      	sub	sp, #20
 800571a:	460f      	mov	r7, r1
 800571c:	9201      	str	r2, [sp, #4]
 800571e:	4604      	mov	r4, r0
 8005720:	b940      	cbnz	r0, 8005734 <xQueueReceive+0x20>
 8005722:	f04f 0350 	mov.w	r3, #80	; 0x50
 8005726:	f383 8811 	msr	BASEPRI, r3
 800572a:	f3bf 8f6f 	isb	sy
 800572e:	f3bf 8f4f 	dsb	sy
 8005732:	e7fe      	b.n	8005732 <xQueueReceive+0x1e>
 8005734:	b951      	cbnz	r1, 800574c <xQueueReceive+0x38>
 8005736:	6c03      	ldr	r3, [r0, #64]	; 0x40
 8005738:	b143      	cbz	r3, 800574c <xQueueReceive+0x38>
 800573a:	f04f 0350 	mov.w	r3, #80	; 0x50
 800573e:	f383 8811 	msr	BASEPRI, r3
 8005742:	f3bf 8f6f 	isb	sy
 8005746:	f3bf 8f4f 	dsb	sy
 800574a:	e7fe      	b.n	800574a <xQueueReceive+0x36>
 800574c:	f000 fd74 	bl	8006238 <xTaskGetSchedulerState>
 8005750:	b950      	cbnz	r0, 8005768 <xQueueReceive+0x54>
 8005752:	9e01      	ldr	r6, [sp, #4]
 8005754:	b14e      	cbz	r6, 800576a <xQueueReceive+0x56>
 8005756:	f04f 0350 	mov.w	r3, #80	; 0x50
 800575a:	f383 8811 	msr	BASEPRI, r3
 800575e:	f3bf 8f6f 	isb	sy
 8005762:	f3bf 8f4f 	dsb	sy
 8005766:	e7fe      	b.n	8005766 <xQueueReceive+0x52>
 8005768:	2600      	movs	r6, #0
 800576a:	f04f 0800 	mov.w	r8, #0
 800576e:	f8df 90e0 	ldr.w	r9, [pc, #224]	; 8005850 <xQueueReceive+0x13c>
 8005772:	e03b      	b.n	80057ec <xQueueReceive+0xd8>
 8005774:	9d01      	ldr	r5, [sp, #4]
 8005776:	b91d      	cbnz	r5, 8005780 <xQueueReceive+0x6c>
 8005778:	f001 fa06 	bl	8006b88 <vPortExitCritical>
 800577c:	2000      	movs	r0, #0
 800577e:	e052      	b.n	8005826 <xQueueReceive+0x112>
 8005780:	b916      	cbnz	r6, 8005788 <xQueueReceive+0x74>
 8005782:	a802      	add	r0, sp, #8
 8005784:	f000 fd0a 	bl	800619c <vTaskInternalSetTimeOutState>
 8005788:	f001 f9fe 	bl	8006b88 <vPortExitCritical>
 800578c:	f000 fb36 	bl	8005dfc <vTaskSuspendAll>
 8005790:	f001 f9d8 	bl	8006b44 <vPortEnterCritical>
 8005794:	f894 3044 	ldrb.w	r3, [r4, #68]	; 0x44
 8005798:	2bff      	cmp	r3, #255	; 0xff
 800579a:	bf08      	it	eq
 800579c:	f884 8044 	strbeq.w	r8, [r4, #68]	; 0x44
 80057a0:	f894 3045 	ldrb.w	r3, [r4, #69]	; 0x45
 80057a4:	2bff      	cmp	r3, #255	; 0xff
 80057a6:	bf08      	it	eq
 80057a8:	f884 8045 	strbeq.w	r8, [r4, #69]	; 0x45
 80057ac:	f001 f9ec 	bl	8006b88 <vPortExitCritical>
 80057b0:	a901      	add	r1, sp, #4
 80057b2:	a802      	add	r0, sp, #8
 80057b4:	f000 fcfe 	bl	80061b4 <xTaskCheckForTimeOut>
 80057b8:	2800      	cmp	r0, #0
 80057ba:	d13d      	bne.n	8005838 <xQueueReceive+0x124>
 80057bc:	4620      	mov	r0, r4
 80057be:	f7ff fd5c 	bl	800527a <prvIsQueueEmpty>
 80057c2:	b398      	cbz	r0, 800582c <xQueueReceive+0x118>
 80057c4:	9901      	ldr	r1, [sp, #4]
 80057c6:	f104 0024 	add.w	r0, r4, #36	; 0x24
 80057ca:	f000 fc6d 	bl	80060a8 <vTaskPlaceOnEventList>
 80057ce:	4620      	mov	r0, r4
 80057d0:	f7ff fda6 	bl	8005320 <prvUnlockQueue>
 80057d4:	f000 fbb2 	bl	8005f3c <xTaskResumeAll>
 80057d8:	b938      	cbnz	r0, 80057ea <xQueueReceive+0xd6>
 80057da:	f04f 5380 	mov.w	r3, #268435456	; 0x10000000
 80057de:	f8c9 3000 	str.w	r3, [r9]
 80057e2:	f3bf 8f4f 	dsb	sy
 80057e6:	f3bf 8f6f 	isb	sy
 80057ea:	2601      	movs	r6, #1
 80057ec:	f001 f9aa 	bl	8006b44 <vPortEnterCritical>
 80057f0:	6ba5      	ldr	r5, [r4, #56]	; 0x38
 80057f2:	2d00      	cmp	r5, #0
 80057f4:	d0be      	beq.n	8005774 <xQueueReceive+0x60>
 80057f6:	4639      	mov	r1, r7
 80057f8:	4620      	mov	r0, r4
 80057fa:	3d01      	subs	r5, #1
 80057fc:	f7ff fd7b 	bl	80052f6 <prvCopyDataFromQueue>
 8005800:	63a5      	str	r5, [r4, #56]	; 0x38
 8005802:	6923      	ldr	r3, [r4, #16]
 8005804:	b163      	cbz	r3, 8005820 <xQueueReceive+0x10c>
 8005806:	f104 0010 	add.w	r0, r4, #16
 800580a:	f000 fc85 	bl	8006118 <xTaskRemoveFromEventList>
 800580e:	b138      	cbz	r0, 8005820 <xQueueReceive+0x10c>
 8005810:	4b0f      	ldr	r3, [pc, #60]	; (8005850 <xQueueReceive+0x13c>)
 8005812:	f04f 5280 	mov.w	r2, #268435456	; 0x10000000
 8005816:	601a      	str	r2, [r3, #0]
 8005818:	f3bf 8f4f 	dsb	sy
 800581c:	f3bf 8f6f 	isb	sy
 8005820:	f001 f9b2 	bl	8006b88 <vPortExitCritical>
 8005824:	2001      	movs	r0, #1
 8005826:	b005      	add	sp, #20
 8005828:	e8bd 83f0 	ldmia.w	sp!, {r4, r5, r6, r7, r8, r9, pc}
 800582c:	4620      	mov	r0, r4
 800582e:	f7ff fd77 	bl	8005320 <prvUnlockQueue>
 8005832:	f000 fb83 	bl	8005f3c <xTaskResumeAll>
 8005836:	e7d8      	b.n	80057ea <xQueueReceive+0xd6>
 8005838:	4620      	mov	r0, r4
 800583a:	f7ff fd71 	bl	8005320 <prvUnlockQueue>
 800583e:	f000 fb7d 	bl	8005f3c <xTaskResumeAll>
 8005842:	4620      	mov	r0, r4
 8005844:	f7ff fd19 	bl	800527a <prvIsQueueEmpty>
 8005848:	2800      	cmp	r0, #0
 800584a:	d0ce      	beq.n	80057ea <xQueueReceive+0xd6>
 800584c:	e796      	b.n	800577c <xQueueReceive+0x68>
 800584e:	bf00      	nop
 8005850:	e000ed04 	.word	0xe000ed04

08005854 <xQueueReceiveFromISR>:
 8005854:	e92d 43f8 	stmdb	sp!, {r3, r4, r5, r6, r7, r8, r9, lr}
 8005858:	4689      	mov	r9, r1
 800585a:	4690      	mov	r8, r2
 800585c:	4605      	mov	r5, r0
 800585e:	b940      	cbnz	r0, 8005872 <xQueueReceiveFromISR+0x1e>
 8005860:	f04f 0350 	mov.w	r3, #80	; 0x50
 8005864:	f383 8811 	msr	BASEPRI, r3
 8005868:	f3bf 8f6f 	isb	sy
 800586c:	f3bf 8f4f 	dsb	sy
 8005870:	e7fe      	b.n	8005870 <xQueueReceiveFromISR+0x1c>
 8005872:	b951      	cbnz	r1, 800588a <xQueueReceiveFromISR+0x36>
 8005874:	6c03      	ldr	r3, [r0, #64]	; 0x40
 8005876:	b143      	cbz	r3, 800588a <xQueueReceiveFromISR+0x36>
 8005878:	f04f 0350 	mov.w	r3, #80	; 0x50
 800587c:	f383 8811 	msr	BASEPRI, r3
 8005880:	f3bf 8f6f 	isb	sy
 8005884:	f3bf 8f4f 	dsb	sy
 8005888:	e7fe      	b.n	8005888 <xQueueReceiveFromISR+0x34>
 800588a:	f001 fa79 	bl	8006d80 <vPortValidateInterruptPriority>
 800588e:	f3ef 8711 	mrs	r7, BASEPRI
 8005892:	f04f 0350 	mov.w	r3, #80	; 0x50
 8005896:	f383 8811 	msr	BASEPRI, r3
 800589a:	f3bf 8f6f 	isb	sy
 800589e:	f3bf 8f4f 	dsb	sy
 80058a2:	6bac      	ldr	r4, [r5, #56]	; 0x38
 80058a4:	b31c      	cbz	r4, 80058ee <xQueueReceiveFromISR+0x9a>
 80058a6:	f895 6044 	ldrb.w	r6, [r5, #68]	; 0x44
 80058aa:	4649      	mov	r1, r9
 80058ac:	b276      	sxtb	r6, r6
 80058ae:	4628      	mov	r0, r5
 80058b0:	f7ff fd21 	bl	80052f6 <prvCopyDataFromQueue>
 80058b4:	3c01      	subs	r4, #1
 80058b6:	1c73      	adds	r3, r6, #1
 80058b8:	63ac      	str	r4, [r5, #56]	; 0x38
 80058ba:	d113      	bne.n	80058e4 <xQueueReceiveFromISR+0x90>
 80058bc:	692b      	ldr	r3, [r5, #16]
 80058be:	b90b      	cbnz	r3, 80058c4 <xQueueReceiveFromISR+0x70>
 80058c0:	2001      	movs	r0, #1
 80058c2:	e00b      	b.n	80058dc <xQueueReceiveFromISR+0x88>
 80058c4:	f105 0010 	add.w	r0, r5, #16
 80058c8:	f000 fc26 	bl	8006118 <xTaskRemoveFromEventList>
 80058cc:	2800      	cmp	r0, #0
 80058ce:	d0f7      	beq.n	80058c0 <xQueueReceiveFromISR+0x6c>
 80058d0:	f1b8 0f00 	cmp.w	r8, #0
 80058d4:	d0f4      	beq.n	80058c0 <xQueueReceiveFromISR+0x6c>
 80058d6:	2001      	movs	r0, #1
 80058d8:	f8c8 0000 	str.w	r0, [r8]
 80058dc:	f387 8811 	msr	BASEPRI, r7
 80058e0:	e8bd 83f8 	ldmia.w	sp!, {r3, r4, r5, r6, r7, r8, r9, pc}
 80058e4:	3601      	adds	r6, #1
 80058e6:	b276      	sxtb	r6, r6
 80058e8:	f885 6044 	strb.w	r6, [r5, #68]	; 0x44
 80058ec:	e7e8      	b.n	80058c0 <xQueueReceiveFromISR+0x6c>
 80058ee:	4620      	mov	r0, r4
 80058f0:	e7f4      	b.n	80058dc <xQueueReceiveFromISR+0x88>

080058f2 <uxQueueMessagesWaiting>:
 80058f2:	b510      	push	{r4, lr}
 80058f4:	4604      	mov	r4, r0
 80058f6:	b940      	cbnz	r0, 800590a <uxQueueMessagesWaiting+0x18>
 80058f8:	f04f 0350 	mov.w	r3, #80	; 0x50
 80058fc:	f383 8811 	msr	BASEPRI, r3
 8005900:	f3bf 8f6f 	isb	sy
 8005904:	f3bf 8f4f 	dsb	sy
 8005908:	e7fe      	b.n	8005908 <uxQueueMessagesWaiting+0x16>
 800590a:	f001 f91b 	bl	8006b44 <vPortEnterCritical>
 800590e:	6ba4      	ldr	r4, [r4, #56]	; 0x38
 8005910:	f001 f93a 	bl	8006b88 <vPortExitCritical>
 8005914:	4620      	mov	r0, r4
 8005916:	bd10      	pop	{r4, pc}

08005918 <uxQueueMessagesWaitingFromISR>:
 8005918:	b940      	cbnz	r0, 800592c <uxQueueMessagesWaitingFromISR+0x14>
 800591a:	f04f 0350 	mov.w	r3, #80	; 0x50
 800591e:	f383 8811 	msr	BASEPRI, r3
 8005922:	f3bf 8f6f 	isb	sy
 8005926:	f3bf 8f4f 	dsb	sy
 800592a:	e7fe      	b.n	800592a <uxQueueMessagesWaitingFromISR+0x12>
 800592c:	6b80      	ldr	r0, [r0, #56]	; 0x38
 800592e:	4770      	bx	lr

08005930 <vQueueAddToRegistry>:
 8005930:	b530      	push	{r4, r5, lr}
 8005932:	4a07      	ldr	r2, [pc, #28]	; (8005950 <vQueueAddToRegistry+0x20>)
 8005934:	2300      	movs	r3, #0
 8005936:	f852 5033 	ldr.w	r5, [r2, r3, lsl #3]
 800593a:	eb02 04c3 	add.w	r4, r2, r3, lsl #3
 800593e:	b91d      	cbnz	r5, 8005948 <vQueueAddToRegistry+0x18>
 8005940:	f842 1033 	str.w	r1, [r2, r3, lsl #3]
 8005944:	6060      	str	r0, [r4, #4]
 8005946:	bd30      	pop	{r4, r5, pc}
 8005948:	3301      	adds	r3, #1
 800594a:	2b08      	cmp	r3, #8
 800594c:	d1f3      	bne.n	8005936 <vQueueAddToRegistry+0x6>
 800594e:	e7fa      	b.n	8005946 <vQueueAddToRegistry+0x16>
 8005950:	200010a0 	.word	0x200010a0

08005954 <vQueueWaitForMessageRestricted>:
 8005954:	b570      	push	{r4, r5, r6, lr}
 8005956:	4604      	mov	r4, r0
 8005958:	460d      	mov	r5, r1
 800595a:	4616      	mov	r6, r2
 800595c:	f001 f8f2 	bl	8006b44 <vPortEnterCritical>
 8005960:	f894 3044 	ldrb.w	r3, [r4, #68]	; 0x44
 8005964:	2bff      	cmp	r3, #255	; 0xff
 8005966:	bf04      	itt	eq
 8005968:	2300      	moveq	r3, #0
 800596a:	f884 3044 	strbeq.w	r3, [r4, #68]	; 0x44
 800596e:	f894 3045 	ldrb.w	r3, [r4, #69]	; 0x45
 8005972:	2bff      	cmp	r3, #255	; 0xff
 8005974:	bf04      	itt	eq
 8005976:	2300      	moveq	r3, #0
 8005978:	f884 3045 	strbeq.w	r3, [r4, #69]	; 0x45
 800597c:	f001 f904 	bl	8006b88 <vPortExitCritical>
 8005980:	6ba3      	ldr	r3, [r4, #56]	; 0x38
 8005982:	b92b      	cbnz	r3, 8005990 <vQueueWaitForMessageRestricted+0x3c>
 8005984:	4632      	mov	r2, r6
 8005986:	4629      	mov	r1, r5
 8005988:	f104 0024 	add.w	r0, r4, #36	; 0x24
 800598c:	f000 fba6 	bl	80060dc <vTaskPlaceOnEventListRestricted>
 8005990:	4620      	mov	r0, r4
 8005992:	e8bd 4070 	ldmia.w	sp!, {r4, r5, r6, lr}
 8005996:	f7ff bcc3 	b.w	8005320 <prvUnlockQueue>
	...

0800599c <prvAddNewTaskToReadyList>:
 800599c:	e92d 41f0 	stmdb	sp!, {r4, r5, r6, r7, r8, lr}
 80059a0:	4606      	mov	r6, r0
 80059a2:	f001 f8cf 	bl	8006b44 <vPortEnterCritical>
 80059a6:	4b2e      	ldr	r3, [pc, #184]	; (8005a60 <prvAddNewTaskToReadyList+0xc4>)
 80059a8:	4c2e      	ldr	r4, [pc, #184]	; (8005a64 <prvAddNewTaskToReadyList+0xc8>)
 80059aa:	681a      	ldr	r2, [r3, #0]
 80059ac:	4f2e      	ldr	r7, [pc, #184]	; (8005a68 <prvAddNewTaskToReadyList+0xcc>)
 80059ae:	3201      	adds	r2, #1
 80059b0:	601a      	str	r2, [r3, #0]
 80059b2:	6825      	ldr	r5, [r4, #0]
 80059b4:	2d00      	cmp	r5, #0
 80059b6:	d148      	bne.n	8005a4a <prvAddNewTaskToReadyList+0xae>
 80059b8:	6026      	str	r6, [r4, #0]
 80059ba:	681b      	ldr	r3, [r3, #0]
 80059bc:	2b01      	cmp	r3, #1
 80059be:	d11f      	bne.n	8005a00 <prvAddNewTaskToReadyList+0x64>
 80059c0:	f04f 0814 	mov.w	r8, #20
 80059c4:	fb08 7005 	mla	r0, r8, r5, r7
 80059c8:	3501      	adds	r5, #1
 80059ca:	f7ff fc14 	bl	80051f6 <vListInitialise>
 80059ce:	2d07      	cmp	r5, #7
 80059d0:	d1f8      	bne.n	80059c4 <prvAddNewTaskToReadyList+0x28>
 80059d2:	f8df 80c0 	ldr.w	r8, [pc, #192]	; 8005a94 <prvAddNewTaskToReadyList+0xf8>
 80059d6:	4d25      	ldr	r5, [pc, #148]	; (8005a6c <prvAddNewTaskToReadyList+0xd0>)
 80059d8:	4640      	mov	r0, r8
 80059da:	f7ff fc0c 	bl	80051f6 <vListInitialise>
 80059de:	4628      	mov	r0, r5
 80059e0:	f7ff fc09 	bl	80051f6 <vListInitialise>
 80059e4:	4822      	ldr	r0, [pc, #136]	; (8005a70 <prvAddNewTaskToReadyList+0xd4>)
 80059e6:	f7ff fc06 	bl	80051f6 <vListInitialise>
 80059ea:	4822      	ldr	r0, [pc, #136]	; (8005a74 <prvAddNewTaskToReadyList+0xd8>)
 80059ec:	f7ff fc03 	bl	80051f6 <vListInitialise>
 80059f0:	4821      	ldr	r0, [pc, #132]	; (8005a78 <prvAddNewTaskToReadyList+0xdc>)
 80059f2:	f7ff fc00 	bl	80051f6 <vListInitialise>
 80059f6:	4b21      	ldr	r3, [pc, #132]	; (8005a7c <prvAddNewTaskToReadyList+0xe0>)
 80059f8:	f8c3 8000 	str.w	r8, [r3]
 80059fc:	4b20      	ldr	r3, [pc, #128]	; (8005a80 <prvAddNewTaskToReadyList+0xe4>)
 80059fe:	601d      	str	r5, [r3, #0]
 8005a00:	4a20      	ldr	r2, [pc, #128]	; (8005a84 <prvAddNewTaskToReadyList+0xe8>)
 8005a02:	4921      	ldr	r1, [pc, #132]	; (8005a88 <prvAddNewTaskToReadyList+0xec>)
 8005a04:	6813      	ldr	r3, [r2, #0]
 8005a06:	6808      	ldr	r0, [r1, #0]
 8005a08:	3301      	adds	r3, #1
 8005a0a:	6013      	str	r3, [r2, #0]
 8005a0c:	6af2      	ldr	r2, [r6, #44]	; 0x2c
 8005a0e:	2301      	movs	r3, #1
 8005a10:	4093      	lsls	r3, r2
 8005a12:	4303      	orrs	r3, r0
 8005a14:	2014      	movs	r0, #20
 8005a16:	600b      	str	r3, [r1, #0]
 8005a18:	fb00 7002 	mla	r0, r0, r2, r7
 8005a1c:	1d31      	adds	r1, r6, #4
 8005a1e:	f7ff fbf8 	bl	8005212 <vListInsertEnd>
 8005a22:	f001 f8b1 	bl	8006b88 <vPortExitCritical>
 8005a26:	4b19      	ldr	r3, [pc, #100]	; (8005a8c <prvAddNewTaskToReadyList+0xf0>)
 8005a28:	681b      	ldr	r3, [r3, #0]
 8005a2a:	b163      	cbz	r3, 8005a46 <prvAddNewTaskToReadyList+0xaa>
 8005a2c:	6823      	ldr	r3, [r4, #0]
 8005a2e:	6ada      	ldr	r2, [r3, #44]	; 0x2c
 8005a30:	6af3      	ldr	r3, [r6, #44]	; 0x2c
 8005a32:	429a      	cmp	r2, r3
 8005a34:	d207      	bcs.n	8005a46 <prvAddNewTaskToReadyList+0xaa>
 8005a36:	4b16      	ldr	r3, [pc, #88]	; (8005a90 <prvAddNewTaskToReadyList+0xf4>)
 8005a38:	f04f 5280 	mov.w	r2, #268435456	; 0x10000000
 8005a3c:	601a      	str	r2, [r3, #0]
 8005a3e:	f3bf 8f4f 	dsb	sy
 8005a42:	f3bf 8f6f 	isb	sy
 8005a46:	e8bd 81f0 	ldmia.w	sp!, {r4, r5, r6, r7, r8, pc}
 8005a4a:	4b10      	ldr	r3, [pc, #64]	; (8005a8c <prvAddNewTaskToReadyList+0xf0>)
 8005a4c:	681b      	ldr	r3, [r3, #0]
 8005a4e:	2b00      	cmp	r3, #0
 8005a50:	d1d6      	bne.n	8005a00 <prvAddNewTaskToReadyList+0x64>
 8005a52:	6823      	ldr	r3, [r4, #0]
 8005a54:	6ada      	ldr	r2, [r3, #44]	; 0x2c
 8005a56:	6af3      	ldr	r3, [r6, #44]	; 0x2c
 8005a58:	429a      	cmp	r2, r3
 8005a5a:	bf98      	it	ls
 8005a5c:	6026      	strls	r6, [r4, #0]
 8005a5e:	e7cf      	b.n	8005a00 <prvAddNewTaskToReadyList+0x64>
 8005a60:	20000318 	.word	0x20000318
 8005a64:	20000280 	.word	0x20000280
 8005a68:	2000028c 	.word	0x2000028c
 8005a6c:	20000344 	.word	0x20000344
 8005a70:	20000360 	.word	0x20000360
 8005a74:	2000038c 	.word	0x2000038c
 8005a78:	20000378 	.word	0x20000378
 8005a7c:	20000284 	.word	0x20000284
 8005a80:	20000288 	.word	0x20000288
 8005a84:	20000328 	.word	0x20000328
 8005a88:	2000032c 	.word	0x2000032c
 8005a8c:	20000374 	.word	0x20000374
 8005a90:	e000ed04 	.word	0xe000ed04
 8005a94:	20000330 	.word	0x20000330

08005a98 <prvDeleteTCB>:
 8005a98:	b510      	push	{r4, lr}
 8005a9a:	4604      	mov	r4, r0
 8005a9c:	304c      	adds	r0, #76	; 0x4c
 8005a9e:	f003 fe53 	bl	8009748 <_reclaim_reent>
 8005aa2:	f894 30b1 	ldrb.w	r3, [r4, #177]	; 0xb1
 8005aa6:	b93b      	cbnz	r3, 8005ab8 <prvDeleteTCB+0x20>
 8005aa8:	6b20      	ldr	r0, [r4, #48]	; 0x30
 8005aaa:	f001 fd27 	bl	80074fc <vPortFree>
 8005aae:	4620      	mov	r0, r4
 8005ab0:	e8bd 4010 	ldmia.w	sp!, {r4, lr}
 8005ab4:	f001 bd22 	b.w	80074fc <vPortFree>
 8005ab8:	2b01      	cmp	r3, #1
 8005aba:	d0f8      	beq.n	8005aae <prvDeleteTCB+0x16>
 8005abc:	2b02      	cmp	r3, #2
 8005abe:	d008      	beq.n	8005ad2 <prvDeleteTCB+0x3a>
 8005ac0:	f04f 0350 	mov.w	r3, #80	; 0x50
 8005ac4:	f383 8811 	msr	BASEPRI, r3
 8005ac8:	f3bf 8f6f 	isb	sy
 8005acc:	f3bf 8f4f 	dsb	sy
 8005ad0:	e7fe      	b.n	8005ad0 <prvDeleteTCB+0x38>
 8005ad2:	bd10      	pop	{r4, pc}

08005ad4 <prvIdleTask>:
 8005ad4:	b580      	push	{r7, lr}
 8005ad6:	f8df 805c 	ldr.w	r8, [pc, #92]	; 8005b34 <prvIdleTask+0x60>
 8005ada:	4f12      	ldr	r7, [pc, #72]	; (8005b24 <prvIdleTask+0x50>)
 8005adc:	4c12      	ldr	r4, [pc, #72]	; (8005b28 <prvIdleTask+0x54>)
 8005ade:	4d13      	ldr	r5, [pc, #76]	; (8005b2c <prvIdleTask+0x58>)
 8005ae0:	6823      	ldr	r3, [r4, #0]
 8005ae2:	b963      	cbnz	r3, 8005afe <prvIdleTask+0x2a>
 8005ae4:	4b12      	ldr	r3, [pc, #72]	; (8005b30 <prvIdleTask+0x5c>)
 8005ae6:	681b      	ldr	r3, [r3, #0]
 8005ae8:	2b01      	cmp	r3, #1
 8005aea:	d9f8      	bls.n	8005ade <prvIdleTask+0xa>
 8005aec:	f04f 5380 	mov.w	r3, #268435456	; 0x10000000
 8005af0:	f8c8 3000 	str.w	r3, [r8]
 8005af4:	f3bf 8f4f 	dsb	sy
 8005af8:	f3bf 8f6f 	isb	sy
 8005afc:	e7ee      	b.n	8005adc <prvIdleTask+0x8>
 8005afe:	f001 f821 	bl	8006b44 <vPortEnterCritical>
 8005b02:	68fb      	ldr	r3, [r7, #12]
 8005b04:	68de      	ldr	r6, [r3, #12]
 8005b06:	1d30      	adds	r0, r6, #4
 8005b08:	f7ff fba6 	bl	8005258 <uxListRemove>
 8005b0c:	682b      	ldr	r3, [r5, #0]
 8005b0e:	3b01      	subs	r3, #1
 8005b10:	602b      	str	r3, [r5, #0]
 8005b12:	6823      	ldr	r3, [r4, #0]
 8005b14:	3b01      	subs	r3, #1
 8005b16:	6023      	str	r3, [r4, #0]
 8005b18:	f001 f836 	bl	8006b88 <vPortExitCritical>
 8005b1c:	4630      	mov	r0, r6
 8005b1e:	f7ff ffbb 	bl	8005a98 <prvDeleteTCB>
 8005b22:	e7dd      	b.n	8005ae0 <prvIdleTask+0xc>
 8005b24:	2000038c 	.word	0x2000038c
 8005b28:	2000031c 	.word	0x2000031c
 8005b2c:	20000318 	.word	0x20000318
 8005b30:	2000028c 	.word	0x2000028c
 8005b34:	e000ed04 	.word	0xe000ed04

08005b38 <prvResetNextTaskUnblockTime>:
 8005b38:	4a06      	ldr	r2, [pc, #24]	; (8005b54 <prvResetNextTaskUnblockTime+0x1c>)
 8005b3a:	6813      	ldr	r3, [r2, #0]
 8005b3c:	6819      	ldr	r1, [r3, #0]
 8005b3e:	4b06      	ldr	r3, [pc, #24]	; (8005b58 <prvResetNextTaskUnblockTime+0x20>)
 8005b40:	b919      	cbnz	r1, 8005b4a <prvResetNextTaskUnblockTime+0x12>
 8005b42:	f04f 32ff 	mov.w	r2, #4294967295
 8005b46:	601a      	str	r2, [r3, #0]
 8005b48:	4770      	bx	lr
 8005b4a:	6812      	ldr	r2, [r2, #0]
 8005b4c:	68d2      	ldr	r2, [r2, #12]
 8005b4e:	68d2      	ldr	r2, [r2, #12]
 8005b50:	6852      	ldr	r2, [r2, #4]
 8005b52:	e7f8      	b.n	8005b46 <prvResetNextTaskUnblockTime+0xe>
 8005b54:	20000284 	.word	0x20000284
 8005b58:	20000358 	.word	0x20000358

08005b5c <prvInitialiseNewTask.isra.2>:
 8005b5c:	e92d 47f0 	stmdb	sp!, {r4, r5, r6, r7, r8, r9, sl, lr}
 8005b60:	e9dd 7409 	ldrd	r7, r4, [sp, #36]	; 0x24
 8005b64:	f102 4280 	add.w	r2, r2, #1073741824	; 0x40000000
 8005b68:	6b26      	ldr	r6, [r4, #48]	; 0x30
 8005b6a:	3a01      	subs	r2, #1
 8005b6c:	eb06 0682 	add.w	r6, r6, r2, lsl #2
 8005b70:	4680      	mov	r8, r0
 8005b72:	4699      	mov	r9, r3
 8005b74:	f026 0607 	bic.w	r6, r6, #7
 8005b78:	2900      	cmp	r1, #0
 8005b7a:	d03e      	beq.n	8005bfa <prvInitialiseNewTask.isra.2+0x9e>
 8005b7c:	1e4b      	subs	r3, r1, #1
 8005b7e:	f104 0234 	add.w	r2, r4, #52	; 0x34
 8005b82:	310f      	adds	r1, #15
 8005b84:	f813 0f01 	ldrb.w	r0, [r3, #1]!
 8005b88:	f802 0b01 	strb.w	r0, [r2], #1
 8005b8c:	7818      	ldrb	r0, [r3, #0]
 8005b8e:	b108      	cbz	r0, 8005b94 <prvInitialiseNewTask.isra.2+0x38>
 8005b90:	428b      	cmp	r3, r1
 8005b92:	d1f7      	bne.n	8005b84 <prvInitialiseNewTask.isra.2+0x28>
 8005b94:	2300      	movs	r3, #0
 8005b96:	f884 3043 	strb.w	r3, [r4, #67]	; 0x43
 8005b9a:	9d08      	ldr	r5, [sp, #32]
 8005b9c:	2d06      	cmp	r5, #6
 8005b9e:	bf28      	it	cs
 8005ba0:	2506      	movcs	r5, #6
 8005ba2:	f04f 0a00 	mov.w	sl, #0
 8005ba6:	62e5      	str	r5, [r4, #44]	; 0x2c
 8005ba8:	6465      	str	r5, [r4, #68]	; 0x44
 8005baa:	1d20      	adds	r0, r4, #4
 8005bac:	f8c4 a048 	str.w	sl, [r4, #72]	; 0x48
 8005bb0:	f7ff fb2c 	bl	800520c <vListInitialiseItem>
 8005bb4:	f1c5 0507 	rsb	r5, r5, #7
 8005bb8:	f104 0018 	add.w	r0, r4, #24
 8005bbc:	f7ff fb26 	bl	800520c <vListInitialiseItem>
 8005bc0:	f8c4 a0ac 	str.w	sl, [r4, #172]	; 0xac
 8005bc4:	2260      	movs	r2, #96	; 0x60
 8005bc6:	4651      	mov	r1, sl
 8005bc8:	6124      	str	r4, [r4, #16]
 8005bca:	61a5      	str	r5, [r4, #24]
 8005bcc:	6264      	str	r4, [r4, #36]	; 0x24
 8005bce:	f884 a0b0 	strb.w	sl, [r4, #176]	; 0xb0
 8005bd2:	f104 004c 	add.w	r0, r4, #76	; 0x4c
 8005bd6:	f003 f89c 	bl	8008d12 <memset>
 8005bda:	4b09      	ldr	r3, [pc, #36]	; (8005c00 <prvInitialiseNewTask.isra.2+0xa4>)
 8005bdc:	6523      	str	r3, [r4, #80]	; 0x50
 8005bde:	4b09      	ldr	r3, [pc, #36]	; (8005c04 <prvInitialiseNewTask.isra.2+0xa8>)
 8005be0:	6563      	str	r3, [r4, #84]	; 0x54
 8005be2:	4b09      	ldr	r3, [pc, #36]	; (8005c08 <prvInitialiseNewTask.isra.2+0xac>)
 8005be4:	65a3      	str	r3, [r4, #88]	; 0x58
 8005be6:	464a      	mov	r2, r9
 8005be8:	4641      	mov	r1, r8
 8005bea:	4630      	mov	r0, r6
 8005bec:	f000 ff82 	bl	8006af4 <pxPortInitialiseStack>
 8005bf0:	6020      	str	r0, [r4, #0]
 8005bf2:	b107      	cbz	r7, 8005bf6 <prvInitialiseNewTask.isra.2+0x9a>
 8005bf4:	603c      	str	r4, [r7, #0]
 8005bf6:	e8bd 87f0 	ldmia.w	sp!, {r4, r5, r6, r7, r8, r9, sl, pc}
 8005bfa:	f884 1034 	strb.w	r1, [r4, #52]	; 0x34
 8005bfe:	e7cc      	b.n	8005b9a <prvInitialiseNewTask.isra.2+0x3e>
 8005c00:	0800b970 	.word	0x0800b970
 8005c04:	0800b990 	.word	0x0800b990
 8005c08:	0800b950 	.word	0x0800b950

08005c0c <prvAddCurrentTaskToDelayedList>:
 8005c0c:	b5f8      	push	{r3, r4, r5, r6, r7, lr}
 8005c0e:	4b1b      	ldr	r3, [pc, #108]	; (8005c7c <prvAddCurrentTaskToDelayedList+0x70>)
 8005c10:	4e1b      	ldr	r6, [pc, #108]	; (8005c80 <prvAddCurrentTaskToDelayedList+0x74>)
 8005c12:	681c      	ldr	r4, [r3, #0]
 8005c14:	4605      	mov	r5, r0
 8005c16:	6830      	ldr	r0, [r6, #0]
 8005c18:	3004      	adds	r0, #4
 8005c1a:	460f      	mov	r7, r1
 8005c1c:	f7ff fb1c 	bl	8005258 <uxListRemove>
 8005c20:	4633      	mov	r3, r6
 8005c22:	b940      	cbnz	r0, 8005c36 <prvAddCurrentTaskToDelayedList+0x2a>
 8005c24:	6831      	ldr	r1, [r6, #0]
 8005c26:	4e17      	ldr	r6, [pc, #92]	; (8005c84 <prvAddCurrentTaskToDelayedList+0x78>)
 8005c28:	6ac9      	ldr	r1, [r1, #44]	; 0x2c
 8005c2a:	6832      	ldr	r2, [r6, #0]
 8005c2c:	2001      	movs	r0, #1
 8005c2e:	4088      	lsls	r0, r1
 8005c30:	ea22 0200 	bic.w	r2, r2, r0
 8005c34:	6032      	str	r2, [r6, #0]
 8005c36:	1c6a      	adds	r2, r5, #1
 8005c38:	d107      	bne.n	8005c4a <prvAddCurrentTaskToDelayedList+0x3e>
 8005c3a:	b137      	cbz	r7, 8005c4a <prvAddCurrentTaskToDelayedList+0x3e>
 8005c3c:	6819      	ldr	r1, [r3, #0]
 8005c3e:	4812      	ldr	r0, [pc, #72]	; (8005c88 <prvAddCurrentTaskToDelayedList+0x7c>)
 8005c40:	3104      	adds	r1, #4
 8005c42:	e8bd 40f8 	ldmia.w	sp!, {r3, r4, r5, r6, r7, lr}
 8005c46:	f7ff bae4 	b.w	8005212 <vListInsertEnd>
 8005c4a:	681a      	ldr	r2, [r3, #0]
 8005c4c:	1964      	adds	r4, r4, r5
 8005c4e:	6054      	str	r4, [r2, #4]
 8005c50:	d307      	bcc.n	8005c62 <prvAddCurrentTaskToDelayedList+0x56>
 8005c52:	4a0e      	ldr	r2, [pc, #56]	; (8005c8c <prvAddCurrentTaskToDelayedList+0x80>)
 8005c54:	6810      	ldr	r0, [r2, #0]
 8005c56:	6819      	ldr	r1, [r3, #0]
 8005c58:	e8bd 40f8 	ldmia.w	sp!, {r3, r4, r5, r6, r7, lr}
 8005c5c:	3104      	adds	r1, #4
 8005c5e:	f7ff bae4 	b.w	800522a <vListInsert>
 8005c62:	4a0b      	ldr	r2, [pc, #44]	; (8005c90 <prvAddCurrentTaskToDelayedList+0x84>)
 8005c64:	6810      	ldr	r0, [r2, #0]
 8005c66:	6819      	ldr	r1, [r3, #0]
 8005c68:	3104      	adds	r1, #4
 8005c6a:	f7ff fade 	bl	800522a <vListInsert>
 8005c6e:	4b09      	ldr	r3, [pc, #36]	; (8005c94 <prvAddCurrentTaskToDelayedList+0x88>)
 8005c70:	681a      	ldr	r2, [r3, #0]
 8005c72:	42a2      	cmp	r2, r4
 8005c74:	bf88      	it	hi
 8005c76:	601c      	strhi	r4, [r3, #0]
 8005c78:	bdf8      	pop	{r3, r4, r5, r6, r7, pc}
 8005c7a:	bf00      	nop
 8005c7c:	200003a0 	.word	0x200003a0
 8005c80:	20000280 	.word	0x20000280
 8005c84:	2000032c 	.word	0x2000032c
 8005c88:	20000378 	.word	0x20000378
 8005c8c:	20000288 	.word	0x20000288
 8005c90:	20000284 	.word	0x20000284
 8005c94:	20000358 	.word	0x20000358

08005c98 <xTaskCreateStatic>:
 8005c98:	b570      	push	{r4, r5, r6, lr}
 8005c9a:	b086      	sub	sp, #24
 8005c9c:	e9dd 540b 	ldrd	r5, r4, [sp, #44]	; 0x2c
 8005ca0:	b945      	cbnz	r5, 8005cb4 <xTaskCreateStatic+0x1c>
 8005ca2:	f04f 0350 	mov.w	r3, #80	; 0x50
 8005ca6:	f383 8811 	msr	BASEPRI, r3
 8005caa:	f3bf 8f6f 	isb	sy
 8005cae:	f3bf 8f4f 	dsb	sy
 8005cb2:	e7fe      	b.n	8005cb2 <xTaskCreateStatic+0x1a>
 8005cb4:	b944      	cbnz	r4, 8005cc8 <xTaskCreateStatic+0x30>
 8005cb6:	f04f 0350 	mov.w	r3, #80	; 0x50
 8005cba:	f383 8811 	msr	BASEPRI, r3
 8005cbe:	f3bf 8f6f 	isb	sy
 8005cc2:	f3bf 8f4f 	dsb	sy
 8005cc6:	e7fe      	b.n	8005cc6 <xTaskCreateStatic+0x2e>
 8005cc8:	26b4      	movs	r6, #180	; 0xb4
 8005cca:	9605      	str	r6, [sp, #20]
 8005ccc:	9e05      	ldr	r6, [sp, #20]
 8005cce:	2eb4      	cmp	r6, #180	; 0xb4
 8005cd0:	d008      	beq.n	8005ce4 <xTaskCreateStatic+0x4c>
 8005cd2:	f04f 0350 	mov.w	r3, #80	; 0x50
 8005cd6:	f383 8811 	msr	BASEPRI, r3
 8005cda:	f3bf 8f6f 	isb	sy
 8005cde:	f3bf 8f4f 	dsb	sy
 8005ce2:	e7fe      	b.n	8005ce2 <xTaskCreateStatic+0x4a>
 8005ce4:	6325      	str	r5, [r4, #48]	; 0x30
 8005ce6:	2502      	movs	r5, #2
 8005ce8:	f884 50b1 	strb.w	r5, [r4, #177]	; 0xb1
 8005cec:	ad04      	add	r5, sp, #16
 8005cee:	9501      	str	r5, [sp, #4]
 8005cf0:	9d0a      	ldr	r5, [sp, #40]	; 0x28
 8005cf2:	9402      	str	r4, [sp, #8]
 8005cf4:	9500      	str	r5, [sp, #0]
 8005cf6:	9e05      	ldr	r6, [sp, #20]
 8005cf8:	f7ff ff30 	bl	8005b5c <prvInitialiseNewTask.isra.2>
 8005cfc:	4620      	mov	r0, r4
 8005cfe:	f7ff fe4d 	bl	800599c <prvAddNewTaskToReadyList>
 8005d02:	9804      	ldr	r0, [sp, #16]
 8005d04:	b006      	add	sp, #24
 8005d06:	bd70      	pop	{r4, r5, r6, pc}

08005d08 <xTaskCreate>:
 8005d08:	e92d 43f0 	stmdb	sp!, {r4, r5, r6, r7, r8, r9, lr}
 8005d0c:	4607      	mov	r7, r0
 8005d0e:	b085      	sub	sp, #20
 8005d10:	0090      	lsls	r0, r2, #2
 8005d12:	4688      	mov	r8, r1
 8005d14:	4616      	mov	r6, r2
 8005d16:	4699      	mov	r9, r3
 8005d18:	f001 fbee 	bl	80074f8 <pvPortMalloc>
 8005d1c:	4605      	mov	r5, r0
 8005d1e:	b1e8      	cbz	r0, 8005d5c <xTaskCreate+0x54>
 8005d20:	20b4      	movs	r0, #180	; 0xb4
 8005d22:	f001 fbe9 	bl	80074f8 <pvPortMalloc>
 8005d26:	4604      	mov	r4, r0
 8005d28:	b1a8      	cbz	r0, 8005d56 <xTaskCreate+0x4e>
 8005d2a:	2300      	movs	r3, #0
 8005d2c:	f880 30b1 	strb.w	r3, [r0, #177]	; 0xb1
 8005d30:	9b0d      	ldr	r3, [sp, #52]	; 0x34
 8005d32:	6305      	str	r5, [r0, #48]	; 0x30
 8005d34:	9301      	str	r3, [sp, #4]
 8005d36:	9b0c      	ldr	r3, [sp, #48]	; 0x30
 8005d38:	9002      	str	r0, [sp, #8]
 8005d3a:	9300      	str	r3, [sp, #0]
 8005d3c:	4632      	mov	r2, r6
 8005d3e:	464b      	mov	r3, r9
 8005d40:	4641      	mov	r1, r8
 8005d42:	4638      	mov	r0, r7
 8005d44:	f7ff ff0a 	bl	8005b5c <prvInitialiseNewTask.isra.2>
 8005d48:	4620      	mov	r0, r4
 8005d4a:	f7ff fe27 	bl	800599c <prvAddNewTaskToReadyList>
 8005d4e:	2001      	movs	r0, #1
 8005d50:	b005      	add	sp, #20
 8005d52:	e8bd 83f0 	ldmia.w	sp!, {r4, r5, r6, r7, r8, r9, pc}
 8005d56:	4628      	mov	r0, r5
 8005d58:	f001 fbd0 	bl	80074fc <vPortFree>
 8005d5c:	f04f 30ff 	mov.w	r0, #4294967295
 8005d60:	e7f6      	b.n	8005d50 <xTaskCreate+0x48>
	...

08005d64 <vTaskStartScheduler>:
 8005d64:	b510      	push	{r4, lr}
 8005d66:	b088      	sub	sp, #32
 8005d68:	2400      	movs	r4, #0
 8005d6a:	aa07      	add	r2, sp, #28
 8005d6c:	a906      	add	r1, sp, #24
 8005d6e:	a805      	add	r0, sp, #20
 8005d70:	e9cd 4405 	strd	r4, r4, [sp, #20]
 8005d74:	f001 fac2 	bl	80072fc <vApplicationGetIdleTaskMemory>
 8005d78:	9b05      	ldr	r3, [sp, #20]
 8005d7a:	9302      	str	r3, [sp, #8]
 8005d7c:	9b06      	ldr	r3, [sp, #24]
 8005d7e:	9a07      	ldr	r2, [sp, #28]
 8005d80:	4917      	ldr	r1, [pc, #92]	; (8005de0 <vTaskStartScheduler+0x7c>)
 8005d82:	4818      	ldr	r0, [pc, #96]	; (8005de4 <vTaskStartScheduler+0x80>)
 8005d84:	e9cd 4300 	strd	r4, r3, [sp]
 8005d88:	4623      	mov	r3, r4
 8005d8a:	f7ff ff85 	bl	8005c98 <xTaskCreateStatic>
 8005d8e:	b1d0      	cbz	r0, 8005dc6 <vTaskStartScheduler+0x62>
 8005d90:	f000 fc5a 	bl	8006648 <xTimerCreateTimerTask>
 8005d94:	2801      	cmp	r0, #1
 8005d96:	d118      	bne.n	8005dca <vTaskStartScheduler+0x66>
 8005d98:	f04f 0350 	mov.w	r3, #80	; 0x50
 8005d9c:	f383 8811 	msr	BASEPRI, r3
 8005da0:	f3bf 8f6f 	isb	sy
 8005da4:	f3bf 8f4f 	dsb	sy
 8005da8:	4b0f      	ldr	r3, [pc, #60]	; (8005de8 <vTaskStartScheduler+0x84>)
 8005daa:	4a10      	ldr	r2, [pc, #64]	; (8005dec <vTaskStartScheduler+0x88>)
 8005dac:	681b      	ldr	r3, [r3, #0]
 8005dae:	334c      	adds	r3, #76	; 0x4c
 8005db0:	6013      	str	r3, [r2, #0]
 8005db2:	4b0f      	ldr	r3, [pc, #60]	; (8005df0 <vTaskStartScheduler+0x8c>)
 8005db4:	f04f 32ff 	mov.w	r2, #4294967295
 8005db8:	601a      	str	r2, [r3, #0]
 8005dba:	4b0e      	ldr	r3, [pc, #56]	; (8005df4 <vTaskStartScheduler+0x90>)
 8005dbc:	6018      	str	r0, [r3, #0]
 8005dbe:	4b0e      	ldr	r3, [pc, #56]	; (8005df8 <vTaskStartScheduler+0x94>)
 8005dc0:	601c      	str	r4, [r3, #0]
 8005dc2:	f000 ff57 	bl	8006c74 <xPortStartScheduler>
 8005dc6:	b008      	add	sp, #32
 8005dc8:	bd10      	pop	{r4, pc}
 8005dca:	3001      	adds	r0, #1
 8005dcc:	d1fb      	bne.n	8005dc6 <vTaskStartScheduler+0x62>
 8005dce:	f04f 0350 	mov.w	r3, #80	; 0x50
 8005dd2:	f383 8811 	msr	BASEPRI, r3
 8005dd6:	f3bf 8f6f 	isb	sy
 8005dda:	f3bf 8f4f 	dsb	sy
 8005dde:	e7fe      	b.n	8005dde <vTaskStartScheduler+0x7a>
 8005de0:	0800b3f9 	.word	0x0800b3f9
 8005de4:	08005ad5 	.word	0x08005ad5
 8005de8:	20000280 	.word	0x20000280
 8005dec:	20000094 	.word	0x20000094
 8005df0:	20000358 	.word	0x20000358
 8005df4:	20000374 	.word	0x20000374
 8005df8:	200003a0 	.word	0x200003a0

08005dfc <vTaskSuspendAll>:
 8005dfc:	4a02      	ldr	r2, [pc, #8]	; (8005e08 <vTaskSuspendAll+0xc>)
 8005dfe:	6813      	ldr	r3, [r2, #0]
 8005e00:	3301      	adds	r3, #1
 8005e02:	6013      	str	r3, [r2, #0]
 8005e04:	4770      	bx	lr
 8005e06:	bf00      	nop
 8005e08:	20000324 	.word	0x20000324

08005e0c <xTaskGetTickCount>:
 8005e0c:	4b01      	ldr	r3, [pc, #4]	; (8005e14 <xTaskGetTickCount+0x8>)
 8005e0e:	6818      	ldr	r0, [r3, #0]
 8005e10:	4770      	bx	lr
 8005e12:	bf00      	nop
 8005e14:	200003a0 	.word	0x200003a0

08005e18 <xTaskIncrementTick>:
 8005e18:	e92d 4ff8 	stmdb	sp!, {r3, r4, r5, r6, r7, r8, r9, sl, fp, lr}
 8005e1c:	4b3c      	ldr	r3, [pc, #240]	; (8005f10 <xTaskIncrementTick+0xf8>)
 8005e1e:	681b      	ldr	r3, [r3, #0]
 8005e20:	2b00      	cmp	r3, #0
 8005e22:	d16e      	bne.n	8005f02 <xTaskIncrementTick+0xea>
 8005e24:	4b3b      	ldr	r3, [pc, #236]	; (8005f14 <xTaskIncrementTick+0xfc>)
 8005e26:	681c      	ldr	r4, [r3, #0]
 8005e28:	3401      	adds	r4, #1
 8005e2a:	601c      	str	r4, [r3, #0]
 8005e2c:	b9bc      	cbnz	r4, 8005e5e <xTaskIncrementTick+0x46>
 8005e2e:	4b3a      	ldr	r3, [pc, #232]	; (8005f18 <xTaskIncrementTick+0x100>)
 8005e30:	681a      	ldr	r2, [r3, #0]
 8005e32:	6812      	ldr	r2, [r2, #0]
 8005e34:	b142      	cbz	r2, 8005e48 <xTaskIncrementTick+0x30>
 8005e36:	f04f 0350 	mov.w	r3, #80	; 0x50
 8005e3a:	f383 8811 	msr	BASEPRI, r3
 8005e3e:	f3bf 8f6f 	isb	sy
 8005e42:	f3bf 8f4f 	dsb	sy
 8005e46:	e7fe      	b.n	8005e46 <xTaskIncrementTick+0x2e>
 8005e48:	4a34      	ldr	r2, [pc, #208]	; (8005f1c <xTaskIncrementTick+0x104>)
 8005e4a:	6819      	ldr	r1, [r3, #0]
 8005e4c:	6810      	ldr	r0, [r2, #0]
 8005e4e:	6018      	str	r0, [r3, #0]
 8005e50:	6011      	str	r1, [r2, #0]
 8005e52:	4a33      	ldr	r2, [pc, #204]	; (8005f20 <xTaskIncrementTick+0x108>)
 8005e54:	6813      	ldr	r3, [r2, #0]
 8005e56:	3301      	adds	r3, #1
 8005e58:	6013      	str	r3, [r2, #0]
 8005e5a:	f7ff fe6d 	bl	8005b38 <prvResetNextTaskUnblockTime>
 8005e5e:	4d31      	ldr	r5, [pc, #196]	; (8005f24 <xTaskIncrementTick+0x10c>)
 8005e60:	4f31      	ldr	r7, [pc, #196]	; (8005f28 <xTaskIncrementTick+0x110>)
 8005e62:	682b      	ldr	r3, [r5, #0]
 8005e64:	42a3      	cmp	r3, r4
 8005e66:	f04f 0b00 	mov.w	fp, #0
 8005e6a:	d911      	bls.n	8005e90 <xTaskIncrementTick+0x78>
 8005e6c:	683a      	ldr	r2, [r7, #0]
 8005e6e:	4b2f      	ldr	r3, [pc, #188]	; (8005f2c <xTaskIncrementTick+0x114>)
 8005e70:	6ad1      	ldr	r1, [r2, #44]	; 0x2c
 8005e72:	2214      	movs	r2, #20
 8005e74:	434a      	muls	r2, r1
 8005e76:	589a      	ldr	r2, [r3, r2]
 8005e78:	2a02      	cmp	r2, #2
 8005e7a:	bf28      	it	cs
 8005e7c:	f04f 0b01 	movcs.w	fp, #1
 8005e80:	4a2b      	ldr	r2, [pc, #172]	; (8005f30 <xTaskIncrementTick+0x118>)
 8005e82:	6812      	ldr	r2, [r2, #0]
 8005e84:	2a00      	cmp	r2, #0
 8005e86:	bf0c      	ite	eq
 8005e88:	4658      	moveq	r0, fp
 8005e8a:	2001      	movne	r0, #1
 8005e8c:	e8bd 8ff8 	ldmia.w	sp!, {r3, r4, r5, r6, r7, r8, r9, sl, fp, pc}
 8005e90:	f8df a084 	ldr.w	sl, [pc, #132]	; 8005f18 <xTaskIncrementTick+0x100>
 8005e94:	f8df 90a0 	ldr.w	r9, [pc, #160]	; 8005f38 <xTaskIncrementTick+0x120>
 8005e98:	f8da 2000 	ldr.w	r2, [sl]
 8005e9c:	6812      	ldr	r2, [r2, #0]
 8005e9e:	b91a      	cbnz	r2, 8005ea8 <xTaskIncrementTick+0x90>
 8005ea0:	f04f 32ff 	mov.w	r2, #4294967295
 8005ea4:	602a      	str	r2, [r5, #0]
 8005ea6:	e7e1      	b.n	8005e6c <xTaskIncrementTick+0x54>
 8005ea8:	f8da 2000 	ldr.w	r2, [sl]
 8005eac:	68d2      	ldr	r2, [r2, #12]
 8005eae:	68d6      	ldr	r6, [r2, #12]
 8005eb0:	6871      	ldr	r1, [r6, #4]
 8005eb2:	428c      	cmp	r4, r1
 8005eb4:	d201      	bcs.n	8005eba <xTaskIncrementTick+0xa2>
 8005eb6:	6029      	str	r1, [r5, #0]
 8005eb8:	e7d8      	b.n	8005e6c <xTaskIncrementTick+0x54>
 8005eba:	f106 0804 	add.w	r8, r6, #4
 8005ebe:	4640      	mov	r0, r8
 8005ec0:	f7ff f9ca 	bl	8005258 <uxListRemove>
 8005ec4:	6ab1      	ldr	r1, [r6, #40]	; 0x28
 8005ec6:	b119      	cbz	r1, 8005ed0 <xTaskIncrementTick+0xb8>
 8005ec8:	f106 0018 	add.w	r0, r6, #24
 8005ecc:	f7ff f9c4 	bl	8005258 <uxListRemove>
 8005ed0:	6af0      	ldr	r0, [r6, #44]	; 0x2c
 8005ed2:	f8d9 3000 	ldr.w	r3, [r9]
 8005ed6:	2201      	movs	r2, #1
 8005ed8:	fa02 f100 	lsl.w	r1, r2, r0
 8005edc:	4319      	orrs	r1, r3
 8005ede:	4b13      	ldr	r3, [pc, #76]	; (8005f2c <xTaskIncrementTick+0x114>)
 8005ee0:	f8c9 1000 	str.w	r1, [r9]
 8005ee4:	f04f 0c14 	mov.w	ip, #20
 8005ee8:	4641      	mov	r1, r8
 8005eea:	fb0c 3000 	mla	r0, ip, r0, r3
 8005eee:	f7ff f990 	bl	8005212 <vListInsertEnd>
 8005ef2:	6838      	ldr	r0, [r7, #0]
 8005ef4:	6af1      	ldr	r1, [r6, #44]	; 0x2c
 8005ef6:	6ac2      	ldr	r2, [r0, #44]	; 0x2c
 8005ef8:	4291      	cmp	r1, r2
 8005efa:	bf28      	it	cs
 8005efc:	f04f 0b01 	movcs.w	fp, #1
 8005f00:	e7ca      	b.n	8005e98 <xTaskIncrementTick+0x80>
 8005f02:	4a0c      	ldr	r2, [pc, #48]	; (8005f34 <xTaskIncrementTick+0x11c>)
 8005f04:	6813      	ldr	r3, [r2, #0]
 8005f06:	3301      	adds	r3, #1
 8005f08:	6013      	str	r3, [r2, #0]
 8005f0a:	f04f 0b00 	mov.w	fp, #0
 8005f0e:	e7b7      	b.n	8005e80 <xTaskIncrementTick+0x68>
 8005f10:	20000324 	.word	0x20000324
 8005f14:	200003a0 	.word	0x200003a0
 8005f18:	20000284 	.word	0x20000284
 8005f1c:	20000288 	.word	0x20000288
 8005f20:	2000035c 	.word	0x2000035c
 8005f24:	20000358 	.word	0x20000358
 8005f28:	20000280 	.word	0x20000280
 8005f2c:	2000028c 	.word	0x2000028c
 8005f30:	200003a4 	.word	0x200003a4
 8005f34:	20000320 	.word	0x20000320
 8005f38:	2000032c 	.word	0x2000032c

08005f3c <xTaskResumeAll>:
 8005f3c:	e92d 43f8 	stmdb	sp!, {r3, r4, r5, r6, r7, r8, r9, lr}
 8005f40:	4c30      	ldr	r4, [pc, #192]	; (8006004 <xTaskResumeAll+0xc8>)
 8005f42:	6823      	ldr	r3, [r4, #0]
 8005f44:	b943      	cbnz	r3, 8005f58 <xTaskResumeAll+0x1c>
 8005f46:	f04f 0350 	mov.w	r3, #80	; 0x50
 8005f4a:	f383 8811 	msr	BASEPRI, r3
 8005f4e:	f3bf 8f6f 	isb	sy
 8005f52:	f3bf 8f4f 	dsb	sy
 8005f56:	e7fe      	b.n	8005f56 <xTaskResumeAll+0x1a>
 8005f58:	f000 fdf4 	bl	8006b44 <vPortEnterCritical>
 8005f5c:	6823      	ldr	r3, [r4, #0]
 8005f5e:	3b01      	subs	r3, #1
 8005f60:	6023      	str	r3, [r4, #0]
 8005f62:	6824      	ldr	r4, [r4, #0]
 8005f64:	b12c      	cbz	r4, 8005f72 <xTaskResumeAll+0x36>
 8005f66:	2400      	movs	r4, #0
 8005f68:	f000 fe0e 	bl	8006b88 <vPortExitCritical>
 8005f6c:	4620      	mov	r0, r4
 8005f6e:	e8bd 83f8 	ldmia.w	sp!, {r3, r4, r5, r6, r7, r8, r9, pc}
 8005f72:	4b25      	ldr	r3, [pc, #148]	; (8006008 <xTaskResumeAll+0xcc>)
 8005f74:	681b      	ldr	r3, [r3, #0]
 8005f76:	2b00      	cmp	r3, #0
 8005f78:	d0f5      	beq.n	8005f66 <xTaskResumeAll+0x2a>
 8005f7a:	4d24      	ldr	r5, [pc, #144]	; (800600c <xTaskResumeAll+0xd0>)
 8005f7c:	4e24      	ldr	r6, [pc, #144]	; (8006010 <xTaskResumeAll+0xd4>)
 8005f7e:	f8df 80a4 	ldr.w	r8, [pc, #164]	; 8006024 <xTaskResumeAll+0xe8>
 8005f82:	e01f      	b.n	8005fc4 <xTaskResumeAll+0x88>
 8005f84:	68eb      	ldr	r3, [r5, #12]
 8005f86:	68dc      	ldr	r4, [r3, #12]
 8005f88:	f104 0904 	add.w	r9, r4, #4
 8005f8c:	f104 0018 	add.w	r0, r4, #24
 8005f90:	f7ff f962 	bl	8005258 <uxListRemove>
 8005f94:	4648      	mov	r0, r9
 8005f96:	f7ff f95f 	bl	8005258 <uxListRemove>
 8005f9a:	6ae2      	ldr	r2, [r4, #44]	; 0x2c
 8005f9c:	6831      	ldr	r1, [r6, #0]
 8005f9e:	2701      	movs	r7, #1
 8005fa0:	fa07 f302 	lsl.w	r3, r7, r2
 8005fa4:	2014      	movs	r0, #20
 8005fa6:	430b      	orrs	r3, r1
 8005fa8:	fb00 8002 	mla	r0, r0, r2, r8
 8005fac:	4649      	mov	r1, r9
 8005fae:	6033      	str	r3, [r6, #0]
 8005fb0:	f7ff f92f 	bl	8005212 <vListInsertEnd>
 8005fb4:	4b17      	ldr	r3, [pc, #92]	; (8006014 <xTaskResumeAll+0xd8>)
 8005fb6:	6ae2      	ldr	r2, [r4, #44]	; 0x2c
 8005fb8:	681b      	ldr	r3, [r3, #0]
 8005fba:	6adb      	ldr	r3, [r3, #44]	; 0x2c
 8005fbc:	429a      	cmp	r2, r3
 8005fbe:	d301      	bcc.n	8005fc4 <xTaskResumeAll+0x88>
 8005fc0:	4b15      	ldr	r3, [pc, #84]	; (8006018 <xTaskResumeAll+0xdc>)
 8005fc2:	601f      	str	r7, [r3, #0]
 8005fc4:	682b      	ldr	r3, [r5, #0]
 8005fc6:	2b00      	cmp	r3, #0
 8005fc8:	d1dc      	bne.n	8005f84 <xTaskResumeAll+0x48>
 8005fca:	b10c      	cbz	r4, 8005fd0 <xTaskResumeAll+0x94>
 8005fcc:	f7ff fdb4 	bl	8005b38 <prvResetNextTaskUnblockTime>
 8005fd0:	4d12      	ldr	r5, [pc, #72]	; (800601c <xTaskResumeAll+0xe0>)
 8005fd2:	682c      	ldr	r4, [r5, #0]
 8005fd4:	b144      	cbz	r4, 8005fe8 <xTaskResumeAll+0xac>
 8005fd6:	4e10      	ldr	r6, [pc, #64]	; (8006018 <xTaskResumeAll+0xdc>)
 8005fd8:	2701      	movs	r7, #1
 8005fda:	f7ff ff1d 	bl	8005e18 <xTaskIncrementTick>
 8005fde:	b100      	cbz	r0, 8005fe2 <xTaskResumeAll+0xa6>
 8005fe0:	6037      	str	r7, [r6, #0]
 8005fe2:	3c01      	subs	r4, #1
 8005fe4:	d1f9      	bne.n	8005fda <xTaskResumeAll+0x9e>
 8005fe6:	602c      	str	r4, [r5, #0]
 8005fe8:	4b0b      	ldr	r3, [pc, #44]	; (8006018 <xTaskResumeAll+0xdc>)
 8005fea:	681b      	ldr	r3, [r3, #0]
 8005fec:	2b00      	cmp	r3, #0
 8005fee:	d0ba      	beq.n	8005f66 <xTaskResumeAll+0x2a>
 8005ff0:	4b0b      	ldr	r3, [pc, #44]	; (8006020 <xTaskResumeAll+0xe4>)
 8005ff2:	f04f 5280 	mov.w	r2, #268435456	; 0x10000000
 8005ff6:	601a      	str	r2, [r3, #0]
 8005ff8:	f3bf 8f4f 	dsb	sy
 8005ffc:	f3bf 8f6f 	isb	sy
 8006000:	2401      	movs	r4, #1
 8006002:	e7b1      	b.n	8005f68 <xTaskResumeAll+0x2c>
 8006004:	20000324 	.word	0x20000324
 8006008:	20000318 	.word	0x20000318
 800600c:	20000360 	.word	0x20000360
 8006010:	2000032c 	.word	0x2000032c
 8006014:	20000280 	.word	0x20000280
 8006018:	200003a4 	.word	0x200003a4
 800601c:	20000320 	.word	0x20000320
 8006020:	e000ed04 	.word	0xe000ed04
 8006024:	2000028c 	.word	0x2000028c

08006028 <vTaskSwitchContext>:
 8006028:	4b19      	ldr	r3, [pc, #100]	; (8006090 <vTaskSwitchContext+0x68>)
 800602a:	681a      	ldr	r2, [r3, #0]
 800602c:	4b19      	ldr	r3, [pc, #100]	; (8006094 <vTaskSwitchContext+0x6c>)
 800602e:	b510      	push	{r4, lr}
 8006030:	b112      	cbz	r2, 8006038 <vTaskSwitchContext+0x10>
 8006032:	2201      	movs	r2, #1
 8006034:	601a      	str	r2, [r3, #0]
 8006036:	bd10      	pop	{r4, pc}
 8006038:	601a      	str	r2, [r3, #0]
 800603a:	4b17      	ldr	r3, [pc, #92]	; (8006098 <vTaskSwitchContext+0x70>)
 800603c:	681b      	ldr	r3, [r3, #0]
 800603e:	fab3 f383 	clz	r3, r3
 8006042:	b2db      	uxtb	r3, r3
 8006044:	f1c3 031f 	rsb	r3, r3, #31
 8006048:	2214      	movs	r2, #20
 800604a:	4914      	ldr	r1, [pc, #80]	; (800609c <vTaskSwitchContext+0x74>)
 800604c:	435a      	muls	r2, r3
 800604e:	1888      	adds	r0, r1, r2
 8006050:	588c      	ldr	r4, [r1, r2]
 8006052:	b944      	cbnz	r4, 8006066 <vTaskSwitchContext+0x3e>
 8006054:	f04f 0350 	mov.w	r3, #80	; 0x50
 8006058:	f383 8811 	msr	BASEPRI, r3
 800605c:	f3bf 8f6f 	isb	sy
 8006060:	f3bf 8f4f 	dsb	sy
 8006064:	e7fe      	b.n	8006064 <vTaskSwitchContext+0x3c>
 8006066:	6844      	ldr	r4, [r0, #4]
 8006068:	3208      	adds	r2, #8
 800606a:	6864      	ldr	r4, [r4, #4]
 800606c:	6044      	str	r4, [r0, #4]
 800606e:	440a      	add	r2, r1
 8006070:	4294      	cmp	r4, r2
 8006072:	bf04      	itt	eq
 8006074:	6862      	ldreq	r2, [r4, #4]
 8006076:	6042      	streq	r2, [r0, #4]
 8006078:	2214      	movs	r2, #20
 800607a:	fb02 1303 	mla	r3, r2, r3, r1
 800607e:	685b      	ldr	r3, [r3, #4]
 8006080:	68da      	ldr	r2, [r3, #12]
 8006082:	4b07      	ldr	r3, [pc, #28]	; (80060a0 <vTaskSwitchContext+0x78>)
 8006084:	601a      	str	r2, [r3, #0]
 8006086:	681b      	ldr	r3, [r3, #0]
 8006088:	4a06      	ldr	r2, [pc, #24]	; (80060a4 <vTaskSwitchContext+0x7c>)
 800608a:	334c      	adds	r3, #76	; 0x4c
 800608c:	6013      	str	r3, [r2, #0]
 800608e:	e7d2      	b.n	8006036 <vTaskSwitchContext+0xe>
 8006090:	20000324 	.word	0x20000324
 8006094:	200003a4 	.word	0x200003a4
 8006098:	2000032c 	.word	0x2000032c
 800609c:	2000028c 	.word	0x2000028c
 80060a0:	20000280 	.word	0x20000280
 80060a4:	20000094 	.word	0x20000094

080060a8 <vTaskPlaceOnEventList>:
 80060a8:	b510      	push	{r4, lr}
 80060aa:	460c      	mov	r4, r1
 80060ac:	b940      	cbnz	r0, 80060c0 <vTaskPlaceOnEventList+0x18>
 80060ae:	f04f 0350 	mov.w	r3, #80	; 0x50
 80060b2:	f383 8811 	msr	BASEPRI, r3
 80060b6:	f3bf 8f6f 	isb	sy
 80060ba:	f3bf 8f4f 	dsb	sy
 80060be:	e7fe      	b.n	80060be <vTaskPlaceOnEventList+0x16>
 80060c0:	4b05      	ldr	r3, [pc, #20]	; (80060d8 <vTaskPlaceOnEventList+0x30>)
 80060c2:	6819      	ldr	r1, [r3, #0]
 80060c4:	3118      	adds	r1, #24
 80060c6:	f7ff f8b0 	bl	800522a <vListInsert>
 80060ca:	4620      	mov	r0, r4
 80060cc:	2101      	movs	r1, #1
 80060ce:	e8bd 4010 	ldmia.w	sp!, {r4, lr}
 80060d2:	f7ff bd9b 	b.w	8005c0c <prvAddCurrentTaskToDelayedList>
 80060d6:	bf00      	nop
 80060d8:	20000280 	.word	0x20000280

080060dc <vTaskPlaceOnEventListRestricted>:
 80060dc:	b538      	push	{r3, r4, r5, lr}
 80060de:	460d      	mov	r5, r1
 80060e0:	4614      	mov	r4, r2
 80060e2:	b940      	cbnz	r0, 80060f6 <vTaskPlaceOnEventListRestricted+0x1a>
 80060e4:	f04f 0350 	mov.w	r3, #80	; 0x50
 80060e8:	f383 8811 	msr	BASEPRI, r3
 80060ec:	f3bf 8f6f 	isb	sy
 80060f0:	f3bf 8f4f 	dsb	sy
 80060f4:	e7fe      	b.n	80060f4 <vTaskPlaceOnEventListRestricted+0x18>
 80060f6:	4b07      	ldr	r3, [pc, #28]	; (8006114 <vTaskPlaceOnEventListRestricted+0x38>)
 80060f8:	6819      	ldr	r1, [r3, #0]
 80060fa:	3118      	adds	r1, #24
 80060fc:	f7ff f889 	bl	8005212 <vListInsertEnd>
 8006100:	2c00      	cmp	r4, #0
 8006102:	4621      	mov	r1, r4
 8006104:	bf0c      	ite	eq
 8006106:	4628      	moveq	r0, r5
 8006108:	f04f 30ff 	movne.w	r0, #4294967295
 800610c:	e8bd 4038 	ldmia.w	sp!, {r3, r4, r5, lr}
 8006110:	f7ff bd7c 	b.w	8005c0c <prvAddCurrentTaskToDelayedList>
 8006114:	20000280 	.word	0x20000280

08006118 <xTaskRemoveFromEventList>:
 8006118:	b538      	push	{r3, r4, r5, lr}
 800611a:	68c3      	ldr	r3, [r0, #12]
 800611c:	68dc      	ldr	r4, [r3, #12]
 800611e:	b944      	cbnz	r4, 8006132 <xTaskRemoveFromEventList+0x1a>
 8006120:	f04f 0350 	mov.w	r3, #80	; 0x50
 8006124:	f383 8811 	msr	BASEPRI, r3
 8006128:	f3bf 8f6f 	isb	sy
 800612c:	f3bf 8f4f 	dsb	sy
 8006130:	e7fe      	b.n	8006130 <xTaskRemoveFromEventList+0x18>
 8006132:	f104 0518 	add.w	r5, r4, #24
 8006136:	4628      	mov	r0, r5
 8006138:	f7ff f88e 	bl	8005258 <uxListRemove>
 800613c:	4b11      	ldr	r3, [pc, #68]	; (8006184 <xTaskRemoveFromEventList+0x6c>)
 800613e:	681b      	ldr	r3, [r3, #0]
 8006140:	b9e3      	cbnz	r3, 800617c <xTaskRemoveFromEventList+0x64>
 8006142:	1d25      	adds	r5, r4, #4
 8006144:	4628      	mov	r0, r5
 8006146:	f7ff f887 	bl	8005258 <uxListRemove>
 800614a:	490f      	ldr	r1, [pc, #60]	; (8006188 <xTaskRemoveFromEventList+0x70>)
 800614c:	6ae2      	ldr	r2, [r4, #44]	; 0x2c
 800614e:	6808      	ldr	r0, [r1, #0]
 8006150:	2301      	movs	r3, #1
 8006152:	4093      	lsls	r3, r2
 8006154:	4303      	orrs	r3, r0
 8006156:	600b      	str	r3, [r1, #0]
 8006158:	4b0c      	ldr	r3, [pc, #48]	; (800618c <xTaskRemoveFromEventList+0x74>)
 800615a:	2014      	movs	r0, #20
 800615c:	4629      	mov	r1, r5
 800615e:	fb00 3002 	mla	r0, r0, r2, r3
 8006162:	f7ff f856 	bl	8005212 <vListInsertEnd>
 8006166:	4b0a      	ldr	r3, [pc, #40]	; (8006190 <xTaskRemoveFromEventList+0x78>)
 8006168:	6ae2      	ldr	r2, [r4, #44]	; 0x2c
 800616a:	681b      	ldr	r3, [r3, #0]
 800616c:	6adb      	ldr	r3, [r3, #44]	; 0x2c
 800616e:	429a      	cmp	r2, r3
 8006170:	bf83      	ittte	hi
 8006172:	4b08      	ldrhi	r3, [pc, #32]	; (8006194 <xTaskRemoveFromEventList+0x7c>)
 8006174:	2001      	movhi	r0, #1
 8006176:	6018      	strhi	r0, [r3, #0]
 8006178:	2000      	movls	r0, #0
 800617a:	bd38      	pop	{r3, r4, r5, pc}
 800617c:	4629      	mov	r1, r5
 800617e:	4806      	ldr	r0, [pc, #24]	; (8006198 <xTaskRemoveFromEventList+0x80>)
 8006180:	e7ef      	b.n	8006162 <xTaskRemoveFromEventList+0x4a>
 8006182:	bf00      	nop
 8006184:	20000324 	.word	0x20000324
 8006188:	2000032c 	.word	0x2000032c
 800618c:	2000028c 	.word	0x2000028c
 8006190:	20000280 	.word	0x20000280
 8006194:	200003a4 	.word	0x200003a4
 8006198:	20000360 	.word	0x20000360

0800619c <vTaskInternalSetTimeOutState>:
 800619c:	4b03      	ldr	r3, [pc, #12]	; (80061ac <vTaskInternalSetTimeOutState+0x10>)
 800619e:	681b      	ldr	r3, [r3, #0]
 80061a0:	6003      	str	r3, [r0, #0]
 80061a2:	4b03      	ldr	r3, [pc, #12]	; (80061b0 <vTaskInternalSetTimeOutState+0x14>)
 80061a4:	681b      	ldr	r3, [r3, #0]
 80061a6:	6043      	str	r3, [r0, #4]
 80061a8:	4770      	bx	lr
 80061aa:	bf00      	nop
 80061ac:	2000035c 	.word	0x2000035c
 80061b0:	200003a0 	.word	0x200003a0

080061b4 <xTaskCheckForTimeOut>:
 80061b4:	b5f8      	push	{r3, r4, r5, r6, r7, lr}
 80061b6:	460c      	mov	r4, r1
 80061b8:	4605      	mov	r5, r0
 80061ba:	b940      	cbnz	r0, 80061ce <xTaskCheckForTimeOut+0x1a>
 80061bc:	f04f 0350 	mov.w	r3, #80	; 0x50
 80061c0:	f383 8811 	msr	BASEPRI, r3
 80061c4:	f3bf 8f6f 	isb	sy
 80061c8:	f3bf 8f4f 	dsb	sy
 80061cc:	e7fe      	b.n	80061cc <xTaskCheckForTimeOut+0x18>
 80061ce:	b941      	cbnz	r1, 80061e2 <xTaskCheckForTimeOut+0x2e>
 80061d0:	f04f 0350 	mov.w	r3, #80	; 0x50
 80061d4:	f383 8811 	msr	BASEPRI, r3
 80061d8:	f3bf 8f6f 	isb	sy
 80061dc:	f3bf 8f4f 	dsb	sy
 80061e0:	e7fe      	b.n	80061e0 <xTaskCheckForTimeOut+0x2c>
 80061e2:	f000 fcaf 	bl	8006b44 <vPortEnterCritical>
 80061e6:	4b0f      	ldr	r3, [pc, #60]	; (8006224 <xTaskCheckForTimeOut+0x70>)
 80061e8:	6868      	ldr	r0, [r5, #4]
 80061ea:	6819      	ldr	r1, [r3, #0]
 80061ec:	6823      	ldr	r3, [r4, #0]
 80061ee:	1c5e      	adds	r6, r3, #1
 80061f0:	eba1 0200 	sub.w	r2, r1, r0
 80061f4:	d00d      	beq.n	8006212 <xTaskCheckForTimeOut+0x5e>
 80061f6:	4e0c      	ldr	r6, [pc, #48]	; (8006228 <xTaskCheckForTimeOut+0x74>)
 80061f8:	682f      	ldr	r7, [r5, #0]
 80061fa:	6836      	ldr	r6, [r6, #0]
 80061fc:	42b7      	cmp	r7, r6
 80061fe:	d001      	beq.n	8006204 <xTaskCheckForTimeOut+0x50>
 8006200:	4288      	cmp	r0, r1
 8006202:	d90d      	bls.n	8006220 <xTaskCheckForTimeOut+0x6c>
 8006204:	4293      	cmp	r3, r2
 8006206:	d909      	bls.n	800621c <xTaskCheckForTimeOut+0x68>
 8006208:	1a9b      	subs	r3, r3, r2
 800620a:	6023      	str	r3, [r4, #0]
 800620c:	4628      	mov	r0, r5
 800620e:	f7ff ffc5 	bl	800619c <vTaskInternalSetTimeOutState>
 8006212:	2400      	movs	r4, #0
 8006214:	f000 fcb8 	bl	8006b88 <vPortExitCritical>
 8006218:	4620      	mov	r0, r4
 800621a:	bdf8      	pop	{r3, r4, r5, r6, r7, pc}
 800621c:	2300      	movs	r3, #0
 800621e:	6023      	str	r3, [r4, #0]
 8006220:	2401      	movs	r4, #1
 8006222:	e7f7      	b.n	8006214 <xTaskCheckForTimeOut+0x60>
 8006224:	200003a0 	.word	0x200003a0
 8006228:	2000035c 	.word	0x2000035c

0800622c <vTaskMissedYield>:
 800622c:	4b01      	ldr	r3, [pc, #4]	; (8006234 <vTaskMissedYield+0x8>)
 800622e:	2201      	movs	r2, #1
 8006230:	601a      	str	r2, [r3, #0]
 8006232:	4770      	bx	lr
 8006234:	200003a4 	.word	0x200003a4

08006238 <xTaskGetSchedulerState>:
 8006238:	4b05      	ldr	r3, [pc, #20]	; (8006250 <xTaskGetSchedulerState+0x18>)
 800623a:	681b      	ldr	r3, [r3, #0]
 800623c:	b133      	cbz	r3, 800624c <xTaskGetSchedulerState+0x14>
 800623e:	4b05      	ldr	r3, [pc, #20]	; (8006254 <xTaskGetSchedulerState+0x1c>)
 8006240:	681b      	ldr	r3, [r3, #0]
 8006242:	2b00      	cmp	r3, #0
 8006244:	bf0c      	ite	eq
 8006246:	2002      	moveq	r0, #2
 8006248:	2000      	movne	r0, #0
 800624a:	4770      	bx	lr
 800624c:	2001      	movs	r0, #1
 800624e:	4770      	bx	lr
 8006250:	20000374 	.word	0x20000374
 8006254:	20000324 	.word	0x20000324

08006258 <xTaskPriorityDisinherit>:
 8006258:	b5f8      	push	{r3, r4, r5, r6, r7, lr}
 800625a:	4604      	mov	r4, r0
 800625c:	b908      	cbnz	r0, 8006262 <xTaskPriorityDisinherit+0xa>
 800625e:	2000      	movs	r0, #0
 8006260:	bdf8      	pop	{r3, r4, r5, r6, r7, pc}
 8006262:	4b22      	ldr	r3, [pc, #136]	; (80062ec <xTaskPriorityDisinherit+0x94>)
 8006264:	681b      	ldr	r3, [r3, #0]
 8006266:	4283      	cmp	r3, r0
 8006268:	d008      	beq.n	800627c <xTaskPriorityDisinherit+0x24>
 800626a:	f04f 0350 	mov.w	r3, #80	; 0x50
 800626e:	f383 8811 	msr	BASEPRI, r3
 8006272:	f3bf 8f6f 	isb	sy
 8006276:	f3bf 8f4f 	dsb	sy
 800627a:	e7fe      	b.n	800627a <xTaskPriorityDisinherit+0x22>
 800627c:	6c9b      	ldr	r3, [r3, #72]	; 0x48
 800627e:	b943      	cbnz	r3, 8006292 <xTaskPriorityDisinherit+0x3a>
 8006280:	f04f 0350 	mov.w	r3, #80	; 0x50
 8006284:	f383 8811 	msr	BASEPRI, r3
 8006288:	f3bf 8f6f 	isb	sy
 800628c:	f3bf 8f4f 	dsb	sy
 8006290:	e7fe      	b.n	8006290 <xTaskPriorityDisinherit+0x38>
 8006292:	6ac1      	ldr	r1, [r0, #44]	; 0x2c
 8006294:	6c42      	ldr	r2, [r0, #68]	; 0x44
 8006296:	3b01      	subs	r3, #1
 8006298:	4291      	cmp	r1, r2
 800629a:	6483      	str	r3, [r0, #72]	; 0x48
 800629c:	d0df      	beq.n	800625e <xTaskPriorityDisinherit+0x6>
 800629e:	2b00      	cmp	r3, #0
 80062a0:	d1dd      	bne.n	800625e <xTaskPriorityDisinherit+0x6>
 80062a2:	1d05      	adds	r5, r0, #4
 80062a4:	4628      	mov	r0, r5
 80062a6:	f7fe ffd7 	bl	8005258 <uxListRemove>
 80062aa:	4e11      	ldr	r6, [pc, #68]	; (80062f0 <xTaskPriorityDisinherit+0x98>)
 80062ac:	4a11      	ldr	r2, [pc, #68]	; (80062f4 <xTaskPriorityDisinherit+0x9c>)
 80062ae:	b950      	cbnz	r0, 80062c6 <xTaskPriorityDisinherit+0x6e>
 80062b0:	6ae7      	ldr	r7, [r4, #44]	; 0x2c
 80062b2:	2114      	movs	r1, #20
 80062b4:	4379      	muls	r1, r7
 80062b6:	5873      	ldr	r3, [r6, r1]
 80062b8:	b92b      	cbnz	r3, 80062c6 <xTaskPriorityDisinherit+0x6e>
 80062ba:	6813      	ldr	r3, [r2, #0]
 80062bc:	2001      	movs	r0, #1
 80062be:	40b8      	lsls	r0, r7
 80062c0:	ea23 0300 	bic.w	r3, r3, r0
 80062c4:	6013      	str	r3, [r2, #0]
 80062c6:	6c63      	ldr	r3, [r4, #68]	; 0x44
 80062c8:	62e3      	str	r3, [r4, #44]	; 0x2c
 80062ca:	f1c3 0107 	rsb	r1, r3, #7
 80062ce:	61a1      	str	r1, [r4, #24]
 80062d0:	6811      	ldr	r1, [r2, #0]
 80062d2:	2401      	movs	r4, #1
 80062d4:	fa04 f003 	lsl.w	r0, r4, r3
 80062d8:	4308      	orrs	r0, r1
 80062da:	6010      	str	r0, [r2, #0]
 80062dc:	2014      	movs	r0, #20
 80062de:	fb00 6003 	mla	r0, r0, r3, r6
 80062e2:	4629      	mov	r1, r5
 80062e4:	f7fe ff95 	bl	8005212 <vListInsertEnd>
 80062e8:	4620      	mov	r0, r4
 80062ea:	e7b9      	b.n	8006260 <xTaskPriorityDisinherit+0x8>
 80062ec:	20000280 	.word	0x20000280
 80062f0:	2000028c 	.word	0x2000028c
 80062f4:	2000032c 	.word	0x2000032c

080062f8 <xTaskNotifyWait>:
 80062f8:	e92d 41f0 	stmdb	sp!, {r4, r5, r6, r7, r8, lr}
 80062fc:	4c21      	ldr	r4, [pc, #132]	; (8006384 <xTaskNotifyWait+0x8c>)
 80062fe:	461e      	mov	r6, r3
 8006300:	4680      	mov	r8, r0
 8006302:	460f      	mov	r7, r1
 8006304:	4615      	mov	r5, r2
 8006306:	f000 fc1d 	bl	8006b44 <vPortEnterCritical>
 800630a:	6823      	ldr	r3, [r4, #0]
 800630c:	f893 30b0 	ldrb.w	r3, [r3, #176]	; 0xb0
 8006310:	2b02      	cmp	r3, #2
 8006312:	d016      	beq.n	8006342 <xTaskNotifyWait+0x4a>
 8006314:	6823      	ldr	r3, [r4, #0]
 8006316:	f8d3 20ac 	ldr.w	r2, [r3, #172]	; 0xac
 800631a:	ea22 0208 	bic.w	r2, r2, r8
 800631e:	f8c3 20ac 	str.w	r2, [r3, #172]	; 0xac
 8006322:	6823      	ldr	r3, [r4, #0]
 8006324:	2101      	movs	r1, #1
 8006326:	f883 10b0 	strb.w	r1, [r3, #176]	; 0xb0
 800632a:	b156      	cbz	r6, 8006342 <xTaskNotifyWait+0x4a>
 800632c:	4630      	mov	r0, r6
 800632e:	f7ff fc6d 	bl	8005c0c <prvAddCurrentTaskToDelayedList>
 8006332:	4b15      	ldr	r3, [pc, #84]	; (8006388 <xTaskNotifyWait+0x90>)
 8006334:	f04f 5280 	mov.w	r2, #268435456	; 0x10000000
 8006338:	601a      	str	r2, [r3, #0]
 800633a:	f3bf 8f4f 	dsb	sy
 800633e:	f3bf 8f6f 	isb	sy
 8006342:	f000 fc21 	bl	8006b88 <vPortExitCritical>
 8006346:	f000 fbfd 	bl	8006b44 <vPortEnterCritical>
 800634a:	b11d      	cbz	r5, 8006354 <xTaskNotifyWait+0x5c>
 800634c:	6823      	ldr	r3, [r4, #0]
 800634e:	f8d3 30ac 	ldr.w	r3, [r3, #172]	; 0xac
 8006352:	602b      	str	r3, [r5, #0]
 8006354:	6823      	ldr	r3, [r4, #0]
 8006356:	f893 30b0 	ldrb.w	r3, [r3, #176]	; 0xb0
 800635a:	2b02      	cmp	r3, #2
 800635c:	bf01      	itttt	eq
 800635e:	6823      	ldreq	r3, [r4, #0]
 8006360:	f8d3 10ac 	ldreq.w	r1, [r3, #172]	; 0xac
 8006364:	43b9      	biceq	r1, r7
 8006366:	f8c3 10ac 	streq.w	r1, [r3, #172]	; 0xac
 800636a:	6823      	ldr	r3, [r4, #0]
 800636c:	f04f 0200 	mov.w	r2, #0
 8006370:	bf0c      	ite	eq
 8006372:	2501      	moveq	r5, #1
 8006374:	2500      	movne	r5, #0
 8006376:	f883 20b0 	strb.w	r2, [r3, #176]	; 0xb0
 800637a:	f000 fc05 	bl	8006b88 <vPortExitCritical>
 800637e:	4628      	mov	r0, r5
 8006380:	e8bd 81f0 	ldmia.w	sp!, {r4, r5, r6, r7, r8, pc}
 8006384:	20000280 	.word	0x20000280
 8006388:	e000ed04 	.word	0xe000ed04

0800638c <xTaskGenericNotify>:
 800638c:	b5f8      	push	{r3, r4, r5, r6, r7, lr}
 800638e:	460e      	mov	r6, r1
 8006390:	4617      	mov	r7, r2
 8006392:	461d      	mov	r5, r3
 8006394:	4604      	mov	r4, r0
 8006396:	b940      	cbnz	r0, 80063aa <xTaskGenericNotify+0x1e>
 8006398:	f04f 0350 	mov.w	r3, #80	; 0x50
 800639c:	f383 8811 	msr	BASEPRI, r3
 80063a0:	f3bf 8f6f 	isb	sy
 80063a4:	f3bf 8f4f 	dsb	sy
 80063a8:	e7fe      	b.n	80063a8 <xTaskGenericNotify+0x1c>
 80063aa:	f000 fbcb 	bl	8006b44 <vPortEnterCritical>
 80063ae:	b115      	cbz	r5, 80063b6 <xTaskGenericNotify+0x2a>
 80063b0:	f8d4 30ac 	ldr.w	r3, [r4, #172]	; 0xac
 80063b4:	602b      	str	r3, [r5, #0]
 80063b6:	f894 50b0 	ldrb.w	r5, [r4, #176]	; 0xb0
 80063ba:	2302      	movs	r3, #2
 80063bc:	b2ed      	uxtb	r5, r5
 80063be:	f884 30b0 	strb.w	r3, [r4, #176]	; 0xb0
 80063c2:	2f04      	cmp	r7, #4
 80063c4:	d81a      	bhi.n	80063fc <xTaskGenericNotify+0x70>
 80063c6:	e8df f007 	tbb	[pc, r7]
 80063ca:	030e      	.short	0x030e
 80063cc:	0609      	.short	0x0609
 80063ce:	15          	.byte	0x15
 80063cf:	00          	.byte	0x00
 80063d0:	f8d4 10ac 	ldr.w	r1, [r4, #172]	; 0xac
 80063d4:	430e      	orrs	r6, r1
 80063d6:	f8c4 60ac 	str.w	r6, [r4, #172]	; 0xac
 80063da:	e004      	b.n	80063e6 <xTaskGenericNotify+0x5a>
 80063dc:	f8d4 30ac 	ldr.w	r3, [r4, #172]	; 0xac
 80063e0:	3301      	adds	r3, #1
 80063e2:	f8c4 30ac 	str.w	r3, [r4, #172]	; 0xac
 80063e6:	2d01      	cmp	r5, #1
 80063e8:	d015      	beq.n	8006416 <xTaskGenericNotify+0x8a>
 80063ea:	2501      	movs	r5, #1
 80063ec:	f000 fbcc 	bl	8006b88 <vPortExitCritical>
 80063f0:	4628      	mov	r0, r5
 80063f2:	bdf8      	pop	{r3, r4, r5, r6, r7, pc}
 80063f4:	2d02      	cmp	r5, #2
 80063f6:	d1ee      	bne.n	80063d6 <xTaskGenericNotify+0x4a>
 80063f8:	2500      	movs	r5, #0
 80063fa:	e7f7      	b.n	80063ec <xTaskGenericNotify+0x60>
 80063fc:	f8d4 30ac 	ldr.w	r3, [r4, #172]	; 0xac
 8006400:	3301      	adds	r3, #1
 8006402:	d0f0      	beq.n	80063e6 <xTaskGenericNotify+0x5a>
 8006404:	f04f 0350 	mov.w	r3, #80	; 0x50
 8006408:	f383 8811 	msr	BASEPRI, r3
 800640c:	f3bf 8f6f 	isb	sy
 8006410:	f3bf 8f4f 	dsb	sy
 8006414:	e7fe      	b.n	8006414 <xTaskGenericNotify+0x88>
 8006416:	1d26      	adds	r6, r4, #4
 8006418:	4630      	mov	r0, r6
 800641a:	f7fe ff1d 	bl	8005258 <uxListRemove>
 800641e:	4914      	ldr	r1, [pc, #80]	; (8006470 <xTaskGenericNotify+0xe4>)
 8006420:	6ae2      	ldr	r2, [r4, #44]	; 0x2c
 8006422:	6808      	ldr	r0, [r1, #0]
 8006424:	fa05 f302 	lsl.w	r3, r5, r2
 8006428:	4303      	orrs	r3, r0
 800642a:	600b      	str	r3, [r1, #0]
 800642c:	4b11      	ldr	r3, [pc, #68]	; (8006474 <xTaskGenericNotify+0xe8>)
 800642e:	2014      	movs	r0, #20
 8006430:	fb00 3002 	mla	r0, r0, r2, r3
 8006434:	4631      	mov	r1, r6
 8006436:	f7fe feec 	bl	8005212 <vListInsertEnd>
 800643a:	6aa3      	ldr	r3, [r4, #40]	; 0x28
 800643c:	b143      	cbz	r3, 8006450 <xTaskGenericNotify+0xc4>
 800643e:	f04f 0350 	mov.w	r3, #80	; 0x50
 8006442:	f383 8811 	msr	BASEPRI, r3
 8006446:	f3bf 8f6f 	isb	sy
 800644a:	f3bf 8f4f 	dsb	sy
 800644e:	e7fe      	b.n	800644e <xTaskGenericNotify+0xc2>
 8006450:	4b09      	ldr	r3, [pc, #36]	; (8006478 <xTaskGenericNotify+0xec>)
 8006452:	6ae2      	ldr	r2, [r4, #44]	; 0x2c
 8006454:	681b      	ldr	r3, [r3, #0]
 8006456:	6adb      	ldr	r3, [r3, #44]	; 0x2c
 8006458:	429a      	cmp	r2, r3
 800645a:	d9c6      	bls.n	80063ea <xTaskGenericNotify+0x5e>
 800645c:	4b07      	ldr	r3, [pc, #28]	; (800647c <xTaskGenericNotify+0xf0>)
 800645e:	f04f 5280 	mov.w	r2, #268435456	; 0x10000000
 8006462:	601a      	str	r2, [r3, #0]
 8006464:	f3bf 8f4f 	dsb	sy
 8006468:	f3bf 8f6f 	isb	sy
 800646c:	e7be      	b.n	80063ec <xTaskGenericNotify+0x60>
 800646e:	bf00      	nop
 8006470:	2000032c 	.word	0x2000032c
 8006474:	2000028c 	.word	0x2000028c
 8006478:	20000280 	.word	0x20000280
 800647c:	e000ed04 	.word	0xe000ed04

08006480 <xTaskGenericNotifyFromISR>:
 8006480:	e92d 43f8 	stmdb	sp!, {r3, r4, r5, r6, r7, r8, r9, lr}
 8006484:	f8dd 8020 	ldr.w	r8, [sp, #32]
 8006488:	460e      	mov	r6, r1
 800648a:	4691      	mov	r9, r2
 800648c:	461d      	mov	r5, r3
 800648e:	4604      	mov	r4, r0
 8006490:	b940      	cbnz	r0, 80064a4 <xTaskGenericNotifyFromISR+0x24>
 8006492:	f04f 0350 	mov.w	r3, #80	; 0x50
 8006496:	f383 8811 	msr	BASEPRI, r3
 800649a:	f3bf 8f6f 	isb	sy
 800649e:	f3bf 8f4f 	dsb	sy
 80064a2:	e7fe      	b.n	80064a2 <xTaskGenericNotifyFromISR+0x22>
 80064a4:	f000 fc6c 	bl	8006d80 <vPortValidateInterruptPriority>
 80064a8:	f3ef 8711 	mrs	r7, BASEPRI
 80064ac:	f04f 0350 	mov.w	r3, #80	; 0x50
 80064b0:	f383 8811 	msr	BASEPRI, r3
 80064b4:	f3bf 8f6f 	isb	sy
 80064b8:	f3bf 8f4f 	dsb	sy
 80064bc:	b115      	cbz	r5, 80064c4 <xTaskGenericNotifyFromISR+0x44>
 80064be:	f8d4 30ac 	ldr.w	r3, [r4, #172]	; 0xac
 80064c2:	602b      	str	r3, [r5, #0]
 80064c4:	f894 50b0 	ldrb.w	r5, [r4, #176]	; 0xb0
 80064c8:	2302      	movs	r3, #2
 80064ca:	b2ed      	uxtb	r5, r5
 80064cc:	f884 30b0 	strb.w	r3, [r4, #176]	; 0xb0
 80064d0:	f1b9 0f04 	cmp.w	r9, #4
 80064d4:	d81a      	bhi.n	800650c <xTaskGenericNotifyFromISR+0x8c>
 80064d6:	e8df f009 	tbb	[pc, r9]
 80064da:	030e      	.short	0x030e
 80064dc:	0609      	.short	0x0609
 80064de:	15          	.byte	0x15
 80064df:	00          	.byte	0x00
 80064e0:	f8d4 10ac 	ldr.w	r1, [r4, #172]	; 0xac
 80064e4:	430e      	orrs	r6, r1
 80064e6:	f8c4 60ac 	str.w	r6, [r4, #172]	; 0xac
 80064ea:	e004      	b.n	80064f6 <xTaskGenericNotifyFromISR+0x76>
 80064ec:	f8d4 30ac 	ldr.w	r3, [r4, #172]	; 0xac
 80064f0:	3301      	adds	r3, #1
 80064f2:	f8c4 30ac 	str.w	r3, [r4, #172]	; 0xac
 80064f6:	2d01      	cmp	r5, #1
 80064f8:	d015      	beq.n	8006526 <xTaskGenericNotifyFromISR+0xa6>
 80064fa:	2001      	movs	r0, #1
 80064fc:	f387 8811 	msr	BASEPRI, r7
 8006500:	e8bd 83f8 	ldmia.w	sp!, {r3, r4, r5, r6, r7, r8, r9, pc}
 8006504:	2d02      	cmp	r5, #2
 8006506:	d1ee      	bne.n	80064e6 <xTaskGenericNotifyFromISR+0x66>
 8006508:	2000      	movs	r0, #0
 800650a:	e7f7      	b.n	80064fc <xTaskGenericNotifyFromISR+0x7c>
 800650c:	f8d4 30ac 	ldr.w	r3, [r4, #172]	; 0xac
 8006510:	3301      	adds	r3, #1
 8006512:	d0f0      	beq.n	80064f6 <xTaskGenericNotifyFromISR+0x76>
 8006514:	f04f 0350 	mov.w	r3, #80	; 0x50
 8006518:	f383 8811 	msr	BASEPRI, r3
 800651c:	f3bf 8f6f 	isb	sy
 8006520:	f3bf 8f4f 	dsb	sy
 8006524:	e7fe      	b.n	8006524 <xTaskGenericNotifyFromISR+0xa4>
 8006526:	6aa3      	ldr	r3, [r4, #40]	; 0x28
 8006528:	b143      	cbz	r3, 800653c <xTaskGenericNotifyFromISR+0xbc>
 800652a:	f04f 0350 	mov.w	r3, #80	; 0x50
 800652e:	f383 8811 	msr	BASEPRI, r3
 8006532:	f3bf 8f6f 	isb	sy
 8006536:	f3bf 8f4f 	dsb	sy
 800653a:	e7fe      	b.n	800653a <xTaskGenericNotifyFromISR+0xba>
 800653c:	4b13      	ldr	r3, [pc, #76]	; (800658c <xTaskGenericNotifyFromISR+0x10c>)
 800653e:	681b      	ldr	r3, [r3, #0]
 8006540:	b9fb      	cbnz	r3, 8006582 <xTaskGenericNotifyFromISR+0x102>
 8006542:	1d26      	adds	r6, r4, #4
 8006544:	4630      	mov	r0, r6
 8006546:	f7fe fe87 	bl	8005258 <uxListRemove>
 800654a:	4a11      	ldr	r2, [pc, #68]	; (8006590 <xTaskGenericNotifyFromISR+0x110>)
 800654c:	6ae3      	ldr	r3, [r4, #44]	; 0x2c
 800654e:	6811      	ldr	r1, [r2, #0]
 8006550:	409d      	lsls	r5, r3
 8006552:	430d      	orrs	r5, r1
 8006554:	6015      	str	r5, [r2, #0]
 8006556:	4a0f      	ldr	r2, [pc, #60]	; (8006594 <xTaskGenericNotifyFromISR+0x114>)
 8006558:	2014      	movs	r0, #20
 800655a:	4631      	mov	r1, r6
 800655c:	fb00 2003 	mla	r0, r0, r3, r2
 8006560:	f7fe fe57 	bl	8005212 <vListInsertEnd>
 8006564:	4b0c      	ldr	r3, [pc, #48]	; (8006598 <xTaskGenericNotifyFromISR+0x118>)
 8006566:	6ae2      	ldr	r2, [r4, #44]	; 0x2c
 8006568:	681b      	ldr	r3, [r3, #0]
 800656a:	6adb      	ldr	r3, [r3, #44]	; 0x2c
 800656c:	429a      	cmp	r2, r3
 800656e:	d9c4      	bls.n	80064fa <xTaskGenericNotifyFromISR+0x7a>
 8006570:	2301      	movs	r3, #1
 8006572:	f1b8 0f00 	cmp.w	r8, #0
 8006576:	d001      	beq.n	800657c <xTaskGenericNotifyFromISR+0xfc>
 8006578:	f8c8 3000 	str.w	r3, [r8]
 800657c:	4a07      	ldr	r2, [pc, #28]	; (800659c <xTaskGenericNotifyFromISR+0x11c>)
 800657e:	6013      	str	r3, [r2, #0]
 8006580:	e7bb      	b.n	80064fa <xTaskGenericNotifyFromISR+0x7a>
 8006582:	f104 0118 	add.w	r1, r4, #24
 8006586:	4806      	ldr	r0, [pc, #24]	; (80065a0 <xTaskGenericNotifyFromISR+0x120>)
 8006588:	e7ea      	b.n	8006560 <xTaskGenericNotifyFromISR+0xe0>
 800658a:	bf00      	nop
 800658c:	20000324 	.word	0x20000324
 8006590:	2000032c 	.word	0x2000032c
 8006594:	2000028c 	.word	0x2000028c
 8006598:	20000280 	.word	0x20000280
 800659c:	200003a4 	.word	0x200003a4
 80065a0:	20000360 	.word	0x20000360

080065a4 <prvCheckForValidListAndQueue>:
 80065a4:	b5f7      	push	{r0, r1, r2, r4, r5, r6, r7, lr}
 80065a6:	4c11      	ldr	r4, [pc, #68]	; (80065ec <prvCheckForValidListAndQueue+0x48>)
 80065a8:	f000 facc 	bl	8006b44 <vPortEnterCritical>
 80065ac:	6825      	ldr	r5, [r4, #0]
 80065ae:	b9bd      	cbnz	r5, 80065e0 <prvCheckForValidListAndQueue+0x3c>
 80065b0:	4f0f      	ldr	r7, [pc, #60]	; (80065f0 <prvCheckForValidListAndQueue+0x4c>)
 80065b2:	4e10      	ldr	r6, [pc, #64]	; (80065f4 <prvCheckForValidListAndQueue+0x50>)
 80065b4:	4638      	mov	r0, r7
 80065b6:	f7fe fe1e 	bl	80051f6 <vListInitialise>
 80065ba:	4630      	mov	r0, r6
 80065bc:	f7fe fe1b 	bl	80051f6 <vListInitialise>
 80065c0:	4b0d      	ldr	r3, [pc, #52]	; (80065f8 <prvCheckForValidListAndQueue+0x54>)
 80065c2:	4a0e      	ldr	r2, [pc, #56]	; (80065fc <prvCheckForValidListAndQueue+0x58>)
 80065c4:	601f      	str	r7, [r3, #0]
 80065c6:	4b0e      	ldr	r3, [pc, #56]	; (8006600 <prvCheckForValidListAndQueue+0x5c>)
 80065c8:	210c      	movs	r1, #12
 80065ca:	601e      	str	r6, [r3, #0]
 80065cc:	200a      	movs	r0, #10
 80065ce:	9500      	str	r5, [sp, #0]
 80065d0:	4b0c      	ldr	r3, [pc, #48]	; (8006604 <prvCheckForValidListAndQueue+0x60>)
 80065d2:	f7fe ff1d 	bl	8005410 <xQueueGenericCreateStatic>
 80065d6:	6020      	str	r0, [r4, #0]
 80065d8:	b110      	cbz	r0, 80065e0 <prvCheckForValidListAndQueue+0x3c>
 80065da:	490b      	ldr	r1, [pc, #44]	; (8006608 <prvCheckForValidListAndQueue+0x64>)
 80065dc:	f7ff f9a8 	bl	8005930 <vQueueAddToRegistry>
 80065e0:	b003      	add	sp, #12
 80065e2:	e8bd 40f0 	ldmia.w	sp!, {r4, r5, r6, r7, lr}
 80065e6:	f000 bacf 	b.w	8006b88 <vPortExitCritical>
 80065ea:	bf00      	nop
 80065ec:	2000049c 	.word	0x2000049c
 80065f0:	20000428 	.word	0x20000428
 80065f4:	2000043c 	.word	0x2000043c
 80065f8:	200003a8 	.word	0x200003a8
 80065fc:	200003b0 	.word	0x200003b0
 8006600:	200003ac 	.word	0x200003ac
 8006604:	20000454 	.word	0x20000454
 8006608:	0800b3fe 	.word	0x0800b3fe

0800660c <prvInsertTimerInActiveList>:
 800660c:	4291      	cmp	r1, r2
 800660e:	b508      	push	{r3, lr}
 8006610:	6041      	str	r1, [r0, #4]
 8006612:	6100      	str	r0, [r0, #16]
 8006614:	d80a      	bhi.n	800662c <prvInsertTimerInActiveList+0x20>
 8006616:	1ad2      	subs	r2, r2, r3
 8006618:	6983      	ldr	r3, [r0, #24]
 800661a:	429a      	cmp	r2, r3
 800661c:	d20d      	bcs.n	800663a <prvInsertTimerInActiveList+0x2e>
 800661e:	4b08      	ldr	r3, [pc, #32]	; (8006640 <prvInsertTimerInActiveList+0x34>)
 8006620:	1d01      	adds	r1, r0, #4
 8006622:	6818      	ldr	r0, [r3, #0]
 8006624:	f7fe fe01 	bl	800522a <vListInsert>
 8006628:	2000      	movs	r0, #0
 800662a:	bd08      	pop	{r3, pc}
 800662c:	429a      	cmp	r2, r3
 800662e:	d201      	bcs.n	8006634 <prvInsertTimerInActiveList+0x28>
 8006630:	4299      	cmp	r1, r3
 8006632:	d202      	bcs.n	800663a <prvInsertTimerInActiveList+0x2e>
 8006634:	1d01      	adds	r1, r0, #4
 8006636:	4b03      	ldr	r3, [pc, #12]	; (8006644 <prvInsertTimerInActiveList+0x38>)
 8006638:	e7f3      	b.n	8006622 <prvInsertTimerInActiveList+0x16>
 800663a:	2001      	movs	r0, #1
 800663c:	e7f5      	b.n	800662a <prvInsertTimerInActiveList+0x1e>
 800663e:	bf00      	nop
 8006640:	200003ac 	.word	0x200003ac
 8006644:	200003a8 	.word	0x200003a8

08006648 <xTimerCreateTimerTask>:
 8006648:	b510      	push	{r4, lr}
 800664a:	b088      	sub	sp, #32
 800664c:	f7ff ffaa 	bl	80065a4 <prvCheckForValidListAndQueue>
 8006650:	4b12      	ldr	r3, [pc, #72]	; (800669c <xTimerCreateTimerTask+0x54>)
 8006652:	681b      	ldr	r3, [r3, #0]
 8006654:	b1b3      	cbz	r3, 8006684 <xTimerCreateTimerTask+0x3c>
 8006656:	2400      	movs	r4, #0
 8006658:	aa07      	add	r2, sp, #28
 800665a:	a906      	add	r1, sp, #24
 800665c:	a805      	add	r0, sp, #20
 800665e:	e9cd 4405 	strd	r4, r4, [sp, #20]
 8006662:	f000 fe57 	bl	8007314 <vApplicationGetTimerTaskMemory>
 8006666:	9b05      	ldr	r3, [sp, #20]
 8006668:	9302      	str	r3, [sp, #8]
 800666a:	9b06      	ldr	r3, [sp, #24]
 800666c:	9301      	str	r3, [sp, #4]
 800666e:	2302      	movs	r3, #2
 8006670:	9300      	str	r3, [sp, #0]
 8006672:	9a07      	ldr	r2, [sp, #28]
 8006674:	490a      	ldr	r1, [pc, #40]	; (80066a0 <xTimerCreateTimerTask+0x58>)
 8006676:	480b      	ldr	r0, [pc, #44]	; (80066a4 <xTimerCreateTimerTask+0x5c>)
 8006678:	4623      	mov	r3, r4
 800667a:	f7ff fb0d 	bl	8005c98 <xTaskCreateStatic>
 800667e:	4b0a      	ldr	r3, [pc, #40]	; (80066a8 <xTimerCreateTimerTask+0x60>)
 8006680:	6018      	str	r0, [r3, #0]
 8006682:	b940      	cbnz	r0, 8006696 <xTimerCreateTimerTask+0x4e>
 8006684:	f04f 0350 	mov.w	r3, #80	; 0x50
 8006688:	f383 8811 	msr	BASEPRI, r3
 800668c:	f3bf 8f6f 	isb	sy
 8006690:	f3bf 8f4f 	dsb	sy
 8006694:	e7fe      	b.n	8006694 <xTimerCreateTimerTask+0x4c>
 8006696:	2001      	movs	r0, #1
 8006698:	b008      	add	sp, #32
 800669a:	bd10      	pop	{r4, pc}
 800669c:	2000049c 	.word	0x2000049c
 80066a0:	0800b403 	.word	0x0800b403
 80066a4:	08006865 	.word	0x08006865
 80066a8:	200004a0 	.word	0x200004a0

080066ac <xTimerCreate>:
 80066ac:	e92d 41f0 	stmdb	sp!, {r4, r5, r6, r7, r8, lr}
 80066b0:	4680      	mov	r8, r0
 80066b2:	2028      	movs	r0, #40	; 0x28
 80066b4:	460d      	mov	r5, r1
 80066b6:	4616      	mov	r6, r2
 80066b8:	461f      	mov	r7, r3
 80066ba:	f000 ff1d 	bl	80074f8 <pvPortMalloc>
 80066be:	4604      	mov	r4, r0
 80066c0:	b1f0      	cbz	r0, 8006700 <xTimerCreate+0x54>
 80066c2:	2300      	movs	r3, #0
 80066c4:	f880 3024 	strb.w	r3, [r0, #36]	; 0x24
 80066c8:	b945      	cbnz	r5, 80066dc <xTimerCreate+0x30>
 80066ca:	f04f 0350 	mov.w	r3, #80	; 0x50
 80066ce:	f383 8811 	msr	BASEPRI, r3
 80066d2:	f3bf 8f6f 	isb	sy
 80066d6:	f3bf 8f4f 	dsb	sy
 80066da:	e7fe      	b.n	80066da <xTimerCreate+0x2e>
 80066dc:	f7ff ff62 	bl	80065a4 <prvCheckForValidListAndQueue>
 80066e0:	9b06      	ldr	r3, [sp, #24]
 80066e2:	f8c4 8000 	str.w	r8, [r4]
 80066e6:	e9c4 5706 	strd	r5, r7, [r4, #24]
 80066ea:	6223      	str	r3, [r4, #32]
 80066ec:	1d20      	adds	r0, r4, #4
 80066ee:	f7fe fd8d 	bl	800520c <vListInitialiseItem>
 80066f2:	b12e      	cbz	r6, 8006700 <xTimerCreate+0x54>
 80066f4:	f894 3024 	ldrb.w	r3, [r4, #36]	; 0x24
 80066f8:	f043 0304 	orr.w	r3, r3, #4
 80066fc:	f884 3024 	strb.w	r3, [r4, #36]	; 0x24
 8006700:	4620      	mov	r0, r4
 8006702:	e8bd 81f0 	ldmia.w	sp!, {r4, r5, r6, r7, r8, pc}

08006706 <xTimerCreateStatic>:
 8006706:	e92d 41f3 	stmdb	sp!, {r0, r1, r4, r5, r6, r7, r8, lr}
 800670a:	461f      	mov	r7, r3
 800670c:	2328      	movs	r3, #40	; 0x28
 800670e:	9301      	str	r3, [sp, #4]
 8006710:	9b01      	ldr	r3, [sp, #4]
 8006712:	9c09      	ldr	r4, [sp, #36]	; 0x24
 8006714:	2b28      	cmp	r3, #40	; 0x28
 8006716:	4680      	mov	r8, r0
 8006718:	460d      	mov	r5, r1
 800671a:	4616      	mov	r6, r2
 800671c:	d008      	beq.n	8006730 <xTimerCreateStatic+0x2a>
 800671e:	f04f 0350 	mov.w	r3, #80	; 0x50
 8006722:	f383 8811 	msr	BASEPRI, r3
 8006726:	f3bf 8f6f 	isb	sy
 800672a:	f3bf 8f4f 	dsb	sy
 800672e:	e7fe      	b.n	800672e <xTimerCreateStatic+0x28>
 8006730:	9b01      	ldr	r3, [sp, #4]
 8006732:	b944      	cbnz	r4, 8006746 <xTimerCreateStatic+0x40>
 8006734:	f04f 0350 	mov.w	r3, #80	; 0x50
 8006738:	f383 8811 	msr	BASEPRI, r3
 800673c:	f3bf 8f6f 	isb	sy
 8006740:	f3bf 8f4f 	dsb	sy
 8006744:	e7fe      	b.n	8006744 <xTimerCreateStatic+0x3e>
 8006746:	2302      	movs	r3, #2
 8006748:	f884 3024 	strb.w	r3, [r4, #36]	; 0x24
 800674c:	b941      	cbnz	r1, 8006760 <xTimerCreateStatic+0x5a>
 800674e:	f04f 0350 	mov.w	r3, #80	; 0x50
 8006752:	f383 8811 	msr	BASEPRI, r3
 8006756:	f3bf 8f6f 	isb	sy
 800675a:	f3bf 8f4f 	dsb	sy
 800675e:	e7fe      	b.n	800675e <xTimerCreateStatic+0x58>
 8006760:	f7ff ff20 	bl	80065a4 <prvCheckForValidListAndQueue>
 8006764:	9b08      	ldr	r3, [sp, #32]
 8006766:	f8c4 8000 	str.w	r8, [r4]
 800676a:	e9c4 5706 	strd	r5, r7, [r4, #24]
 800676e:	6223      	str	r3, [r4, #32]
 8006770:	1d20      	adds	r0, r4, #4
 8006772:	f7fe fd4b 	bl	800520c <vListInitialiseItem>
 8006776:	b12e      	cbz	r6, 8006784 <xTimerCreateStatic+0x7e>
 8006778:	f894 3024 	ldrb.w	r3, [r4, #36]	; 0x24
 800677c:	f043 0304 	orr.w	r3, r3, #4
 8006780:	f884 3024 	strb.w	r3, [r4, #36]	; 0x24
 8006784:	4620      	mov	r0, r4
 8006786:	b002      	add	sp, #8
 8006788:	e8bd 81f0 	ldmia.w	sp!, {r4, r5, r6, r7, r8, pc}

0800678c <xTimerGenericCommand>:
 800678c:	b530      	push	{r4, r5, lr}
 800678e:	4615      	mov	r5, r2
 8006790:	b085      	sub	sp, #20
 8006792:	461a      	mov	r2, r3
 8006794:	4603      	mov	r3, r0
 8006796:	b940      	cbnz	r0, 80067aa <xTimerGenericCommand+0x1e>
 8006798:	f04f 0350 	mov.w	r3, #80	; 0x50
 800679c:	f383 8811 	msr	BASEPRI, r3
 80067a0:	f3bf 8f6f 	isb	sy
 80067a4:	f3bf 8f4f 	dsb	sy
 80067a8:	e7fe      	b.n	80067a8 <xTimerGenericCommand+0x1c>
 80067aa:	4c0d      	ldr	r4, [pc, #52]	; (80067e0 <xTimerGenericCommand+0x54>)
 80067ac:	6820      	ldr	r0, [r4, #0]
 80067ae:	b180      	cbz	r0, 80067d2 <xTimerGenericCommand+0x46>
 80067b0:	2905      	cmp	r1, #5
 80067b2:	e9cd 1501 	strd	r1, r5, [sp, #4]
 80067b6:	9303      	str	r3, [sp, #12]
 80067b8:	dc0d      	bgt.n	80067d6 <xTimerGenericCommand+0x4a>
 80067ba:	f7ff fd3d 	bl	8006238 <xTaskGetSchedulerState>
 80067be:	2300      	movs	r3, #0
 80067c0:	2802      	cmp	r0, #2
 80067c2:	bf08      	it	eq
 80067c4:	9a08      	ldreq	r2, [sp, #32]
 80067c6:	6820      	ldr	r0, [r4, #0]
 80067c8:	bf18      	it	ne
 80067ca:	461a      	movne	r2, r3
 80067cc:	a901      	add	r1, sp, #4
 80067ce:	f7fe fe8d 	bl	80054ec <xQueueGenericSend>
 80067d2:	b005      	add	sp, #20
 80067d4:	bd30      	pop	{r4, r5, pc}
 80067d6:	2300      	movs	r3, #0
 80067d8:	a901      	add	r1, sp, #4
 80067da:	f7fe ff39 	bl	8005650 <xQueueGenericSendFromISR>
 80067de:	e7f8      	b.n	80067d2 <xTimerGenericCommand+0x46>
 80067e0:	2000049c 	.word	0x2000049c

080067e4 <prvSwitchTimerLists>:
 80067e4:	e92d 41f3 	stmdb	sp!, {r0, r1, r4, r5, r6, r7, r8, lr}
 80067e8:	4d1c      	ldr	r5, [pc, #112]	; (800685c <prvSwitchTimerLists+0x78>)
 80067ea:	f04f 0800 	mov.w	r8, #0
 80067ee:	682b      	ldr	r3, [r5, #0]
 80067f0:	681a      	ldr	r2, [r3, #0]
 80067f2:	b932      	cbnz	r2, 8006802 <prvSwitchTimerLists+0x1e>
 80067f4:	4a1a      	ldr	r2, [pc, #104]	; (8006860 <prvSwitchTimerLists+0x7c>)
 80067f6:	6811      	ldr	r1, [r2, #0]
 80067f8:	6029      	str	r1, [r5, #0]
 80067fa:	6013      	str	r3, [r2, #0]
 80067fc:	b002      	add	sp, #8
 80067fe:	e8bd 81f0 	ldmia.w	sp!, {r4, r5, r6, r7, r8, pc}
 8006802:	68db      	ldr	r3, [r3, #12]
 8006804:	68dc      	ldr	r4, [r3, #12]
 8006806:	681e      	ldr	r6, [r3, #0]
 8006808:	1d27      	adds	r7, r4, #4
 800680a:	4638      	mov	r0, r7
 800680c:	f7fe fd24 	bl	8005258 <uxListRemove>
 8006810:	6a23      	ldr	r3, [r4, #32]
 8006812:	4620      	mov	r0, r4
 8006814:	4798      	blx	r3
 8006816:	f894 3024 	ldrb.w	r3, [r4, #36]	; 0x24
 800681a:	075b      	lsls	r3, r3, #29
 800681c:	d5e7      	bpl.n	80067ee <prvSwitchTimerLists+0xa>
 800681e:	69a3      	ldr	r3, [r4, #24]
 8006820:	4433      	add	r3, r6
 8006822:	429e      	cmp	r6, r3
 8006824:	d206      	bcs.n	8006834 <prvSwitchTimerLists+0x50>
 8006826:	6063      	str	r3, [r4, #4]
 8006828:	6124      	str	r4, [r4, #16]
 800682a:	4639      	mov	r1, r7
 800682c:	6828      	ldr	r0, [r5, #0]
 800682e:	f7fe fcfc 	bl	800522a <vListInsert>
 8006832:	e7dc      	b.n	80067ee <prvSwitchTimerLists+0xa>
 8006834:	2300      	movs	r3, #0
 8006836:	f8cd 8000 	str.w	r8, [sp]
 800683a:	4632      	mov	r2, r6
 800683c:	4619      	mov	r1, r3
 800683e:	4620      	mov	r0, r4
 8006840:	f7ff ffa4 	bl	800678c <xTimerGenericCommand>
 8006844:	2800      	cmp	r0, #0
 8006846:	d1d2      	bne.n	80067ee <prvSwitchTimerLists+0xa>
 8006848:	f04f 0350 	mov.w	r3, #80	; 0x50
 800684c:	f383 8811 	msr	BASEPRI, r3
 8006850:	f3bf 8f6f 	isb	sy
 8006854:	f3bf 8f4f 	dsb	sy
 8006858:	e7fe      	b.n	8006858 <prvSwitchTimerLists+0x74>
 800685a:	bf00      	nop
 800685c:	200003a8 	.word	0x200003a8
 8006860:	200003ac 	.word	0x200003ac

08006864 <prvTimerTask>:
 8006864:	e92d 4ff0 	stmdb	sp!, {r4, r5, r6, r7, r8, r9, sl, fp, lr}
 8006868:	4d7e      	ldr	r5, [pc, #504]	; (8006a64 <prvTimerTask+0x200>)
 800686a:	f8df 8204 	ldr.w	r8, [pc, #516]	; 8006a70 <prvTimerTask+0x20c>
 800686e:	b087      	sub	sp, #28
 8006870:	462f      	mov	r7, r5
 8006872:	682a      	ldr	r2, [r5, #0]
 8006874:	6813      	ldr	r3, [r2, #0]
 8006876:	b353      	cbz	r3, 80068ce <prvTimerTask+0x6a>
 8006878:	68d3      	ldr	r3, [r2, #12]
 800687a:	f8d3 9000 	ldr.w	r9, [r3]
 800687e:	2400      	movs	r4, #0
 8006880:	f8df b1f0 	ldr.w	fp, [pc, #496]	; 8006a74 <prvTimerTask+0x210>
 8006884:	f7ff faba 	bl	8005dfc <vTaskSuspendAll>
 8006888:	f7ff fac0 	bl	8005e0c <xTaskGetTickCount>
 800688c:	f8db 3000 	ldr.w	r3, [fp]
 8006890:	4298      	cmp	r0, r3
 8006892:	4682      	mov	sl, r0
 8006894:	465e      	mov	r6, fp
 8006896:	d31d      	bcc.n	80068d4 <prvTimerTask+0x70>
 8006898:	f8cb 0000 	str.w	r0, [fp]
 800689c:	b32c      	cbz	r4, 80068ea <prvTimerTask+0x86>
 800689e:	4b72      	ldr	r3, [pc, #456]	; (8006a68 <prvTimerTask+0x204>)
 80068a0:	681b      	ldr	r3, [r3, #0]
 80068a2:	681a      	ldr	r2, [r3, #0]
 80068a4:	fab2 f282 	clz	r2, r2
 80068a8:	0952      	lsrs	r2, r2, #5
 80068aa:	4b70      	ldr	r3, [pc, #448]	; (8006a6c <prvTimerTask+0x208>)
 80068ac:	eba9 010a 	sub.w	r1, r9, sl
 80068b0:	6818      	ldr	r0, [r3, #0]
 80068b2:	f7ff f84f 	bl	8005954 <vQueueWaitForMessageRestricted>
 80068b6:	f7ff fb41 	bl	8005f3c <xTaskResumeAll>
 80068ba:	b988      	cbnz	r0, 80068e0 <prvTimerTask+0x7c>
 80068bc:	f04f 5380 	mov.w	r3, #268435456	; 0x10000000
 80068c0:	f8c8 3000 	str.w	r3, [r8]
 80068c4:	f3bf 8f4f 	dsb	sy
 80068c8:	f3bf 8f6f 	isb	sy
 80068cc:	e008      	b.n	80068e0 <prvTimerTask+0x7c>
 80068ce:	2401      	movs	r4, #1
 80068d0:	4699      	mov	r9, r3
 80068d2:	e7d5      	b.n	8006880 <prvTimerTask+0x1c>
 80068d4:	f7ff ff86 	bl	80067e4 <prvSwitchTimerLists>
 80068d8:	f8cb a000 	str.w	sl, [fp]
 80068dc:	f7ff fb2e 	bl	8005f3c <xTaskResumeAll>
 80068e0:	f8df 9188 	ldr.w	r9, [pc, #392]	; 8006a6c <prvTimerTask+0x208>
 80068e4:	f04f 0a00 	mov.w	sl, #0
 80068e8:	e07d      	b.n	80069e6 <prvTimerTask+0x182>
 80068ea:	4581      	cmp	r9, r0
 80068ec:	d830      	bhi.n	8006950 <prvTimerTask+0xec>
 80068ee:	f7ff fb25 	bl	8005f3c <xTaskResumeAll>
 80068f2:	683b      	ldr	r3, [r7, #0]
 80068f4:	68db      	ldr	r3, [r3, #12]
 80068f6:	f8d3 b00c 	ldr.w	fp, [r3, #12]
 80068fa:	f10b 0004 	add.w	r0, fp, #4
 80068fe:	f7fe fcab 	bl	8005258 <uxListRemove>
 8006902:	f89b 3024 	ldrb.w	r3, [fp, #36]	; 0x24
 8006906:	0758      	lsls	r0, r3, #29
 8006908:	d519      	bpl.n	800693e <prvTimerTask+0xda>
 800690a:	f8db 1018 	ldr.w	r1, [fp, #24]
 800690e:	464b      	mov	r3, r9
 8006910:	4652      	mov	r2, sl
 8006912:	4449      	add	r1, r9
 8006914:	4658      	mov	r0, fp
 8006916:	f7ff fe79 	bl	800660c <prvInsertTimerInActiveList>
 800691a:	b1a0      	cbz	r0, 8006946 <prvTimerTask+0xe2>
 800691c:	9400      	str	r4, [sp, #0]
 800691e:	4623      	mov	r3, r4
 8006920:	464a      	mov	r2, r9
 8006922:	4621      	mov	r1, r4
 8006924:	4658      	mov	r0, fp
 8006926:	f7ff ff31 	bl	800678c <xTimerGenericCommand>
 800692a:	b960      	cbnz	r0, 8006946 <prvTimerTask+0xe2>
 800692c:	f04f 0350 	mov.w	r3, #80	; 0x50
 8006930:	f383 8811 	msr	BASEPRI, r3
 8006934:	f3bf 8f6f 	isb	sy
 8006938:	f3bf 8f4f 	dsb	sy
 800693c:	e7fe      	b.n	800693c <prvTimerTask+0xd8>
 800693e:	f023 0301 	bic.w	r3, r3, #1
 8006942:	f88b 3024 	strb.w	r3, [fp, #36]	; 0x24
 8006946:	f8db 3020 	ldr.w	r3, [fp, #32]
 800694a:	4658      	mov	r0, fp
 800694c:	4798      	blx	r3
 800694e:	e7c7      	b.n	80068e0 <prvTimerTask+0x7c>
 8006950:	4622      	mov	r2, r4
 8006952:	e7aa      	b.n	80068aa <prvTimerTask+0x46>
 8006954:	f894 3024 	ldrb.w	r3, [r4, #36]	; 0x24
 8006958:	69a1      	ldr	r1, [r4, #24]
 800695a:	f043 0301 	orr.w	r3, r3, #1
 800695e:	f884 3024 	strb.w	r3, [r4, #36]	; 0x24
 8006962:	9b04      	ldr	r3, [sp, #16]
 8006964:	465a      	mov	r2, fp
 8006966:	4419      	add	r1, r3
 8006968:	4620      	mov	r0, r4
 800696a:	f7ff fe4f 	bl	800660c <prvInsertTimerInActiveList>
 800696e:	2800      	cmp	r0, #0
 8006970:	d039      	beq.n	80069e6 <prvTimerTask+0x182>
 8006972:	6a23      	ldr	r3, [r4, #32]
 8006974:	4620      	mov	r0, r4
 8006976:	4798      	blx	r3
 8006978:	f894 3024 	ldrb.w	r3, [r4, #36]	; 0x24
 800697c:	0759      	lsls	r1, r3, #29
 800697e:	d532      	bpl.n	80069e6 <prvTimerTask+0x182>
 8006980:	69a2      	ldr	r2, [r4, #24]
 8006982:	9904      	ldr	r1, [sp, #16]
 8006984:	f8cd a000 	str.w	sl, [sp]
 8006988:	2300      	movs	r3, #0
 800698a:	440a      	add	r2, r1
 800698c:	4620      	mov	r0, r4
 800698e:	4619      	mov	r1, r3
 8006990:	f7ff fefc 	bl	800678c <xTimerGenericCommand>
 8006994:	bb38      	cbnz	r0, 80069e6 <prvTimerTask+0x182>
 8006996:	f04f 0350 	mov.w	r3, #80	; 0x50
 800699a:	f383 8811 	msr	BASEPRI, r3
 800699e:	f3bf 8f6f 	isb	sy
 80069a2:	f3bf 8f4f 	dsb	sy
 80069a6:	e7fe      	b.n	80069a6 <prvTimerTask+0x142>
 80069a8:	f894 3024 	ldrb.w	r3, [r4, #36]	; 0x24
 80069ac:	f023 0301 	bic.w	r3, r3, #1
 80069b0:	f884 3024 	strb.w	r3, [r4, #36]	; 0x24
 80069b4:	e017      	b.n	80069e6 <prvTimerTask+0x182>
 80069b6:	f894 3024 	ldrb.w	r3, [r4, #36]	; 0x24
 80069ba:	9904      	ldr	r1, [sp, #16]
 80069bc:	61a1      	str	r1, [r4, #24]
 80069be:	f043 0301 	orr.w	r3, r3, #1
 80069c2:	f884 3024 	strb.w	r3, [r4, #36]	; 0x24
 80069c6:	b941      	cbnz	r1, 80069da <prvTimerTask+0x176>
 80069c8:	f04f 0350 	mov.w	r3, #80	; 0x50
 80069cc:	f383 8811 	msr	BASEPRI, r3
 80069d0:	f3bf 8f6f 	isb	sy
 80069d4:	f3bf 8f4f 	dsb	sy
 80069d8:	e7fe      	b.n	80069d8 <prvTimerTask+0x174>
 80069da:	465b      	mov	r3, fp
 80069dc:	465a      	mov	r2, fp
 80069de:	4459      	add	r1, fp
 80069e0:	4620      	mov	r0, r4
 80069e2:	f7ff fe13 	bl	800660c <prvInsertTimerInActiveList>
 80069e6:	2200      	movs	r2, #0
 80069e8:	a903      	add	r1, sp, #12
 80069ea:	f8d9 0000 	ldr.w	r0, [r9]
 80069ee:	f7fe fe91 	bl	8005714 <xQueueReceive>
 80069f2:	2800      	cmp	r0, #0
 80069f4:	f43f af3d 	beq.w	8006872 <prvTimerTask+0xe>
 80069f8:	9b03      	ldr	r3, [sp, #12]
 80069fa:	2b00      	cmp	r3, #0
 80069fc:	dbf3      	blt.n	80069e6 <prvTimerTask+0x182>
 80069fe:	9c05      	ldr	r4, [sp, #20]
 8006a00:	6963      	ldr	r3, [r4, #20]
 8006a02:	b113      	cbz	r3, 8006a0a <prvTimerTask+0x1a6>
 8006a04:	1d20      	adds	r0, r4, #4
 8006a06:	f7fe fc27 	bl	8005258 <uxListRemove>
 8006a0a:	f7ff f9ff 	bl	8005e0c <xTaskGetTickCount>
 8006a0e:	6833      	ldr	r3, [r6, #0]
 8006a10:	4298      	cmp	r0, r3
 8006a12:	4683      	mov	fp, r0
 8006a14:	d201      	bcs.n	8006a1a <prvTimerTask+0x1b6>
 8006a16:	f7ff fee5 	bl	80067e4 <prvSwitchTimerLists>
 8006a1a:	9b03      	ldr	r3, [sp, #12]
 8006a1c:	f8c6 b000 	str.w	fp, [r6]
 8006a20:	2b09      	cmp	r3, #9
 8006a22:	d8e0      	bhi.n	80069e6 <prvTimerTask+0x182>
 8006a24:	a201      	add	r2, pc, #4	; (adr r2, 8006a2c <prvTimerTask+0x1c8>)
 8006a26:	f852 f023 	ldr.w	pc, [r2, r3, lsl #2]
 8006a2a:	bf00      	nop
 8006a2c:	08006955 	.word	0x08006955
 8006a30:	08006955 	.word	0x08006955
 8006a34:	08006955 	.word	0x08006955
 8006a38:	080069a9 	.word	0x080069a9
 8006a3c:	080069b7 	.word	0x080069b7
 8006a40:	08006a55 	.word	0x08006a55
 8006a44:	08006955 	.word	0x08006955
 8006a48:	08006955 	.word	0x08006955
 8006a4c:	080069a9 	.word	0x080069a9
 8006a50:	080069b7 	.word	0x080069b7
 8006a54:	f894 3024 	ldrb.w	r3, [r4, #36]	; 0x24
 8006a58:	079a      	lsls	r2, r3, #30
 8006a5a:	d4a7      	bmi.n	80069ac <prvTimerTask+0x148>
 8006a5c:	4620      	mov	r0, r4
 8006a5e:	f000 fd4d 	bl	80074fc <vPortFree>
 8006a62:	e7c0      	b.n	80069e6 <prvTimerTask+0x182>
 8006a64:	200003a8 	.word	0x200003a8
 8006a68:	200003ac 	.word	0x200003ac
 8006a6c:	2000049c 	.word	0x2000049c
 8006a70:	e000ed04 	.word	0xe000ed04
 8006a74:	20000450 	.word	0x20000450

08006a78 <prvTaskExitError>:
 8006a78:	b082      	sub	sp, #8
 8006a7a:	2300      	movs	r3, #0
 8006a7c:	9301      	str	r3, [sp, #4]
 8006a7e:	4b0d      	ldr	r3, [pc, #52]	; (8006ab4 <prvTaskExitError+0x3c>)
 8006a80:	681b      	ldr	r3, [r3, #0]
 8006a82:	3301      	adds	r3, #1
 8006a84:	d008      	beq.n	8006a98 <prvTaskExitError+0x20>
 8006a86:	f04f 0350 	mov.w	r3, #80	; 0x50
 8006a8a:	f383 8811 	msr	BASEPRI, r3
 8006a8e:	f3bf 8f6f 	isb	sy
 8006a92:	f3bf 8f4f 	dsb	sy
 8006a96:	e7fe      	b.n	8006a96 <prvTaskExitError+0x1e>
 8006a98:	f04f 0350 	mov.w	r3, #80	; 0x50
 8006a9c:	f383 8811 	msr	BASEPRI, r3
 8006aa0:	f3bf 8f6f 	isb	sy
 8006aa4:	f3bf 8f4f 	dsb	sy
 8006aa8:	9b01      	ldr	r3, [sp, #4]
 8006aaa:	2b00      	cmp	r3, #0
 8006aac:	d0fc      	beq.n	8006aa8 <prvTaskExitError+0x30>
 8006aae:	b002      	add	sp, #8
 8006ab0:	4770      	bx	lr
 8006ab2:	bf00      	nop
 8006ab4:	20000088 	.word	0x20000088

08006ab8 <prvPortStartFirstTask>:
 8006ab8:	4808      	ldr	r0, [pc, #32]	; (8006adc <prvPortStartFirstTask+0x24>)
 8006aba:	6800      	ldr	r0, [r0, #0]
 8006abc:	6800      	ldr	r0, [r0, #0]
 8006abe:	f380 8808 	msr	MSP, r0
 8006ac2:	f04f 0000 	mov.w	r0, #0
 8006ac6:	f380 8814 	msr	CONTROL, r0
 8006aca:	b662      	cpsie	i
 8006acc:	b661      	cpsie	f
 8006ace:	f3bf 8f4f 	dsb	sy
 8006ad2:	f3bf 8f6f 	isb	sy
 8006ad6:	df00      	svc	0
 8006ad8:	bf00      	nop
 8006ada:	0000      	.short	0x0000
 8006adc:	e000ed08 	.word	0xe000ed08

08006ae0 <vPortEnableVFP>:
 8006ae0:	f8df 000c 	ldr.w	r0, [pc, #12]	; 8006af0 <vPortEnableVFP+0x10>
 8006ae4:	6801      	ldr	r1, [r0, #0]
 8006ae6:	f441 0170 	orr.w	r1, r1, #15728640	; 0xf00000
 8006aea:	6001      	str	r1, [r0, #0]
 8006aec:	4770      	bx	lr
 8006aee:	0000      	.short	0x0000
 8006af0:	e000ed88 	.word	0xe000ed88

08006af4 <pxPortInitialiseStack>:
 8006af4:	f04f 7380 	mov.w	r3, #16777216	; 0x1000000
 8006af8:	f840 3c04 	str.w	r3, [r0, #-4]
 8006afc:	4b07      	ldr	r3, [pc, #28]	; (8006b1c <pxPortInitialiseStack+0x28>)
 8006afe:	f840 3c0c 	str.w	r3, [r0, #-12]
 8006b02:	f021 0101 	bic.w	r1, r1, #1
 8006b06:	f06f 0302 	mvn.w	r3, #2
 8006b0a:	f840 1c08 	str.w	r1, [r0, #-8]
 8006b0e:	f840 2c20 	str.w	r2, [r0, #-32]
 8006b12:	f840 3c24 	str.w	r3, [r0, #-36]
 8006b16:	3844      	subs	r0, #68	; 0x44
 8006b18:	4770      	bx	lr
 8006b1a:	bf00      	nop
 8006b1c:	08006a79 	.word	0x08006a79

08006b20 <SVC_Handler>:
 8006b20:	4b07      	ldr	r3, [pc, #28]	; (8006b40 <pxCurrentTCBConst2>)
 8006b22:	6819      	ldr	r1, [r3, #0]
 8006b24:	6808      	ldr	r0, [r1, #0]
 8006b26:	e8b0 4ff0 	ldmia.w	r0!, {r4, r5, r6, r7, r8, r9, sl, fp, lr}
 8006b2a:	f380 8809 	msr	PSP, r0
 8006b2e:	f3bf 8f6f 	isb	sy
 8006b32:	f04f 0000 	mov.w	r0, #0
 8006b36:	f380 8811 	msr	BASEPRI, r0
 8006b3a:	4770      	bx	lr
 8006b3c:	f3af 8000 	nop.w

08006b40 <pxCurrentTCBConst2>:
 8006b40:	20000280 	.word	0x20000280

08006b44 <vPortEnterCritical>:
 8006b44:	f04f 0350 	mov.w	r3, #80	; 0x50
 8006b48:	f383 8811 	msr	BASEPRI, r3
 8006b4c:	f3bf 8f6f 	isb	sy
 8006b50:	f3bf 8f4f 	dsb	sy
 8006b54:	4a0a      	ldr	r2, [pc, #40]	; (8006b80 <vPortEnterCritical+0x3c>)
 8006b56:	6813      	ldr	r3, [r2, #0]
 8006b58:	3301      	adds	r3, #1
 8006b5a:	2b01      	cmp	r3, #1
 8006b5c:	6013      	str	r3, [r2, #0]
 8006b5e:	d10d      	bne.n	8006b7c <vPortEnterCritical+0x38>
 8006b60:	4b08      	ldr	r3, [pc, #32]	; (8006b84 <vPortEnterCritical+0x40>)
 8006b62:	681b      	ldr	r3, [r3, #0]
 8006b64:	f013 0fff 	tst.w	r3, #255	; 0xff
 8006b68:	d008      	beq.n	8006b7c <vPortEnterCritical+0x38>
 8006b6a:	f04f 0350 	mov.w	r3, #80	; 0x50
 8006b6e:	f383 8811 	msr	BASEPRI, r3
 8006b72:	f3bf 8f6f 	isb	sy
 8006b76:	f3bf 8f4f 	dsb	sy
 8006b7a:	e7fe      	b.n	8006b7a <vPortEnterCritical+0x36>
 8006b7c:	4770      	bx	lr
 8006b7e:	bf00      	nop
 8006b80:	20000088 	.word	0x20000088
 8006b84:	e000ed04 	.word	0xe000ed04

08006b88 <vPortExitCritical>:
 8006b88:	4a08      	ldr	r2, [pc, #32]	; (8006bac <vPortExitCritical+0x24>)
 8006b8a:	6813      	ldr	r3, [r2, #0]
 8006b8c:	b943      	cbnz	r3, 8006ba0 <vPortExitCritical+0x18>
 8006b8e:	f04f 0350 	mov.w	r3, #80	; 0x50
 8006b92:	f383 8811 	msr	BASEPRI, r3
 8006b96:	f3bf 8f6f 	isb	sy
 8006b9a:	f3bf 8f4f 	dsb	sy
 8006b9e:	e7fe      	b.n	8006b9e <vPortExitCritical+0x16>
 8006ba0:	3b01      	subs	r3, #1
 8006ba2:	6013      	str	r3, [r2, #0]
 8006ba4:	b90b      	cbnz	r3, 8006baa <vPortExitCritical+0x22>
 8006ba6:	f383 8811 	msr	BASEPRI, r3
 8006baa:	4770      	bx	lr
 8006bac:	20000088 	.word	0x20000088

08006bb0 <PendSV_Handler>:
 8006bb0:	f3ef 8009 	mrs	r0, PSP
 8006bb4:	f3bf 8f6f 	isb	sy
 8006bb8:	4b15      	ldr	r3, [pc, #84]	; (8006c10 <pxCurrentTCBConst>)
 8006bba:	681a      	ldr	r2, [r3, #0]
 8006bbc:	f01e 0f10 	tst.w	lr, #16
 8006bc0:	bf08      	it	eq
 8006bc2:	ed20 8a10 	vstmdbeq	r0!, {s16-s31}
 8006bc6:	e920 4ff0 	stmdb	r0!, {r4, r5, r6, r7, r8, r9, sl, fp, lr}
 8006bca:	6010      	str	r0, [r2, #0]
 8006bcc:	e92d 0009 	stmdb	sp!, {r0, r3}
 8006bd0:	f04f 0050 	mov.w	r0, #80	; 0x50
 8006bd4:	f380 8811 	msr	BASEPRI, r0
 8006bd8:	f3bf 8f4f 	dsb	sy
 8006bdc:	f3bf 8f6f 	isb	sy
 8006be0:	f7ff fa22 	bl	8006028 <vTaskSwitchContext>
 8006be4:	f04f 0000 	mov.w	r0, #0
 8006be8:	f380 8811 	msr	BASEPRI, r0
 8006bec:	bc09      	pop	{r0, r3}
 8006bee:	6819      	ldr	r1, [r3, #0]
 8006bf0:	6808      	ldr	r0, [r1, #0]
 8006bf2:	e8b0 4ff0 	ldmia.w	r0!, {r4, r5, r6, r7, r8, r9, sl, fp, lr}
 8006bf6:	f01e 0f10 	tst.w	lr, #16
 8006bfa:	bf08      	it	eq
 8006bfc:	ecb0 8a10 	vldmiaeq	r0!, {s16-s31}
 8006c00:	f380 8809 	msr	PSP, r0
 8006c04:	f3bf 8f6f 	isb	sy
 8006c08:	4770      	bx	lr
 8006c0a:	bf00      	nop
 8006c0c:	f3af 8000 	nop.w

08006c10 <pxCurrentTCBConst>:
 8006c10:	20000280 	.word	0x20000280

08006c14 <SysTick_Handler>:
 8006c14:	b508      	push	{r3, lr}
 8006c16:	f04f 0350 	mov.w	r3, #80	; 0x50
 8006c1a:	f383 8811 	msr	BASEPRI, r3
 8006c1e:	f3bf 8f6f 	isb	sy
 8006c22:	f3bf 8f4f 	dsb	sy
 8006c26:	f7ff f8f7 	bl	8005e18 <xTaskIncrementTick>
 8006c2a:	b118      	cbz	r0, 8006c34 <SysTick_Handler+0x20>
 8006c2c:	4b03      	ldr	r3, [pc, #12]	; (8006c3c <SysTick_Handler+0x28>)
 8006c2e:	f04f 5280 	mov.w	r2, #268435456	; 0x10000000
 8006c32:	601a      	str	r2, [r3, #0]
 8006c34:	2300      	movs	r3, #0
 8006c36:	f383 8811 	msr	BASEPRI, r3
 8006c3a:	bd08      	pop	{r3, pc}
 8006c3c:	e000ed04 	.word	0xe000ed04

08006c40 <vPortSetupTimerInterrupt>:
 8006c40:	4a08      	ldr	r2, [pc, #32]	; (8006c64 <vPortSetupTimerInterrupt+0x24>)
 8006c42:	4909      	ldr	r1, [pc, #36]	; (8006c68 <vPortSetupTimerInterrupt+0x28>)
 8006c44:	2300      	movs	r3, #0
 8006c46:	6013      	str	r3, [r2, #0]
 8006c48:	600b      	str	r3, [r1, #0]
 8006c4a:	4b08      	ldr	r3, [pc, #32]	; (8006c6c <vPortSetupTimerInterrupt+0x2c>)
 8006c4c:	f44f 717a 	mov.w	r1, #1000	; 0x3e8
 8006c50:	681b      	ldr	r3, [r3, #0]
 8006c52:	fbb3 f3f1 	udiv	r3, r3, r1
 8006c56:	4906      	ldr	r1, [pc, #24]	; (8006c70 <vPortSetupTimerInterrupt+0x30>)
 8006c58:	3b01      	subs	r3, #1
 8006c5a:	600b      	str	r3, [r1, #0]
 8006c5c:	2307      	movs	r3, #7
 8006c5e:	6013      	str	r3, [r2, #0]
 8006c60:	4770      	bx	lr
 8006c62:	bf00      	nop
 8006c64:	e000e010 	.word	0xe000e010
 8006c68:	e000e018 	.word	0xe000e018
 8006c6c:	20000090 	.word	0x20000090
 8006c70:	e000e014 	.word	0xe000e014

08006c74 <xPortStartScheduler>:
 8006c74:	4b39      	ldr	r3, [pc, #228]	; (8006d5c <xPortStartScheduler+0xe8>)
 8006c76:	4a3a      	ldr	r2, [pc, #232]	; (8006d60 <xPortStartScheduler+0xec>)
 8006c78:	b513      	push	{r0, r1, r4, lr}
 8006c7a:	6819      	ldr	r1, [r3, #0]
 8006c7c:	4291      	cmp	r1, r2
 8006c7e:	d108      	bne.n	8006c92 <xPortStartScheduler+0x1e>
 8006c80:	f04f 0350 	mov.w	r3, #80	; 0x50
 8006c84:	f383 8811 	msr	BASEPRI, r3
 8006c88:	f3bf 8f6f 	isb	sy
 8006c8c:	f3bf 8f4f 	dsb	sy
 8006c90:	e7fe      	b.n	8006c90 <xPortStartScheduler+0x1c>
 8006c92:	681a      	ldr	r2, [r3, #0]
 8006c94:	4b33      	ldr	r3, [pc, #204]	; (8006d64 <xPortStartScheduler+0xf0>)
 8006c96:	429a      	cmp	r2, r3
 8006c98:	d108      	bne.n	8006cac <xPortStartScheduler+0x38>
 8006c9a:	f04f 0350 	mov.w	r3, #80	; 0x50
 8006c9e:	f383 8811 	msr	BASEPRI, r3
 8006ca2:	f3bf 8f6f 	isb	sy
 8006ca6:	f3bf 8f4f 	dsb	sy
 8006caa:	e7fe      	b.n	8006caa <xPortStartScheduler+0x36>
 8006cac:	4b2e      	ldr	r3, [pc, #184]	; (8006d68 <xPortStartScheduler+0xf4>)
 8006cae:	781a      	ldrb	r2, [r3, #0]
 8006cb0:	b2d2      	uxtb	r2, r2
 8006cb2:	9201      	str	r2, [sp, #4]
 8006cb4:	22ff      	movs	r2, #255	; 0xff
 8006cb6:	701a      	strb	r2, [r3, #0]
 8006cb8:	781b      	ldrb	r3, [r3, #0]
 8006cba:	4a2c      	ldr	r2, [pc, #176]	; (8006d6c <xPortStartScheduler+0xf8>)
 8006cbc:	b2db      	uxtb	r3, r3
 8006cbe:	f88d 3003 	strb.w	r3, [sp, #3]
 8006cc2:	f89d 3003 	ldrb.w	r3, [sp, #3]
 8006cc6:	f003 0350 	and.w	r3, r3, #80	; 0x50
 8006cca:	7013      	strb	r3, [r2, #0]
 8006ccc:	4b28      	ldr	r3, [pc, #160]	; (8006d70 <xPortStartScheduler+0xfc>)
 8006cce:	2207      	movs	r2, #7
 8006cd0:	601a      	str	r2, [r3, #0]
 8006cd2:	2100      	movs	r1, #0
 8006cd4:	f89d 0003 	ldrb.w	r0, [sp, #3]
 8006cd8:	0600      	lsls	r0, r0, #24
 8006cda:	f102 34ff 	add.w	r4, r2, #4294967295
 8006cde:	d40d      	bmi.n	8006cfc <xPortStartScheduler+0x88>
 8006ce0:	b101      	cbz	r1, 8006ce4 <xPortStartScheduler+0x70>
 8006ce2:	601a      	str	r2, [r3, #0]
 8006ce4:	681a      	ldr	r2, [r3, #0]
 8006ce6:	2a03      	cmp	r2, #3
 8006ce8:	d011      	beq.n	8006d0e <xPortStartScheduler+0x9a>
 8006cea:	f04f 0350 	mov.w	r3, #80	; 0x50
 8006cee:	f383 8811 	msr	BASEPRI, r3
 8006cf2:	f3bf 8f6f 	isb	sy
 8006cf6:	f3bf 8f4f 	dsb	sy
 8006cfa:	e7fe      	b.n	8006cfa <xPortStartScheduler+0x86>
 8006cfc:	f89d 2003 	ldrb.w	r2, [sp, #3]
 8006d00:	0052      	lsls	r2, r2, #1
 8006d02:	b2d2      	uxtb	r2, r2
 8006d04:	f88d 2003 	strb.w	r2, [sp, #3]
 8006d08:	2101      	movs	r1, #1
 8006d0a:	4622      	mov	r2, r4
 8006d0c:	e7e2      	b.n	8006cd4 <xPortStartScheduler+0x60>
 8006d0e:	0212      	lsls	r2, r2, #8
 8006d10:	f402 62e0 	and.w	r2, r2, #1792	; 0x700
 8006d14:	601a      	str	r2, [r3, #0]
 8006d16:	9b01      	ldr	r3, [sp, #4]
 8006d18:	4a13      	ldr	r2, [pc, #76]	; (8006d68 <xPortStartScheduler+0xf4>)
 8006d1a:	b2db      	uxtb	r3, r3
 8006d1c:	7013      	strb	r3, [r2, #0]
 8006d1e:	4b15      	ldr	r3, [pc, #84]	; (8006d74 <xPortStartScheduler+0x100>)
 8006d20:	681a      	ldr	r2, [r3, #0]
 8006d22:	f442 0270 	orr.w	r2, r2, #15728640	; 0xf00000
 8006d26:	601a      	str	r2, [r3, #0]
 8006d28:	681a      	ldr	r2, [r3, #0]
 8006d2a:	f042 4270 	orr.w	r2, r2, #4026531840	; 0xf0000000
 8006d2e:	601a      	str	r2, [r3, #0]
 8006d30:	f7ff ff86 	bl	8006c40 <vPortSetupTimerInterrupt>
 8006d34:	4b10      	ldr	r3, [pc, #64]	; (8006d78 <xPortStartScheduler+0x104>)
 8006d36:	2400      	movs	r4, #0
 8006d38:	601c      	str	r4, [r3, #0]
 8006d3a:	f7ff fed1 	bl	8006ae0 <vPortEnableVFP>
 8006d3e:	4a0f      	ldr	r2, [pc, #60]	; (8006d7c <xPortStartScheduler+0x108>)
 8006d40:	6813      	ldr	r3, [r2, #0]
 8006d42:	f043 4340 	orr.w	r3, r3, #3221225472	; 0xc0000000
 8006d46:	6013      	str	r3, [r2, #0]
 8006d48:	f7ff feb6 	bl	8006ab8 <prvPortStartFirstTask>
 8006d4c:	f7ff f96c 	bl	8006028 <vTaskSwitchContext>
 8006d50:	f7ff fe92 	bl	8006a78 <prvTaskExitError>
 8006d54:	4620      	mov	r0, r4
 8006d56:	b002      	add	sp, #8
 8006d58:	bd10      	pop	{r4, pc}
 8006d5a:	bf00      	nop
 8006d5c:	e000ed00 	.word	0xe000ed00
 8006d60:	410fc271 	.word	0x410fc271
 8006d64:	410fc270 	.word	0x410fc270
 8006d68:	e000e400 	.word	0xe000e400
 8006d6c:	200004a4 	.word	0x200004a4
 8006d70:	200004a8 	.word	0x200004a8
 8006d74:	e000ed20 	.word	0xe000ed20
 8006d78:	20000088 	.word	0x20000088
 8006d7c:	e000ef34 	.word	0xe000ef34

08006d80 <vPortValidateInterruptPriority>:
 8006d80:	f3ef 8305 	mrs	r3, IPSR
 8006d84:	2b0f      	cmp	r3, #15
 8006d86:	d90e      	bls.n	8006da6 <vPortValidateInterruptPriority+0x26>
 8006d88:	4a10      	ldr	r2, [pc, #64]	; (8006dcc <vPortValidateInterruptPriority+0x4c>)
 8006d8a:	5c9b      	ldrb	r3, [r3, r2]
 8006d8c:	4a10      	ldr	r2, [pc, #64]	; (8006dd0 <vPortValidateInterruptPriority+0x50>)
 8006d8e:	7812      	ldrb	r2, [r2, #0]
 8006d90:	429a      	cmp	r2, r3
 8006d92:	d908      	bls.n	8006da6 <vPortValidateInterruptPriority+0x26>
 8006d94:	f04f 0350 	mov.w	r3, #80	; 0x50
 8006d98:	f383 8811 	msr	BASEPRI, r3
 8006d9c:	f3bf 8f6f 	isb	sy
 8006da0:	f3bf 8f4f 	dsb	sy
 8006da4:	e7fe      	b.n	8006da4 <vPortValidateInterruptPriority+0x24>
 8006da6:	4b0b      	ldr	r3, [pc, #44]	; (8006dd4 <vPortValidateInterruptPriority+0x54>)
 8006da8:	4a0b      	ldr	r2, [pc, #44]	; (8006dd8 <vPortValidateInterruptPriority+0x58>)
 8006daa:	681b      	ldr	r3, [r3, #0]
 8006dac:	6812      	ldr	r2, [r2, #0]
 8006dae:	f403 63e0 	and.w	r3, r3, #1792	; 0x700
 8006db2:	4293      	cmp	r3, r2
 8006db4:	d908      	bls.n	8006dc8 <vPortValidateInterruptPriority+0x48>
 8006db6:	f04f 0350 	mov.w	r3, #80	; 0x50
 8006dba:	f383 8811 	msr	BASEPRI, r3
 8006dbe:	f3bf 8f6f 	isb	sy
 8006dc2:	f3bf 8f4f 	dsb	sy
 8006dc6:	e7fe      	b.n	8006dc6 <vPortValidateInterruptPriority+0x46>
 8006dc8:	4770      	bx	lr
 8006dca:	bf00      	nop
 8006dcc:	e000e3f0 	.word	0xe000e3f0
 8006dd0:	200004a4 	.word	0x200004a4
 8006dd4:	e000ed0c 	.word	0xe000ed0c
 8006dd8:	200004a8 	.word	0x200004a8

08006ddc <COM_setReadyCommandFlagOff>:
 8006ddc:	4b02      	ldr	r3, [pc, #8]	; (8006de8 <COM_setReadyCommandFlagOff+0xc>)
 8006dde:	2200      	movs	r2, #0
 8006de0:	f883 2066 	strb.w	r2, [r3, #102]	; 0x66
 8006de4:	4770      	bx	lr
 8006de6:	bf00      	nop
 8006de8:	200004ac 	.word	0x200004ac

08006dec <COM_readyCommandProcess>:
 8006dec:	b510      	push	{r4, lr}
 8006dee:	4c08      	ldr	r4, [pc, #32]	; (8006e10 <COM_readyCommandProcess+0x24>)
 8006df0:	4908      	ldr	r1, [pc, #32]	; (8006e14 <COM_readyCommandProcess+0x28>)
 8006df2:	4620      	mov	r0, r4
 8006df4:	f002 fd4c 	bl	8009890 <strtok>
 8006df8:	f000 f986 	bl	8007108 <COMMAND_findAndExecuteCommand>
 8006dfc:	f894 2064 	ldrb.w	r2, [r4, #100]	; 0x64
 8006e00:	2100      	movs	r1, #0
 8006e02:	4620      	mov	r0, r4
 8006e04:	f001 ff85 	bl	8008d12 <memset>
 8006e08:	2300      	movs	r3, #0
 8006e0a:	f884 3064 	strb.w	r3, [r4, #100]	; 0x64
 8006e0e:	bd10      	pop	{r4, pc}
 8006e10:	200004ac 	.word	0x200004ac
 8006e14:	0800bb00 	.word	0x0800bb00

08006e18 <COM_uartPrint>:
 8006e18:	b570      	push	{r4, r5, r6, lr}
 8006e1a:	4d14      	ldr	r5, [pc, #80]	; (8006e6c <COM_uartPrint+0x54>)
 8006e1c:	4606      	mov	r6, r0
 8006e1e:	b09a      	sub	sp, #104	; 0x68
 8006e20:	6828      	ldr	r0, [r5, #0]
 8006e22:	f7fe f9e1 	bl	80051e8 <osMessageWaiting>
 8006e26:	2264      	movs	r2, #100	; 0x64
 8006e28:	4631      	mov	r1, r6
 8006e2a:	b918      	cbnz	r0, 8006e34 <COM_uartPrint+0x1c>
 8006e2c:	4c10      	ldr	r4, [pc, #64]	; (8006e70 <COM_uartPrint+0x58>)
 8006e2e:	f894 3066 	ldrb.w	r3, [r4, #102]	; 0x66
 8006e32:	b14b      	cbz	r3, 8006e48 <COM_uartPrint+0x30>
 8006e34:	a801      	add	r0, sp, #4
 8006e36:	f002 fd15 	bl	8009864 <strncpy>
 8006e3a:	2200      	movs	r2, #0
 8006e3c:	a901      	add	r1, sp, #4
 8006e3e:	6828      	ldr	r0, [r5, #0]
 8006e40:	f7fe f970 	bl	8005124 <osMessagePut>
 8006e44:	b01a      	add	sp, #104	; 0x68
 8006e46:	bd70      	pop	{r4, r5, r6, pc}
 8006e48:	f104 0067 	add.w	r0, r4, #103	; 0x67
 8006e4c:	f002 fd0a 	bl	8009864 <strncpy>
 8006e50:	4630      	mov	r0, r6
 8006e52:	f7f9 f9c5 	bl	80001e0 <strlen>
 8006e56:	f104 0167 	add.w	r1, r4, #103	; 0x67
 8006e5a:	b282      	uxth	r2, r0
 8006e5c:	4805      	ldr	r0, [pc, #20]	; (8006e74 <COM_uartPrint+0x5c>)
 8006e5e:	f7fd fe9b 	bl	8004b98 <HAL_UART_Transmit_DMA>
 8006e62:	2301      	movs	r3, #1
 8006e64:	f884 30cb 	strb.w	r3, [r4, #203]	; 0xcb
 8006e68:	e7ec      	b.n	8006e44 <COM_uartPrint+0x2c>
 8006e6a:	bf00      	nop
 8006e6c:	200010ec 	.word	0x200010ec
 8006e70:	200004ac 	.word	0x200004ac
 8006e74:	200012b4 	.word	0x200012b4

08006e78 <HAL_UART_TxCpltCallback>:
 8006e78:	b51f      	push	{r0, r1, r2, r3, r4, lr}
 8006e7a:	4b10      	ldr	r3, [pc, #64]	; (8006ebc <HAL_UART_TxCpltCallback+0x44>)
 8006e7c:	4c10      	ldr	r4, [pc, #64]	; (8006ec0 <HAL_UART_TxCpltCallback+0x48>)
 8006e7e:	6819      	ldr	r1, [r3, #0]
 8006e80:	2200      	movs	r2, #0
 8006e82:	a801      	add	r0, sp, #4
 8006e84:	f884 20cb 	strb.w	r2, [r4, #203]	; 0xcb
 8006e88:	f7fe f974 	bl	8005174 <osMessageGet>
 8006e8c:	9b01      	ldr	r3, [sp, #4]
 8006e8e:	2b10      	cmp	r3, #16
 8006e90:	d112      	bne.n	8006eb8 <HAL_UART_TxCpltCallback+0x40>
 8006e92:	2264      	movs	r2, #100	; 0x64
 8006e94:	9902      	ldr	r1, [sp, #8]
 8006e96:	f104 0067 	add.w	r0, r4, #103	; 0x67
 8006e9a:	f002 fce3 	bl	8009864 <strncpy>
 8006e9e:	f104 0067 	add.w	r0, r4, #103	; 0x67
 8006ea2:	f7f9 f99d 	bl	80001e0 <strlen>
 8006ea6:	f104 0167 	add.w	r1, r4, #103	; 0x67
 8006eaa:	b282      	uxth	r2, r0
 8006eac:	4805      	ldr	r0, [pc, #20]	; (8006ec4 <HAL_UART_TxCpltCallback+0x4c>)
 8006eae:	f7fd fe73 	bl	8004b98 <HAL_UART_Transmit_DMA>
 8006eb2:	2301      	movs	r3, #1
 8006eb4:	f884 30cb 	strb.w	r3, [r4, #203]	; 0xcb
 8006eb8:	b004      	add	sp, #16
 8006eba:	bd10      	pop	{r4, pc}
 8006ebc:	200010ec 	.word	0x200010ec
 8006ec0:	200004ac 	.word	0x200004ac
 8006ec4:	200012b4 	.word	0x200012b4

08006ec8 <COM_halUartReceiveDma>:
 8006ec8:	2201      	movs	r2, #1
 8006eca:	4902      	ldr	r1, [pc, #8]	; (8006ed4 <COM_halUartReceiveDma+0xc>)
 8006ecc:	4802      	ldr	r0, [pc, #8]	; (8006ed8 <COM_halUartReceiveDma+0x10>)
 8006ece:	f7fd be9d 	b.w	8004c0c <HAL_UART_Receive_DMA>
 8006ed2:	bf00      	nop
 8006ed4:	20000511 	.word	0x20000511
 8006ed8:	200012b4 	.word	0x200012b4

08006edc <COM_getTxBusyFlag>:
 8006edc:	4b01      	ldr	r3, [pc, #4]	; (8006ee4 <COM_getTxBusyFlag+0x8>)
 8006ede:	f893 00cb 	ldrb.w	r0, [r3, #203]	; 0xcb
 8006ee2:	4770      	bx	lr
 8006ee4:	200004ac 	.word	0x200004ac

08006ee8 <COM_charHandler>:
 8006ee8:	4b0b      	ldr	r3, [pc, #44]	; (8006f18 <COM_charHandler+0x30>)
 8006eea:	f893 0066 	ldrb.w	r0, [r3, #102]	; 0x66
 8006eee:	b980      	cbnz	r0, 8006f12 <COM_charHandler+0x2a>
 8006ef0:	f893 1065 	ldrb.w	r1, [r3, #101]	; 0x65
 8006ef4:	290a      	cmp	r1, #10
 8006ef6:	d008      	beq.n	8006f0a <COM_charHandler+0x22>
 8006ef8:	f893 2064 	ldrb.w	r2, [r3, #100]	; 0x64
 8006efc:	2a63      	cmp	r2, #99	; 0x63
 8006efe:	d809      	bhi.n	8006f14 <COM_charHandler+0x2c>
 8006f00:	5499      	strb	r1, [r3, r2]
 8006f02:	3201      	adds	r2, #1
 8006f04:	f883 2064 	strb.w	r2, [r3, #100]	; 0x64
 8006f08:	4770      	bx	lr
 8006f0a:	2001      	movs	r0, #1
 8006f0c:	f883 0066 	strb.w	r0, [r3, #102]	; 0x66
 8006f10:	4770      	bx	lr
 8006f12:	2000      	movs	r0, #0
 8006f14:	4770      	bx	lr
 8006f16:	bf00      	nop
 8006f18:	200004ac 	.word	0x200004ac

08006f1c <COMMAND_iwdgTestCallback>:
 8006f1c:	4770      	bx	lr

08006f1e <COMMAND_pingCallback>:
 8006f1e:	f7ff bf7b 	b.w	8006e18 <COM_uartPrint>
	...

08006f24 <COMMAND_getVersionCallback>:
 8006f24:	4801      	ldr	r0, [pc, #4]	; (8006f2c <COMMAND_getVersionCallback+0x8>)
 8006f26:	f7ff bf77 	b.w	8006e18 <COM_uartPrint>
 8006f2a:	bf00      	nop
 8006f2c:	0800b424 	.word	0x0800b424

08006f30 <COMMAND_pwmStartCallback>:
 8006f30:	2100      	movs	r1, #0
 8006f32:	4801      	ldr	r0, [pc, #4]	; (8006f38 <COMMAND_pwmStartCallback+0x8>)
 8006f34:	f7fd bbf8 	b.w	8004728 <HAL_TIM_PWM_Start>
 8006f38:	200011b4 	.word	0x200011b4

08006f3c <COMMAND_pwmStopCallback>:
 8006f3c:	2100      	movs	r1, #0
 8006f3e:	4801      	ldr	r0, [pc, #4]	; (8006f44 <COMMAND_pwmStopCallback+0x8>)
 8006f40:	f7fd bc42 	b.w	80047c8 <HAL_TIM_PWM_Stop>
 8006f44:	200011b4 	.word	0x200011b4

08006f48 <COMMAND_pwmDcCallback>:
 8006f48:	b508      	push	{r3, lr}
 8006f4a:	4907      	ldr	r1, [pc, #28]	; (8006f68 <COMMAND_pwmDcCallback+0x20>)
 8006f4c:	2000      	movs	r0, #0
 8006f4e:	f002 fc9f 	bl	8009890 <strtok>
 8006f52:	f001 fe9a 	bl	8008c8a <atoi>
 8006f56:	4b05      	ldr	r3, [pc, #20]	; (8006f6c <COMMAND_pwmDcCallback+0x24>)
 8006f58:	ea20 70e0 	bic.w	r0, r0, r0, asr #31
 8006f5c:	681b      	ldr	r3, [r3, #0]
 8006f5e:	2864      	cmp	r0, #100	; 0x64
 8006f60:	bfa8      	it	ge
 8006f62:	2064      	movge	r0, #100	; 0x64
 8006f64:	6358      	str	r0, [r3, #52]	; 0x34
 8006f66:	bd08      	pop	{r3, pc}
 8006f68:	0800bb00 	.word	0x0800bb00
 8006f6c:	200011b4 	.word	0x200011b4

08006f70 <COMMAND_crcWholeFlashCalcCallback>:
 8006f70:	b51f      	push	{r0, r1, r2, r3, r4, lr}
 8006f72:	f44f 3200 	mov.w	r2, #131072	; 0x20000
 8006f76:	f04f 6100 	mov.w	r1, #134217728	; 0x8000000
 8006f7a:	4807      	ldr	r0, [pc, #28]	; (8006f98 <COMMAND_crcWholeFlashCalcCallback+0x28>)
 8006f7c:	f7fa f85c 	bl	8001038 <HAL_CRC_Calculate>
 8006f80:	4906      	ldr	r1, [pc, #24]	; (8006f9c <COMMAND_crcWholeFlashCalcCallback+0x2c>)
 8006f82:	4602      	mov	r2, r0
 8006f84:	a801      	add	r0, sp, #4
 8006f86:	f002 fc3b 	bl	8009800 <siprintf>
 8006f8a:	a801      	add	r0, sp, #4
 8006f8c:	f7ff ff44 	bl	8006e18 <COM_uartPrint>
 8006f90:	b005      	add	sp, #20
 8006f92:	f85d fb04 	ldr.w	pc, [sp], #4
 8006f96:	bf00      	nop
 8006f98:	200010e0 	.word	0x200010e0
 8006f9c:	0800b41c 	.word	0x0800b41c

08006fa0 <COMMAND_setSNCallback>:
 8006fa0:	b507      	push	{r0, r1, r2, lr}
 8006fa2:	4908      	ldr	r1, [pc, #32]	; (8006fc4 <COMMAND_setSNCallback+0x24>)
 8006fa4:	2007      	movs	r0, #7
 8006fa6:	f000 f91b 	bl	80071e0 <FLASH_setSectorAddress>
 8006faa:	a902      	add	r1, sp, #8
 8006fac:	4b06      	ldr	r3, [pc, #24]	; (8006fc8 <COMMAND_setSNCallback+0x28>)
 8006fae:	f841 3d04 	str.w	r3, [r1, #-4]!
 8006fb2:	2201      	movs	r2, #1
 8006fb4:	2302      	movs	r3, #2
 8006fb6:	2000      	movs	r0, #0
 8006fb8:	f000 f91c 	bl	80071f4 <FLASH_writeN>
 8006fbc:	b003      	add	sp, #12
 8006fbe:	f85d fb04 	ldr.w	pc, [sp], #4
 8006fc2:	bf00      	nop
 8006fc4:	08060000 	.word	0x08060000
 8006fc8:	deadbeef 	.word	0xdeadbeef

08006fcc <COMMAND_getSNCallback>:
 8006fcc:	b51f      	push	{r0, r1, r2, r3, r4, lr}
 8006fce:	490a      	ldr	r1, [pc, #40]	; (8006ff8 <COMMAND_getSNCallback+0x2c>)
 8006fd0:	2007      	movs	r0, #7
 8006fd2:	f000 f905 	bl	80071e0 <FLASH_setSectorAddress>
 8006fd6:	2302      	movs	r3, #2
 8006fd8:	4669      	mov	r1, sp
 8006fda:	2201      	movs	r2, #1
 8006fdc:	2000      	movs	r0, #0
 8006fde:	f000 f951 	bl	8007284 <FLASH_readN>
 8006fe2:	9a00      	ldr	r2, [sp, #0]
 8006fe4:	4905      	ldr	r1, [pc, #20]	; (8006ffc <COMMAND_getSNCallback+0x30>)
 8006fe6:	a801      	add	r0, sp, #4
 8006fe8:	f002 fc0a 	bl	8009800 <siprintf>
 8006fec:	a801      	add	r0, sp, #4
 8006fee:	f7ff ff13 	bl	8006e18 <COM_uartPrint>
 8006ff2:	b005      	add	sp, #20
 8006ff4:	f85d fb04 	ldr.w	pc, [sp], #4
 8006ff8:	08060000 	.word	0x08060000
 8006ffc:	0800b41c 	.word	0x0800b41c

08007000 <COMMAND_startTickCallback>:
 8007000:	b500      	push	{lr}
 8007002:	b08b      	sub	sp, #44	; 0x2c
 8007004:	2224      	movs	r2, #36	; 0x24
 8007006:	2100      	movs	r1, #0
 8007008:	4668      	mov	r0, sp
 800700a:	f001 fe82 	bl	8008d12 <memset>
 800700e:	2301      	movs	r3, #1
 8007010:	f04f 3280 	mov.w	r2, #2155905152	; 0x80808080
 8007014:	f88d 3002 	strb.w	r3, [sp, #2]
 8007018:	9205      	str	r2, [sp, #20]
 800701a:	f88d 3020 	strb.w	r3, [sp, #32]
 800701e:	2200      	movs	r2, #0
 8007020:	f44f 7380 	mov.w	r3, #256	; 0x100
 8007024:	4669      	mov	r1, sp
 8007026:	4805      	ldr	r0, [pc, #20]	; (800703c <COMMAND_startTickCallback+0x3c>)
 8007028:	9309      	str	r3, [sp, #36]	; 0x24
 800702a:	f7fc fad7 	bl	80035dc <HAL_RTC_SetAlarm_IT>
 800702e:	b108      	cbz	r0, 8007034 <COMMAND_startTickCallback+0x34>
 8007030:	f001 f9dc 	bl	80083ec <Error_Handler>
 8007034:	b00b      	add	sp, #44	; 0x2c
 8007036:	f85d fb04 	ldr.w	pc, [sp], #4
 800703a:	bf00      	nop
 800703c:	20001154 	.word	0x20001154

08007040 <COMMAND_stopTickCallback>:
 8007040:	f44f 7180 	mov.w	r1, #256	; 0x100
 8007044:	4801      	ldr	r0, [pc, #4]	; (800704c <COMMAND_stopTickCallback+0xc>)
 8007046:	f7fb bfd9 	b.w	8002ffc <HAL_RTC_DeactivateAlarm>
 800704a:	bf00      	nop
 800704c:	20001154 	.word	0x20001154

08007050 <COMMAND_assert0Callback>:
 8007050:	f240 1127 	movw	r1, #295	; 0x127
 8007054:	4801      	ldr	r0, [pc, #4]	; (800705c <COMMAND_assert0Callback+0xc>)
 8007056:	f001 ba61 	b.w	800851c <assert_failed>
 800705a:	bf00      	nop
 800705c:	0800b40b 	.word	0x0800b40b

08007060 <COMMAND_clearAssertFlagCallback>:
 8007060:	f001 bbc2 	b.w	80087e8 <SYSTEM_DEBUG_assertResetFlag>

08007064 <COMMAND_lsm6dslPerSampleEnableCallback>:
 8007064:	f000 bce0 	b.w	8007a28 <LSM6DSL_perSampleInit>

08007068 <COMMAND_lsm6dslFifoEnableCallback>:
 8007068:	f000 bd12 	b.w	8007a90 <LSM6DSL_fifoInit>

0800706c <COMMAND_lsm6dslDisableCallback>:
 800706c:	f000 bd76 	b.w	8007b5c <LSM6DSL_modesDisable>

08007070 <COMMAND_enterStopModeCallback>:
 8007070:	b508      	push	{r3, lr}
 8007072:	4905      	ldr	r1, [pc, #20]	; (8007088 <COMMAND_enterStopModeCallback+0x18>)
 8007074:	2000      	movs	r0, #0
 8007076:	f002 fc0b 	bl	8009890 <strtok>
 800707a:	f001 fe06 	bl	8008c8a <atoi>
 800707e:	e8bd 4008 	ldmia.w	sp!, {r3, lr}
 8007082:	f001 bc01 	b.w	8008888 <SYSTEM_DEBUG_enterStopMode>
 8007086:	bf00      	nop
 8007088:	0800bb00 	.word	0x0800bb00

0800708c <COMMAND_enterStandbyModeCallback>:
 800708c:	f001 bc36 	b.w	80088fc <SYSTEM_DEBUG_enterStandbyMode>

08007090 <COMMAND_startOsTimerCallback>:
 8007090:	4b02      	ldr	r3, [pc, #8]	; (800709c <COMMAND_startOsTimerCallback+0xc>)
 8007092:	f241 3188 	movw	r1, #5000	; 0x1388
 8007096:	6818      	ldr	r0, [r3, #0]
 8007098:	f7fd bf92 	b.w	8004fc0 <osTimerStart>
 800709c:	200010f0 	.word	0x200010f0

080070a0 <COMMAND_stopOsTimerCallback>:
 80070a0:	4b01      	ldr	r3, [pc, #4]	; (80070a8 <COMMAND_stopOsTimerCallback+0x8>)
 80070a2:	6818      	ldr	r0, [r3, #0]
 80070a4:	f7fd bfb6 	b.w	8005014 <osTimerStop>
 80070a8:	200010f0 	.word	0x200010f0

080070ac <COMMAND_flashLockCallback>:
 80070ac:	b500      	push	{lr}
 80070ae:	b089      	sub	sp, #36	; 0x24
 80070b0:	a801      	add	r0, sp, #4
 80070b2:	f7fa fc77 	bl	80019a4 <HAL_FLASHEx_OBGetConfig>
 80070b6:	9b05      	ldr	r3, [sp, #20]
 80070b8:	2baa      	cmp	r3, #170	; 0xaa
 80070ba:	d122      	bne.n	8007102 <COMMAND_flashLockCallback+0x56>
 80070bc:	2355      	movs	r3, #85	; 0x55
 80070be:	9305      	str	r3, [sp, #20]
 80070c0:	2302      	movs	r3, #2
 80070c2:	9301      	str	r3, [sp, #4]
 80070c4:	f7fa fb14 	bl	80016f0 <HAL_FLASH_Unlock>
 80070c8:	b108      	cbz	r0, 80070ce <COMMAND_flashLockCallback+0x22>
 80070ca:	f001 f98f 	bl	80083ec <Error_Handler>
 80070ce:	f7fa fb2b 	bl	8001728 <HAL_FLASH_OB_Unlock>
 80070d2:	b108      	cbz	r0, 80070d8 <COMMAND_flashLockCallback+0x2c>
 80070d4:	f001 f98a 	bl	80083ec <Error_Handler>
 80070d8:	a801      	add	r0, sp, #4
 80070da:	f7fa fbbd 	bl	8001858 <HAL_FLASHEx_OBProgram>
 80070de:	b108      	cbz	r0, 80070e4 <COMMAND_flashLockCallback+0x38>
 80070e0:	f001 f984 	bl	80083ec <Error_Handler>
 80070e4:	f7fa fbac 	bl	8001840 <HAL_FLASH_OB_Launch>
 80070e8:	b108      	cbz	r0, 80070ee <COMMAND_flashLockCallback+0x42>
 80070ea:	f001 f97f 	bl	80083ec <Error_Handler>
 80070ee:	f7fa fb2d 	bl	800174c <HAL_FLASH_OB_Lock>
 80070f2:	b108      	cbz	r0, 80070f8 <COMMAND_flashLockCallback+0x4c>
 80070f4:	f001 f97a 	bl	80083ec <Error_Handler>
 80070f8:	f7fa fb0c 	bl	8001714 <HAL_FLASH_Lock>
 80070fc:	b108      	cbz	r0, 8007102 <COMMAND_flashLockCallback+0x56>
 80070fe:	f001 f975 	bl	80083ec <Error_Handler>
 8007102:	b009      	add	sp, #36	; 0x24
 8007104:	f85d fb04 	ldr.w	pc, [sp], #4

08007108 <COMMAND_findAndExecuteCommand>:
 8007108:	e92d 41f0 	stmdb	sp!, {r4, r5, r6, r7, r8, lr}
 800710c:	4e0d      	ldr	r6, [pc, #52]	; (8007144 <COMMAND_findAndExecuteCommand+0x3c>)
 800710e:	4605      	mov	r5, r0
 8007110:	2400      	movs	r4, #0
 8007112:	f04f 080c 	mov.w	r8, #12
 8007116:	fb08 f304 	mul.w	r3, r8, r4
 800711a:	18f7      	adds	r7, r6, r3
 800711c:	5999      	ldr	r1, [r3, r6]
 800711e:	793a      	ldrb	r2, [r7, #4]
 8007120:	4628      	mov	r0, r5
 8007122:	f002 fb8d 	bl	8009840 <strncmp>
 8007126:	b938      	cbnz	r0, 8007138 <COMMAND_findAndExecuteCommand+0x30>
 8007128:	4807      	ldr	r0, [pc, #28]	; (8007148 <COMMAND_findAndExecuteCommand+0x40>)
 800712a:	f7ff fe75 	bl	8006e18 <COM_uartPrint>
 800712e:	68bb      	ldr	r3, [r7, #8]
 8007130:	4628      	mov	r0, r5
 8007132:	e8bd 41f0 	ldmia.w	sp!, {r4, r5, r6, r7, r8, lr}
 8007136:	4718      	bx	r3
 8007138:	3401      	adds	r4, #1
 800713a:	2c15      	cmp	r4, #21
 800713c:	d1eb      	bne.n	8007116 <COMMAND_findAndExecuteCommand+0xe>
 800713e:	e8bd 81f0 	ldmia.w	sp!, {r4, r5, r6, r7, r8, pc}
 8007142:	bf00      	nop
 8007144:	0800b42c 	.word	0x0800b42c
 8007148:	0800b420 	.word	0x0800b420

0800714c <MX_CRC_Init>:
 800714c:	4805      	ldr	r0, [pc, #20]	; (8007164 <MX_CRC_Init+0x18>)
 800714e:	b508      	push	{r3, lr}
 8007150:	4b05      	ldr	r3, [pc, #20]	; (8007168 <MX_CRC_Init+0x1c>)
 8007152:	6003      	str	r3, [r0, #0]
 8007154:	f7f9 ff52 	bl	8000ffc <HAL_CRC_Init>
 8007158:	b118      	cbz	r0, 8007162 <MX_CRC_Init+0x16>
 800715a:	e8bd 4008 	ldmia.w	sp!, {r3, lr}
 800715e:	f001 b945 	b.w	80083ec <Error_Handler>
 8007162:	bd08      	pop	{r3, pc}
 8007164:	200010e0 	.word	0x200010e0
 8007168:	40023000 	.word	0x40023000

0800716c <HAL_CRC_MspInit>:
 800716c:	6802      	ldr	r2, [r0, #0]
 800716e:	4b09      	ldr	r3, [pc, #36]	; (8007194 <HAL_CRC_MspInit+0x28>)
 8007170:	429a      	cmp	r2, r3
 8007172:	b082      	sub	sp, #8
 8007174:	d10b      	bne.n	800718e <HAL_CRC_MspInit+0x22>
 8007176:	2300      	movs	r3, #0
 8007178:	9301      	str	r3, [sp, #4]
 800717a:	4b07      	ldr	r3, [pc, #28]	; (8007198 <HAL_CRC_MspInit+0x2c>)
 800717c:	6b1a      	ldr	r2, [r3, #48]	; 0x30
 800717e:	f442 5280 	orr.w	r2, r2, #4096	; 0x1000
 8007182:	631a      	str	r2, [r3, #48]	; 0x30
 8007184:	6b1b      	ldr	r3, [r3, #48]	; 0x30
 8007186:	f403 5380 	and.w	r3, r3, #4096	; 0x1000
 800718a:	9301      	str	r3, [sp, #4]
 800718c:	9b01      	ldr	r3, [sp, #4]
 800718e:	b002      	add	sp, #8
 8007190:	4770      	bx	lr
 8007192:	bf00      	nop
 8007194:	40023000 	.word	0x40023000
 8007198:	40023800 	.word	0x40023800

0800719c <MX_DMA_Init>:
 800719c:	b513      	push	{r0, r1, r4, lr}
 800719e:	4b0f      	ldr	r3, [pc, #60]	; (80071dc <MX_DMA_Init+0x40>)
 80071a0:	2400      	movs	r4, #0
 80071a2:	9401      	str	r4, [sp, #4]
 80071a4:	6b1a      	ldr	r2, [r3, #48]	; 0x30
 80071a6:	f442 1200 	orr.w	r2, r2, #2097152	; 0x200000
 80071aa:	631a      	str	r2, [r3, #48]	; 0x30
 80071ac:	6b1b      	ldr	r3, [r3, #48]	; 0x30
 80071ae:	f403 1300 	and.w	r3, r3, #2097152	; 0x200000
 80071b2:	4622      	mov	r2, r4
 80071b4:	9301      	str	r3, [sp, #4]
 80071b6:	2105      	movs	r1, #5
 80071b8:	2010      	movs	r0, #16
 80071ba:	9b01      	ldr	r3, [sp, #4]
 80071bc:	f7f9 fec6 	bl	8000f4c <HAL_NVIC_SetPriority>
 80071c0:	2010      	movs	r0, #16
 80071c2:	f7f9 ff07 	bl	8000fd4 <HAL_NVIC_EnableIRQ>
 80071c6:	4622      	mov	r2, r4
 80071c8:	2105      	movs	r1, #5
 80071ca:	2011      	movs	r0, #17
 80071cc:	f7f9 febe 	bl	8000f4c <HAL_NVIC_SetPriority>
 80071d0:	2011      	movs	r0, #17
 80071d2:	b002      	add	sp, #8
 80071d4:	e8bd 4010 	ldmia.w	sp!, {r4, lr}
 80071d8:	f7f9 befc 	b.w	8000fd4 <HAL_NVIC_EnableIRQ>
 80071dc:	40023800 	.word	0x40023800

080071e0 <FLASH_setSectorAddress>:
 80071e0:	4b02      	ldr	r3, [pc, #8]	; (80071ec <FLASH_setSectorAddress+0xc>)
 80071e2:	7018      	strb	r0, [r3, #0]
 80071e4:	4b02      	ldr	r3, [pc, #8]	; (80071f0 <FLASH_setSectorAddress+0x10>)
 80071e6:	6019      	str	r1, [r3, #0]
 80071e8:	4770      	bx	lr
 80071ea:	bf00      	nop
 80071ec:	2000057c 	.word	0x2000057c
 80071f0:	20000578 	.word	0x20000578

080071f4 <FLASH_writeN>:
 80071f4:	b5f8      	push	{r3, r4, r5, r6, r7, lr}
 80071f6:	461f      	mov	r7, r3
 80071f8:	4b20      	ldr	r3, [pc, #128]	; (800727c <FLASH_writeN+0x88>)
 80071fa:	681d      	ldr	r5, [r3, #0]
 80071fc:	4616      	mov	r6, r2
 80071fe:	460c      	mov	r4, r1
 8007200:	4405      	add	r5, r0
 8007202:	f7fa fa75 	bl	80016f0 <HAL_FLASH_Unlock>
 8007206:	4b1e      	ldr	r3, [pc, #120]	; (8007280 <FLASH_writeN+0x8c>)
 8007208:	2102      	movs	r1, #2
 800720a:	7818      	ldrb	r0, [r3, #0]
 800720c:	f7fa fbee 	bl	80019ec <FLASH_Erase_Sector>
 8007210:	f7fa fa80 	bl	8001714 <HAL_FLASH_Lock>
 8007214:	f7fa fa6c 	bl	80016f0 <HAL_FLASH_Unlock>
 8007218:	2f01      	cmp	r7, #1
 800721a:	d010      	beq.n	800723e <FLASH_writeN+0x4a>
 800721c:	d31d      	bcc.n	800725a <FLASH_writeN+0x66>
 800721e:	2f02      	cmp	r7, #2
 8007220:	d121      	bne.n	8007266 <FLASH_writeN+0x72>
 8007222:	eb04 0686 	add.w	r6, r4, r6, lsl #2
 8007226:	1b2d      	subs	r5, r5, r4
 8007228:	42b4      	cmp	r4, r6
 800722a:	eb05 0104 	add.w	r1, r5, r4
 800722e:	d01a      	beq.n	8007266 <FLASH_writeN+0x72>
 8007230:	f854 2b04 	ldr.w	r2, [r4], #4
 8007234:	2300      	movs	r3, #0
 8007236:	2002      	movs	r0, #2
 8007238:	f7fa fabc 	bl	80017b4 <HAL_FLASH_Program>
 800723c:	e7f4      	b.n	8007228 <FLASH_writeN+0x34>
 800723e:	eb04 0646 	add.w	r6, r4, r6, lsl #1
 8007242:	1b2d      	subs	r5, r5, r4
 8007244:	42b4      	cmp	r4, r6
 8007246:	eb05 0104 	add.w	r1, r5, r4
 800724a:	d00c      	beq.n	8007266 <FLASH_writeN+0x72>
 800724c:	f834 2b02 	ldrh.w	r2, [r4], #2
 8007250:	2300      	movs	r3, #0
 8007252:	2001      	movs	r0, #1
 8007254:	f7fa faae 	bl	80017b4 <HAL_FLASH_Program>
 8007258:	e7f4      	b.n	8007244 <FLASH_writeN+0x50>
 800725a:	4426      	add	r6, r4
 800725c:	1b2d      	subs	r5, r5, r4
 800725e:	42b4      	cmp	r4, r6
 8007260:	eb05 0104 	add.w	r1, r5, r4
 8007264:	d103      	bne.n	800726e <FLASH_writeN+0x7a>
 8007266:	e8bd 40f8 	ldmia.w	sp!, {r3, r4, r5, r6, r7, lr}
 800726a:	f7fa ba53 	b.w	8001714 <HAL_FLASH_Lock>
 800726e:	f814 2b01 	ldrb.w	r2, [r4], #1
 8007272:	2300      	movs	r3, #0
 8007274:	2000      	movs	r0, #0
 8007276:	f7fa fa9d 	bl	80017b4 <HAL_FLASH_Program>
 800727a:	e7f0      	b.n	800725e <FLASH_writeN+0x6a>
 800727c:	20000578 	.word	0x20000578
 8007280:	2000057c 	.word	0x2000057c

08007284 <FLASH_readN>:
 8007284:	b510      	push	{r4, lr}
 8007286:	4c11      	ldr	r4, [pc, #68]	; (80072cc <FLASH_readN+0x48>)
 8007288:	6824      	ldr	r4, [r4, #0]
 800728a:	2b01      	cmp	r3, #1
 800728c:	4420      	add	r0, r4
 800728e:	d00b      	beq.n	80072a8 <FLASH_readN+0x24>
 8007290:	d313      	bcc.n	80072ba <FLASH_readN+0x36>
 8007292:	2b02      	cmp	r3, #2
 8007294:	d115      	bne.n	80072c2 <FLASH_readN+0x3e>
 8007296:	eb01 0282 	add.w	r2, r1, r2, lsl #2
 800729a:	1a40      	subs	r0, r0, r1
 800729c:	4291      	cmp	r1, r2
 800729e:	d010      	beq.n	80072c2 <FLASH_readN+0x3e>
 80072a0:	5843      	ldr	r3, [r0, r1]
 80072a2:	f841 3b04 	str.w	r3, [r1], #4
 80072a6:	e7f9      	b.n	800729c <FLASH_readN+0x18>
 80072a8:	eb01 0242 	add.w	r2, r1, r2, lsl #1
 80072ac:	1a40      	subs	r0, r0, r1
 80072ae:	4291      	cmp	r1, r2
 80072b0:	d007      	beq.n	80072c2 <FLASH_readN+0x3e>
 80072b2:	5a43      	ldrh	r3, [r0, r1]
 80072b4:	f821 3b02 	strh.w	r3, [r1], #2
 80072b8:	e7f9      	b.n	80072ae <FLASH_readN+0x2a>
 80072ba:	440a      	add	r2, r1
 80072bc:	1a40      	subs	r0, r0, r1
 80072be:	4291      	cmp	r1, r2
 80072c0:	d100      	bne.n	80072c4 <FLASH_readN+0x40>
 80072c2:	bd10      	pop	{r4, pc}
 80072c4:	5c43      	ldrb	r3, [r0, r1]
 80072c6:	f801 3b01 	strb.w	r3, [r1], #1
 80072ca:	e7f8      	b.n	80072be <FLASH_readN+0x3a>
 80072cc:	20000578 	.word	0x20000578

080072d0 <StartDefaultTask>:
 80072d0:	b51f      	push	{r0, r1, r2, r3, r4, lr}
 80072d2:	f04f 32ff 	mov.w	r2, #4294967295
 80072d6:	2103      	movs	r1, #3
 80072d8:	a801      	add	r0, sp, #4
 80072da:	f7fd feed 	bl	80050b8 <osSignalWait>
 80072de:	9b01      	ldr	r3, [sp, #4]
 80072e0:	2b08      	cmp	r3, #8
 80072e2:	d1f6      	bne.n	80072d2 <StartDefaultTask+0x2>
 80072e4:	9c02      	ldr	r4, [sp, #8]
 80072e6:	07e2      	lsls	r2, r4, #31
 80072e8:	d503      	bpl.n	80072f2 <StartDefaultTask+0x22>
 80072ea:	f7ff fd7f 	bl	8006dec <COM_readyCommandProcess>
 80072ee:	f7ff fd75 	bl	8006ddc <COM_setReadyCommandFlagOff>
 80072f2:	07a3      	lsls	r3, r4, #30
 80072f4:	d5ed      	bpl.n	80072d2 <StartDefaultTask+0x2>
 80072f6:	f000 f977 	bl	80075e8 <LSM6DSL_processHanlder>
 80072fa:	e7ea      	b.n	80072d2 <StartDefaultTask+0x2>

080072fc <vApplicationGetIdleTaskMemory>:
 80072fc:	4b03      	ldr	r3, [pc, #12]	; (800730c <vApplicationGetIdleTaskMemory+0x10>)
 80072fe:	6003      	str	r3, [r0, #0]
 8007300:	4b03      	ldr	r3, [pc, #12]	; (8007310 <vApplicationGetIdleTaskMemory+0x14>)
 8007302:	600b      	str	r3, [r1, #0]
 8007304:	2380      	movs	r3, #128	; 0x80
 8007306:	6013      	str	r3, [r2, #0]
 8007308:	4770      	bx	lr
 800730a:	bf00      	nop
 800730c:	20000780 	.word	0x20000780
 8007310:	20000580 	.word	0x20000580

08007314 <vApplicationGetTimerTaskMemory>:
 8007314:	4b03      	ldr	r3, [pc, #12]	; (8007324 <vApplicationGetTimerTaskMemory+0x10>)
 8007316:	6003      	str	r3, [r0, #0]
 8007318:	4b03      	ldr	r3, [pc, #12]	; (8007328 <vApplicationGetTimerTaskMemory+0x14>)
 800731a:	600b      	str	r3, [r1, #0]
 800731c:	f44f 7380 	mov.w	r3, #256	; 0x100
 8007320:	6013      	str	r3, [r2, #0]
 8007322:	4770      	bx	lr
 8007324:	20000c34 	.word	0x20000c34
 8007328:	20000834 	.word	0x20000834

0800732c <MX_FREERTOS_Init>:
 800732c:	b570      	push	{r4, r5, r6, lr}
 800732e:	2600      	movs	r6, #0
 8007330:	b08e      	sub	sp, #56	; 0x38
 8007332:	4b13      	ldr	r3, [pc, #76]	; (8007380 <MX_FREERTOS_Init+0x54>)
 8007334:	9301      	str	r3, [sp, #4]
 8007336:	4632      	mov	r2, r6
 8007338:	2101      	movs	r1, #1
 800733a:	a801      	add	r0, sp, #4
 800733c:	9602      	str	r6, [sp, #8]
 800733e:	f7fd fe27 	bl	8004f90 <osTimerCreate>
 8007342:	4c10      	ldr	r4, [pc, #64]	; (8007384 <MX_FREERTOS_Init+0x58>)
 8007344:	4b10      	ldr	r3, [pc, #64]	; (8007388 <MX_FREERTOS_Init+0x5c>)
 8007346:	6018      	str	r0, [r3, #0]
 8007348:	e894 000f 	ldmia.w	r4, {r0, r1, r2, r3}
 800734c:	ad03      	add	r5, sp, #12
 800734e:	e885 000f 	stmia.w	r5, {r0, r1, r2, r3}
 8007352:	4631      	mov	r1, r6
 8007354:	4628      	mov	r0, r5
 8007356:	f7fd fed3 	bl	8005100 <osMessageCreate>
 800735a:	4b0c      	ldr	r3, [pc, #48]	; (800738c <MX_FREERTOS_Init+0x60>)
 800735c:	3410      	adds	r4, #16
 800735e:	6018      	str	r0, [r3, #0]
 8007360:	cc0f      	ldmia	r4!, {r0, r1, r2, r3}
 8007362:	ad07      	add	r5, sp, #28
 8007364:	c50f      	stmia	r5!, {r0, r1, r2, r3}
 8007366:	e894 0007 	ldmia.w	r4, {r0, r1, r2}
 800736a:	e885 0007 	stmia.w	r5, {r0, r1, r2}
 800736e:	4631      	mov	r1, r6
 8007370:	a807      	add	r0, sp, #28
 8007372:	f7fd fde4 	bl	8004f3e <osThreadCreate>
 8007376:	4b06      	ldr	r3, [pc, #24]	; (8007390 <MX_FREERTOS_Init+0x64>)
 8007378:	6018      	str	r0, [r3, #0]
 800737a:	b00e      	add	sp, #56	; 0x38
 800737c:	bd70      	pop	{r4, r5, r6, pc}
 800737e:	bf00      	nop
 8007380:	080089c5 	.word	0x080089c5
 8007384:	0800b068 	.word	0x0800b068
 8007388:	200010f0 	.word	0x200010f0
 800738c:	200010ec 	.word	0x200010ec
 8007390:	200010e8 	.word	0x200010e8

08007394 <MX_GPIO_Init>:
 8007394:	b570      	push	{r4, r5, r6, lr}
 8007396:	b088      	sub	sp, #32
 8007398:	2214      	movs	r2, #20
 800739a:	2100      	movs	r1, #0
 800739c:	a803      	add	r0, sp, #12
 800739e:	f001 fcb8 	bl	8008d12 <memset>
 80073a2:	2400      	movs	r4, #0
 80073a4:	4b29      	ldr	r3, [pc, #164]	; (800744c <MX_GPIO_Init+0xb8>)
 80073a6:	9400      	str	r4, [sp, #0]
 80073a8:	6b1a      	ldr	r2, [r3, #48]	; 0x30
 80073aa:	4e29      	ldr	r6, [pc, #164]	; (8007450 <MX_GPIO_Init+0xbc>)
 80073ac:	f042 0204 	orr.w	r2, r2, #4
 80073b0:	631a      	str	r2, [r3, #48]	; 0x30
 80073b2:	6b1a      	ldr	r2, [r3, #48]	; 0x30
 80073b4:	f002 0204 	and.w	r2, r2, #4
 80073b8:	9200      	str	r2, [sp, #0]
 80073ba:	9a00      	ldr	r2, [sp, #0]
 80073bc:	9401      	str	r4, [sp, #4]
 80073be:	6b1a      	ldr	r2, [r3, #48]	; 0x30
 80073c0:	f042 0201 	orr.w	r2, r2, #1
 80073c4:	631a      	str	r2, [r3, #48]	; 0x30
 80073c6:	6b1a      	ldr	r2, [r3, #48]	; 0x30
 80073c8:	f002 0201 	and.w	r2, r2, #1
 80073cc:	9201      	str	r2, [sp, #4]
 80073ce:	9a01      	ldr	r2, [sp, #4]
 80073d0:	9402      	str	r4, [sp, #8]
 80073d2:	6b1a      	ldr	r2, [r3, #48]	; 0x30
 80073d4:	f042 0202 	orr.w	r2, r2, #2
 80073d8:	631a      	str	r2, [r3, #48]	; 0x30
 80073da:	6b1b      	ldr	r3, [r3, #48]	; 0x30
 80073dc:	f003 0302 	and.w	r3, r3, #2
 80073e0:	9302      	str	r3, [sp, #8]
 80073e2:	4622      	mov	r2, r4
 80073e4:	4630      	mov	r0, r6
 80073e6:	2120      	movs	r1, #32
 80073e8:	9b02      	ldr	r3, [sp, #8]
 80073ea:	f7fa fc69 	bl	8001cc0 <HAL_GPIO_WritePin>
 80073ee:	4b19      	ldr	r3, [pc, #100]	; (8007454 <MX_GPIO_Init+0xc0>)
 80073f0:	4819      	ldr	r0, [pc, #100]	; (8007458 <MX_GPIO_Init+0xc4>)
 80073f2:	9405      	str	r4, [sp, #20]
 80073f4:	f44f 5200 	mov.w	r2, #8192	; 0x2000
 80073f8:	a903      	add	r1, sp, #12
 80073fa:	e9cd 2303 	strd	r2, r3, [sp, #12]
 80073fe:	2520      	movs	r5, #32
 8007400:	f7fa fb2e 	bl	8001a60 <HAL_GPIO_Init>
 8007404:	2301      	movs	r3, #1
 8007406:	a903      	add	r1, sp, #12
 8007408:	4630      	mov	r0, r6
 800740a:	e9cd 5303 	strd	r5, r3, [sp, #12]
 800740e:	e9cd 4405 	strd	r4, r4, [sp, #20]
 8007412:	f7fa fb25 	bl	8001a60 <HAL_GPIO_Init>
 8007416:	4b11      	ldr	r3, [pc, #68]	; (800745c <MX_GPIO_Init+0xc8>)
 8007418:	4811      	ldr	r0, [pc, #68]	; (8007460 <MX_GPIO_Init+0xcc>)
 800741a:	9503      	str	r5, [sp, #12]
 800741c:	a903      	add	r1, sp, #12
 800741e:	e9cd 3404 	strd	r3, r4, [sp, #16]
 8007422:	f7fa fb1d 	bl	8001a60 <HAL_GPIO_Init>
 8007426:	4622      	mov	r2, r4
 8007428:	2105      	movs	r1, #5
 800742a:	2017      	movs	r0, #23
 800742c:	f7f9 fd8e 	bl	8000f4c <HAL_NVIC_SetPriority>
 8007430:	2017      	movs	r0, #23
 8007432:	f7f9 fdcf 	bl	8000fd4 <HAL_NVIC_EnableIRQ>
 8007436:	4622      	mov	r2, r4
 8007438:	2105      	movs	r1, #5
 800743a:	2028      	movs	r0, #40	; 0x28
 800743c:	f7f9 fd86 	bl	8000f4c <HAL_NVIC_SetPriority>
 8007440:	2028      	movs	r0, #40	; 0x28
 8007442:	f7f9 fdc7 	bl	8000fd4 <HAL_NVIC_EnableIRQ>
 8007446:	b008      	add	sp, #32
 8007448:	bd70      	pop	{r4, r5, r6, pc}
 800744a:	bf00      	nop
 800744c:	40023800 	.word	0x40023800
 8007450:	40020000 	.word	0x40020000
 8007454:	10110000 	.word	0x10110000
 8007458:	40020800 	.word	0x40020800
 800745c:	10210000 	.word	0x10210000
 8007460:	40020400 	.word	0x40020400

08007464 <_sbrk_r>:
 8007464:	4a16      	ldr	r2, [pc, #88]	; (80074c0 <_sbrk_r+0x5c>)
 8007466:	b5f8      	push	{r3, r4, r5, r6, r7, lr}
 8007468:	6813      	ldr	r3, [r2, #0]
 800746a:	4607      	mov	r7, r0
 800746c:	460d      	mov	r5, r1
 800746e:	b92b      	cbnz	r3, 800747c <_sbrk_r+0x18>
 8007470:	4914      	ldr	r1, [pc, #80]	; (80074c4 <_sbrk_r+0x60>)
 8007472:	4b15      	ldr	r3, [pc, #84]	; (80074c8 <_sbrk_r+0x64>)
 8007474:	1a5b      	subs	r3, r3, r1
 8007476:	4915      	ldr	r1, [pc, #84]	; (80074cc <_sbrk_r+0x68>)
 8007478:	6013      	str	r3, [r2, #0]
 800747a:	600b      	str	r3, [r1, #0]
 800747c:	f7fe fedc 	bl	8006238 <xTaskGetSchedulerState>
 8007480:	4e11      	ldr	r6, [pc, #68]	; (80074c8 <_sbrk_r+0x64>)
 8007482:	466b      	mov	r3, sp
 8007484:	2801      	cmp	r0, #1
 8007486:	bf08      	it	eq
 8007488:	461e      	moveq	r6, r3
 800748a:	f7fe fcb7 	bl	8005dfc <vTaskSuspendAll>
 800748e:	4b10      	ldr	r3, [pc, #64]	; (80074d0 <_sbrk_r+0x6c>)
 8007490:	681c      	ldr	r4, [r3, #0]
 8007492:	1962      	adds	r2, r4, r5
 8007494:	42b2      	cmp	r2, r6
 8007496:	d907      	bls.n	80074a8 <_sbrk_r+0x44>
 8007498:	230c      	movs	r3, #12
 800749a:	603b      	str	r3, [r7, #0]
 800749c:	f7fe fd4e 	bl	8005f3c <xTaskResumeAll>
 80074a0:	f04f 34ff 	mov.w	r4, #4294967295
 80074a4:	4620      	mov	r0, r4
 80074a6:	bdf8      	pop	{r3, r4, r5, r6, r7, pc}
 80074a8:	601a      	str	r2, [r3, #0]
 80074aa:	4a08      	ldr	r2, [pc, #32]	; (80074cc <_sbrk_r+0x68>)
 80074ac:	6813      	ldr	r3, [r2, #0]
 80074ae:	1b5b      	subs	r3, r3, r5
 80074b0:	6013      	str	r3, [r2, #0]
 80074b2:	4a08      	ldr	r2, [pc, #32]	; (80074d4 <_sbrk_r+0x70>)
 80074b4:	6813      	ldr	r3, [r2, #0]
 80074b6:	442b      	add	r3, r5
 80074b8:	6013      	str	r3, [r2, #0]
 80074ba:	f7fe fd3f 	bl	8005f3c <xTaskResumeAll>
 80074be:	e7f1      	b.n	80074a4 <_sbrk_r+0x40>
 80074c0:	200010f8 	.word	0x200010f8
 80074c4:	200012f8 	.word	0x200012f8
 80074c8:	2001fe00 	.word	0x2001fe00
 80074cc:	20000ce8 	.word	0x20000ce8
 80074d0:	2000008c 	.word	0x2000008c
 80074d4:	20000cec 	.word	0x20000cec

080074d8 <__malloc_lock>:
 80074d8:	f3ef 8305 	mrs	r3, IPSR
 80074dc:	b90b      	cbnz	r3, 80074e2 <__malloc_lock+0xa>
 80074de:	f7fe bc8d 	b.w	8005dfc <vTaskSuspendAll>
 80074e2:	f04f 0350 	mov.w	r3, #80	; 0x50
 80074e6:	f383 8811 	msr	BASEPRI, r3
 80074ea:	f3bf 8f6f 	isb	sy
 80074ee:	f3bf 8f4f 	dsb	sy
 80074f2:	e7fe      	b.n	80074f2 <__malloc_lock+0x1a>

080074f4 <__malloc_unlock>:
 80074f4:	f7fe bd22 	b.w	8005f3c <xTaskResumeAll>

080074f8 <pvPortMalloc>:
 80074f8:	f001 bbf0 	b.w	8008cdc <malloc>

080074fc <vPortFree>:
 80074fc:	f001 bbf6 	b.w	8008cec <free>

08007500 <MX_I2C1_Init>:
 8007500:	b508      	push	{r3, lr}
 8007502:	480b      	ldr	r0, [pc, #44]	; (8007530 <MX_I2C1_Init+0x30>)
 8007504:	4a0b      	ldr	r2, [pc, #44]	; (8007534 <MX_I2C1_Init+0x34>)
 8007506:	4b0c      	ldr	r3, [pc, #48]	; (8007538 <MX_I2C1_Init+0x38>)
 8007508:	e9c0 2300 	strd	r2, r3, [r0]
 800750c:	2300      	movs	r3, #0
 800750e:	f44f 4280 	mov.w	r2, #16384	; 0x4000
 8007512:	e9c0 3302 	strd	r3, r3, [r0, #8]
 8007516:	e9c0 2304 	strd	r2, r3, [r0, #16]
 800751a:	e9c0 3306 	strd	r3, r3, [r0, #24]
 800751e:	6203      	str	r3, [r0, #32]
 8007520:	f7fa fdc8 	bl	80020b4 <HAL_I2C_Init>
 8007524:	b118      	cbz	r0, 800752e <MX_I2C1_Init+0x2e>
 8007526:	e8bd 4008 	ldmia.w	sp!, {r3, lr}
 800752a:	f000 bf5f 	b.w	80083ec <Error_Handler>
 800752e:	bd08      	pop	{r3, pc}
 8007530:	20001100 	.word	0x20001100
 8007534:	40005400 	.word	0x40005400
 8007538:	000186a0 	.word	0x000186a0

0800753c <HAL_I2C_MspInit>:
 800753c:	b530      	push	{r4, r5, lr}
 800753e:	4604      	mov	r4, r0
 8007540:	b089      	sub	sp, #36	; 0x24
 8007542:	2214      	movs	r2, #20
 8007544:	2100      	movs	r1, #0
 8007546:	a803      	add	r0, sp, #12
 8007548:	f001 fbe3 	bl	8008d12 <memset>
 800754c:	6822      	ldr	r2, [r4, #0]
 800754e:	4b15      	ldr	r3, [pc, #84]	; (80075a4 <HAL_I2C_MspInit+0x68>)
 8007550:	429a      	cmp	r2, r3
 8007552:	d124      	bne.n	800759e <HAL_I2C_MspInit+0x62>
 8007554:	4c14      	ldr	r4, [pc, #80]	; (80075a8 <HAL_I2C_MspInit+0x6c>)
 8007556:	4815      	ldr	r0, [pc, #84]	; (80075ac <HAL_I2C_MspInit+0x70>)
 8007558:	2500      	movs	r5, #0
 800755a:	9501      	str	r5, [sp, #4]
 800755c:	6b23      	ldr	r3, [r4, #48]	; 0x30
 800755e:	f043 0302 	orr.w	r3, r3, #2
 8007562:	6323      	str	r3, [r4, #48]	; 0x30
 8007564:	6b23      	ldr	r3, [r4, #48]	; 0x30
 8007566:	f003 0302 	and.w	r3, r3, #2
 800756a:	9301      	str	r3, [sp, #4]
 800756c:	9b01      	ldr	r3, [sp, #4]
 800756e:	f44f 7240 	mov.w	r2, #768	; 0x300
 8007572:	2312      	movs	r3, #18
 8007574:	e9cd 2303 	strd	r2, r3, [sp, #12]
 8007578:	2101      	movs	r1, #1
 800757a:	2303      	movs	r3, #3
 800757c:	e9cd 1305 	strd	r1, r3, [sp, #20]
 8007580:	2304      	movs	r3, #4
 8007582:	a903      	add	r1, sp, #12
 8007584:	9307      	str	r3, [sp, #28]
 8007586:	f7fa fa6b 	bl	8001a60 <HAL_GPIO_Init>
 800758a:	9502      	str	r5, [sp, #8]
 800758c:	6c23      	ldr	r3, [r4, #64]	; 0x40
 800758e:	f443 1300 	orr.w	r3, r3, #2097152	; 0x200000
 8007592:	6423      	str	r3, [r4, #64]	; 0x40
 8007594:	6c23      	ldr	r3, [r4, #64]	; 0x40
 8007596:	f403 1300 	and.w	r3, r3, #2097152	; 0x200000
 800759a:	9302      	str	r3, [sp, #8]
 800759c:	9b02      	ldr	r3, [sp, #8]
 800759e:	b009      	add	sp, #36	; 0x24
 80075a0:	bd30      	pop	{r4, r5, pc}
 80075a2:	bf00      	nop
 80075a4:	40005400 	.word	0x40005400
 80075a8:	40023800 	.word	0x40023800
 80075ac:	40020400 	.word	0x40020400

080075b0 <LSM6DSL_read>:
 80075b0:	b51f      	push	{r0, r1, r2, r3, r4, lr}
 80075b2:	f44f 747a 	mov.w	r4, #1000	; 0x3e8
 80075b6:	e9cd 3401 	strd	r3, r4, [sp, #4]
 80075ba:	9200      	str	r2, [sp, #0]
 80075bc:	2301      	movs	r3, #1
 80075be:	460a      	mov	r2, r1
 80075c0:	21d7      	movs	r1, #215	; 0xd7
 80075c2:	f7fa ff23 	bl	800240c <HAL_I2C_Mem_Read>
 80075c6:	2000      	movs	r0, #0
 80075c8:	b004      	add	sp, #16
 80075ca:	bd10      	pop	{r4, pc}

080075cc <LSM6DSL_write>:
 80075cc:	b51f      	push	{r0, r1, r2, r3, r4, lr}
 80075ce:	f44f 747a 	mov.w	r4, #1000	; 0x3e8
 80075d2:	e9cd 3401 	strd	r3, r4, [sp, #4]
 80075d6:	9200      	str	r2, [sp, #0]
 80075d8:	2301      	movs	r3, #1
 80075da:	460a      	mov	r2, r1
 80075dc:	21d7      	movs	r1, #215	; 0xd7
 80075de:	f7fa fe7b 	bl	80022d8 <HAL_I2C_Mem_Write>
 80075e2:	2000      	movs	r0, #0
 80075e4:	b004      	add	sp, #16
 80075e6:	bd10      	pop	{r4, pc}

080075e8 <LSM6DSL_processHanlder>:
 80075e8:	e92d 4ff0 	stmdb	sp!, {r4, r5, r6, r7, r8, r9, sl, fp, lr}
 80075ec:	4bcf      	ldr	r3, [pc, #828]	; (800792c <LSM6DSL_processHanlder+0x344>)
 80075ee:	ed2d 8b04 	vpush	{d8-d9}
 80075f2:	781b      	ldrb	r3, [r3, #0]
 80075f4:	2b01      	cmp	r3, #1
 80075f6:	b089      	sub	sp, #36	; 0x24
 80075f8:	f040 8081 	bne.w	80076fe <LSM6DSL_processHanlder+0x116>
 80075fc:	a907      	add	r1, sp, #28
 80075fe:	48cc      	ldr	r0, [pc, #816]	; (8007930 <LSM6DSL_processHanlder+0x348>)
 8007600:	f000 fb79 	bl	8007cf6 <lsm6dsl_status_reg_get>
 8007604:	f89d 301c 	ldrb.w	r3, [sp, #28]
 8007608:	07da      	lsls	r2, r3, #31
 800760a:	d537      	bpl.n	800767c <LSM6DSL_processHanlder+0x94>
 800760c:	4cc9      	ldr	r4, [pc, #804]	; (8007934 <LSM6DSL_processHanlder+0x34c>)
 800760e:	48c8      	ldr	r0, [pc, #800]	; (8007930 <LSM6DSL_processHanlder+0x348>)
 8007610:	4dc9      	ldr	r5, [pc, #804]	; (8007938 <LSM6DSL_processHanlder+0x350>)
 8007612:	2300      	movs	r3, #0
 8007614:	6023      	str	r3, [r4, #0]
 8007616:	80a3      	strh	r3, [r4, #4]
 8007618:	4621      	mov	r1, r4
 800761a:	f000 fb76 	bl	8007d0a <lsm6dsl_acceleration_raw_get>
 800761e:	f9b4 0000 	ldrsh.w	r0, [r4]
 8007622:	f000 fadd 	bl	8007be0 <lsm6dsl_from_fs8g_to_mg>
 8007626:	f9b4 0002 	ldrsh.w	r0, [r4, #2]
 800762a:	ed85 0a00 	vstr	s0, [r5]
 800762e:	f000 fad7 	bl	8007be0 <lsm6dsl_from_fs8g_to_mg>
 8007632:	f9b4 0004 	ldrsh.w	r0, [r4, #4]
 8007636:	ed85 0a01 	vstr	s0, [r5, #4]
 800763a:	f000 fad1 	bl	8007be0 <lsm6dsl_from_fs8g_to_mg>
 800763e:	6828      	ldr	r0, [r5, #0]
 8007640:	ed85 0a02 	vstr	s0, [r5, #8]
 8007644:	ed8d 0a05 	vstr	s0, [sp, #20]
 8007648:	f7f8 ff86 	bl	8000558 <__aeabi_f2d>
 800764c:	ed9d 0a05 	vldr	s0, [sp, #20]
 8007650:	4606      	mov	r6, r0
 8007652:	ee10 0a10 	vmov	r0, s0
 8007656:	460f      	mov	r7, r1
 8007658:	f7f8 ff7e 	bl	8000558 <__aeabi_f2d>
 800765c:	e9cd 0102 	strd	r0, r1, [sp, #8]
 8007660:	6868      	ldr	r0, [r5, #4]
 8007662:	f7f8 ff79 	bl	8000558 <__aeabi_f2d>
 8007666:	4632      	mov	r2, r6
 8007668:	e9cd 0100 	strd	r0, r1, [sp]
 800766c:	463b      	mov	r3, r7
 800766e:	49b3      	ldr	r1, [pc, #716]	; (800793c <LSM6DSL_processHanlder+0x354>)
 8007670:	48b3      	ldr	r0, [pc, #716]	; (8007940 <LSM6DSL_processHanlder+0x358>)
 8007672:	f002 f8c5 	bl	8009800 <siprintf>
 8007676:	48b2      	ldr	r0, [pc, #712]	; (8007940 <LSM6DSL_processHanlder+0x358>)
 8007678:	f7ff fbce 	bl	8006e18 <COM_uartPrint>
 800767c:	f89d 301c 	ldrb.w	r3, [sp, #28]
 8007680:	079b      	lsls	r3, r3, #30
 8007682:	d537      	bpl.n	80076f4 <LSM6DSL_processHanlder+0x10c>
 8007684:	4caf      	ldr	r4, [pc, #700]	; (8007944 <LSM6DSL_processHanlder+0x35c>)
 8007686:	48aa      	ldr	r0, [pc, #680]	; (8007930 <LSM6DSL_processHanlder+0x348>)
 8007688:	4daf      	ldr	r5, [pc, #700]	; (8007948 <LSM6DSL_processHanlder+0x360>)
 800768a:	2300      	movs	r3, #0
 800768c:	6023      	str	r3, [r4, #0]
 800768e:	80a3      	strh	r3, [r4, #4]
 8007690:	4621      	mov	r1, r4
 8007692:	f000 fb35 	bl	8007d00 <lsm6dsl_angular_rate_raw_get>
 8007696:	f9b4 0000 	ldrsh.w	r0, [r4]
 800769a:	f000 faad 	bl	8007bf8 <lsm6dsl_from_fs500dps_to_mdps>
 800769e:	f9b4 0002 	ldrsh.w	r0, [r4, #2]
 80076a2:	ed85 0a00 	vstr	s0, [r5]
 80076a6:	f000 faa7 	bl	8007bf8 <lsm6dsl_from_fs500dps_to_mdps>
 80076aa:	f9b4 0004 	ldrsh.w	r0, [r4, #4]
 80076ae:	ed85 0a01 	vstr	s0, [r5, #4]
 80076b2:	f000 faa1 	bl	8007bf8 <lsm6dsl_from_fs500dps_to_mdps>
 80076b6:	6828      	ldr	r0, [r5, #0]
 80076b8:	ed85 0a02 	vstr	s0, [r5, #8]
 80076bc:	ed8d 0a05 	vstr	s0, [sp, #20]
 80076c0:	f7f8 ff4a 	bl	8000558 <__aeabi_f2d>
 80076c4:	ed9d 0a05 	vldr	s0, [sp, #20]
 80076c8:	4606      	mov	r6, r0
 80076ca:	ee10 0a10 	vmov	r0, s0
 80076ce:	460f      	mov	r7, r1
 80076d0:	f7f8 ff42 	bl	8000558 <__aeabi_f2d>
 80076d4:	e9cd 0102 	strd	r0, r1, [sp, #8]
 80076d8:	6868      	ldr	r0, [r5, #4]
 80076da:	f7f8 ff3d 	bl	8000558 <__aeabi_f2d>
 80076de:	4632      	mov	r2, r6
 80076e0:	e9cd 0100 	strd	r0, r1, [sp]
 80076e4:	463b      	mov	r3, r7
 80076e6:	4999      	ldr	r1, [pc, #612]	; (800794c <LSM6DSL_processHanlder+0x364>)
 80076e8:	4895      	ldr	r0, [pc, #596]	; (8007940 <LSM6DSL_processHanlder+0x358>)
 80076ea:	f002 f889 	bl	8009800 <siprintf>
 80076ee:	4894      	ldr	r0, [pc, #592]	; (8007940 <LSM6DSL_processHanlder+0x358>)
 80076f0:	f7ff fb92 	bl	8006e18 <COM_uartPrint>
 80076f4:	b009      	add	sp, #36	; 0x24
 80076f6:	ecbd 8b04 	vpop	{d8-d9}
 80076fa:	e8bd 8ff0 	ldmia.w	sp!, {r4, r5, r6, r7, r8, r9, sl, fp, pc}
 80076fe:	2b02      	cmp	r3, #2
 8007700:	d1f8      	bne.n	80076f4 <LSM6DSL_processHanlder+0x10c>
 8007702:	a908      	add	r1, sp, #32
 8007704:	4c92      	ldr	r4, [pc, #584]	; (8007950 <LSM6DSL_processHanlder+0x368>)
 8007706:	4d93      	ldr	r5, [pc, #588]	; (8007954 <LSM6DSL_processHanlder+0x36c>)
 8007708:	4889      	ldr	r0, [pc, #548]	; (8007930 <LSM6DSL_processHanlder+0x348>)
 800770a:	f8df a250 	ldr.w	sl, [pc, #592]	; 800795c <LSM6DSL_processHanlder+0x374>
 800770e:	f8df b25c 	ldr.w	fp, [pc, #604]	; 800796c <LSM6DSL_processHanlder+0x384>
 8007712:	2300      	movs	r3, #0
 8007714:	f821 3d04 	strh.w	r3, [r1, #-4]!
 8007718:	2300      	movs	r3, #0
 800771a:	6023      	str	r3, [r4, #0]
 800771c:	602b      	str	r3, [r5, #0]
 800771e:	6063      	str	r3, [r4, #4]
 8007720:	606b      	str	r3, [r5, #4]
 8007722:	60a3      	str	r3, [r4, #8]
 8007724:	60ab      	str	r3, [r5, #8]
 8007726:	f000 fd42 	bl	80081ae <lsm6dsl_fifo_data_level_get>
 800772a:	2306      	movs	r3, #6
 800772c:	f8bd 601c 	ldrh.w	r6, [sp, #28]
 8007730:	4989      	ldr	r1, [pc, #548]	; (8007958 <LSM6DSL_processHanlder+0x370>)
 8007732:	fbb6 f6f3 	udiv	r6, r6, r3
 8007736:	4882      	ldr	r0, [pc, #520]	; (8007940 <LSM6DSL_processHanlder+0x358>)
 8007738:	4632      	mov	r2, r6
 800773a:	f002 f861 	bl	8009800 <siprintf>
 800773e:	4880      	ldr	r0, [pc, #512]	; (8007940 <LSM6DSL_processHanlder+0x358>)
 8007740:	f7ff fb6a 	bl	8006e18 <COM_uartPrint>
 8007744:	2e00      	cmp	r6, #0
 8007746:	d0d5      	beq.n	80076f4 <LSM6DSL_processHanlder+0x10c>
 8007748:	2e0a      	cmp	r6, #10
 800774a:	4637      	mov	r7, r6
 800774c:	bf28      	it	cs
 800774e:	270a      	movcs	r7, #10
 8007750:	eb07 0247 	add.w	r2, r7, r7, lsl #1
 8007754:	0092      	lsls	r2, r2, #2
 8007756:	f002 02fc 	and.w	r2, r2, #252	; 0xfc
 800775a:	4980      	ldr	r1, [pc, #512]	; (800795c <LSM6DSL_processHanlder+0x374>)
 800775c:	4874      	ldr	r0, [pc, #464]	; (8007930 <LSM6DSL_processHanlder+0x348>)
 800775e:	ed9f 8a80 	vldr	s16, [pc, #512]	; 8007960 <LSM6DSL_processHanlder+0x378>
 8007762:	f000 fad7 	bl	8007d14 <lsm6dsl_fifo_raw_data_get>
 8007766:	f9ba 3002 	ldrsh.w	r3, [sl, #2]
 800776a:	edd5 7a01 	vldr	s15, [r5, #4]
 800776e:	ed94 5a02 	vldr	s10, [r4, #8]
 8007772:	edd5 4a00 	vldr	s9, [r5]
 8007776:	4872      	ldr	r0, [pc, #456]	; (8007940 <LSM6DSL_processHanlder+0x358>)
 8007778:	ee05 3a90 	vmov	s11, r3
 800777c:	f9ba 3004 	ldrsh.w	r3, [sl, #4]
 8007780:	eef8 5ae5 	vcvt.f32.s32	s11, s11
 8007784:	ee06 3a10 	vmov	s12, r3
 8007788:	f9ba 3006 	ldrsh.w	r3, [sl, #6]
 800778c:	ee75 5aa7 	vadd.f32	s11, s11, s15
 8007790:	ee06 3a90 	vmov	s13, r3
 8007794:	edd5 7a02 	vldr	s15, [r5, #8]
 8007798:	f9ba 3008 	ldrsh.w	r3, [sl, #8]
 800779c:	edc5 5a01 	vstr	s11, [r5, #4]
 80077a0:	eeb8 6ac6 	vcvt.f32.s32	s12, s12
 80077a4:	ee07 3a10 	vmov	s14, r3
 80077a8:	ee36 6a27 	vadd.f32	s12, s12, s15
 80077ac:	eef8 6ae6 	vcvt.f32.s32	s13, s13
 80077b0:	edd4 7a00 	vldr	s15, [r4]
 80077b4:	f9ba 300a 	ldrsh.w	r3, [sl, #10]
 80077b8:	ed85 6a02 	vstr	s12, [r5, #8]
 80077bc:	ee76 6aa7 	vadd.f32	s13, s13, s15
 80077c0:	eeb8 7ac7 	vcvt.f32.s32	s14, s14
 80077c4:	edd4 7a01 	vldr	s15, [r4, #4]
 80077c8:	edc4 6a00 	vstr	s13, [r4]
 80077cc:	ee37 7a27 	vadd.f32	s14, s14, s15
 80077d0:	ee07 3a90 	vmov	s15, r3
 80077d4:	f9ba 3000 	ldrsh.w	r3, [sl]
 80077d8:	ed84 7a01 	vstr	s14, [r4, #4]
 80077dc:	eef8 7ae7 	vcvt.f32.s32	s15, s15
 80077e0:	463a      	mov	r2, r7
 80077e2:	ee77 7a85 	vadd.f32	s15, s15, s10
 80077e6:	ee05 3a10 	vmov	s10, r3
 80077ea:	eeb8 5ac5 	vcvt.f32.s32	s10, s10
 80077ee:	4659      	mov	r1, fp
 80077f0:	ee35 5a24 	vadd.f32	s10, s10, s9
 80077f4:	edc4 7a02 	vstr	s15, [r4, #8]
 80077f8:	ed85 5a00 	vstr	s10, [r5]
 80077fc:	f002 f800 	bl	8009800 <siprintf>
 8007800:	484f      	ldr	r0, [pc, #316]	; (8007940 <LSM6DSL_processHanlder+0x358>)
 8007802:	f7ff fb09 	bl	8006e18 <COM_uartPrint>
 8007806:	ee07 7a90 	vmov	s15, r7
 800780a:	ed94 7a00 	vldr	s14, [r4]
 800780e:	eef8 8ae7 	vcvt.f32.s32	s17, s15
 8007812:	1bf6      	subs	r6, r6, r7
 8007814:	eec7 7a28 	vdiv.f32	s15, s14, s17
 8007818:	b2b6      	uxth	r6, r6
 800781a:	eefd 7ae7 	vcvt.s32.f32	s15, s15
 800781e:	ee17 3a90 	vmov	r3, s15
 8007822:	b218      	sxth	r0, r3
 8007824:	f000 f9dc 	bl	8007be0 <lsm6dsl_from_fs8g_to_mg>
 8007828:	ed94 7a01 	vldr	s14, [r4, #4]
 800782c:	eec7 7a28 	vdiv.f32	s15, s14, s17
 8007830:	ee80 0a08 	vdiv.f32	s0, s0, s16
 8007834:	eefd 7ae7 	vcvt.s32.f32	s15, s15
 8007838:	ed84 0a00 	vstr	s0, [r4]
 800783c:	ee17 3a90 	vmov	r3, s15
 8007840:	b218      	sxth	r0, r3
 8007842:	f000 f9cd 	bl	8007be0 <lsm6dsl_from_fs8g_to_mg>
 8007846:	ed94 7a02 	vldr	s14, [r4, #8]
 800784a:	eec7 7a28 	vdiv.f32	s15, s14, s17
 800784e:	ee80 0a08 	vdiv.f32	s0, s0, s16
 8007852:	eefd 7ae7 	vcvt.s32.f32	s15, s15
 8007856:	ed84 0a01 	vstr	s0, [r4, #4]
 800785a:	ee17 3a90 	vmov	r3, s15
 800785e:	b218      	sxth	r0, r3
 8007860:	f000 f9be 	bl	8007be0 <lsm6dsl_from_fs8g_to_mg>
 8007864:	ee80 9a08 	vdiv.f32	s18, s0, s16
 8007868:	6820      	ldr	r0, [r4, #0]
 800786a:	ed84 9a02 	vstr	s18, [r4, #8]
 800786e:	f7f8 fe73 	bl	8000558 <__aeabi_f2d>
 8007872:	4680      	mov	r8, r0
 8007874:	ee19 0a10 	vmov	r0, s18
 8007878:	4689      	mov	r9, r1
 800787a:	f7f8 fe6d 	bl	8000558 <__aeabi_f2d>
 800787e:	e9cd 0102 	strd	r0, r1, [sp, #8]
 8007882:	6860      	ldr	r0, [r4, #4]
 8007884:	f7f8 fe68 	bl	8000558 <__aeabi_f2d>
 8007888:	4642      	mov	r2, r8
 800788a:	464b      	mov	r3, r9
 800788c:	e9cd 0100 	strd	r0, r1, [sp]
 8007890:	4934      	ldr	r1, [pc, #208]	; (8007964 <LSM6DSL_processHanlder+0x37c>)
 8007892:	482b      	ldr	r0, [pc, #172]	; (8007940 <LSM6DSL_processHanlder+0x358>)
 8007894:	f001 ffb4 	bl	8009800 <siprintf>
 8007898:	4829      	ldr	r0, [pc, #164]	; (8007940 <LSM6DSL_processHanlder+0x358>)
 800789a:	f7ff fabd 	bl	8006e18 <COM_uartPrint>
 800789e:	ed95 7a00 	vldr	s14, [r5]
 80078a2:	eec7 7a28 	vdiv.f32	s15, s14, s17
 80078a6:	eefd 7ae7 	vcvt.s32.f32	s15, s15
 80078aa:	ee17 3a90 	vmov	r3, s15
 80078ae:	b218      	sxth	r0, r3
 80078b0:	f000 f9a2 	bl	8007bf8 <lsm6dsl_from_fs500dps_to_mdps>
 80078b4:	ed95 7a01 	vldr	s14, [r5, #4]
 80078b8:	eec7 7a28 	vdiv.f32	s15, s14, s17
 80078bc:	ee80 0a08 	vdiv.f32	s0, s0, s16
 80078c0:	eefd 7ae7 	vcvt.s32.f32	s15, s15
 80078c4:	ed85 0a00 	vstr	s0, [r5]
 80078c8:	ee17 3a90 	vmov	r3, s15
 80078cc:	b218      	sxth	r0, r3
 80078ce:	f000 f993 	bl	8007bf8 <lsm6dsl_from_fs500dps_to_mdps>
 80078d2:	ed95 7a02 	vldr	s14, [r5, #8]
 80078d6:	eec7 7a28 	vdiv.f32	s15, s14, s17
 80078da:	ee80 0a08 	vdiv.f32	s0, s0, s16
 80078de:	eefd 7ae7 	vcvt.s32.f32	s15, s15
 80078e2:	ed85 0a01 	vstr	s0, [r5, #4]
 80078e6:	ee17 3a90 	vmov	r3, s15
 80078ea:	b218      	sxth	r0, r3
 80078ec:	f000 f984 	bl	8007bf8 <lsm6dsl_from_fs500dps_to_mdps>
 80078f0:	eec0 8a08 	vdiv.f32	s17, s0, s16
 80078f4:	6828      	ldr	r0, [r5, #0]
 80078f6:	edc5 8a02 	vstr	s17, [r5, #8]
 80078fa:	f7f8 fe2d 	bl	8000558 <__aeabi_f2d>
 80078fe:	4680      	mov	r8, r0
 8007900:	ee18 0a90 	vmov	r0, s17
 8007904:	4689      	mov	r9, r1
 8007906:	f7f8 fe27 	bl	8000558 <__aeabi_f2d>
 800790a:	e9cd 0102 	strd	r0, r1, [sp, #8]
 800790e:	6868      	ldr	r0, [r5, #4]
 8007910:	f7f8 fe22 	bl	8000558 <__aeabi_f2d>
 8007914:	4642      	mov	r2, r8
 8007916:	e9cd 0100 	strd	r0, r1, [sp]
 800791a:	464b      	mov	r3, r9
 800791c:	4912      	ldr	r1, [pc, #72]	; (8007968 <LSM6DSL_processHanlder+0x380>)
 800791e:	4808      	ldr	r0, [pc, #32]	; (8007940 <LSM6DSL_processHanlder+0x358>)
 8007920:	f001 ff6e 	bl	8009800 <siprintf>
 8007924:	4806      	ldr	r0, [pc, #24]	; (8007940 <LSM6DSL_processHanlder+0x358>)
 8007926:	f7ff fa77 	bl	8006e18 <COM_uartPrint>
 800792a:	e70b      	b.n	8007744 <LSM6DSL_processHanlder+0x15c>
 800792c:	20000d6d 	.word	0x20000d6d
 8007930:	20000d60 	.word	0x20000d60
 8007934:	20000d54 	.word	0x20000d54
 8007938:	20000d7c 	.word	0x20000d7c
 800793c:	0800b6c2 	.word	0x0800b6c2
 8007940:	20000cf0 	.word	0x20000cf0
 8007944:	20000d5a 	.word	0x20000d5a
 8007948:	20000d94 	.word	0x20000d94
 800794c:	0800b6e9 	.word	0x0800b6e9
 8007950:	20000d70 	.word	0x20000d70
 8007954:	20000d88 	.word	0x20000d88
 8007958:	0800b711 	.word	0x0800b711
 800795c:	20000da0 	.word	0x20000da0
 8007960:	447a0000 	.word	0x447a0000
 8007964:	0800b756 	.word	0x0800b756
 8007968:	0800b77c 	.word	0x0800b77c
 800796c:	0800b741 	.word	0x0800b741

08007970 <LSM6DSL_init>:
 8007970:	b5f8      	push	{r3, r4, r5, r6, r7, lr}
 8007972:	4c24      	ldr	r4, [pc, #144]	; (8007a04 <LSM6DSL_init+0x94>)
 8007974:	4b24      	ldr	r3, [pc, #144]	; (8007a08 <LSM6DSL_init+0x98>)
 8007976:	4e25      	ldr	r6, [pc, #148]	; (8007a0c <LSM6DSL_init+0x9c>)
 8007978:	6023      	str	r3, [r4, #0]
 800797a:	4b25      	ldr	r3, [pc, #148]	; (8007a10 <LSM6DSL_init+0xa0>)
 800797c:	6063      	str	r3, [r4, #4]
 800797e:	4d25      	ldr	r5, [pc, #148]	; (8007a14 <LSM6DSL_init+0xa4>)
 8007980:	4b25      	ldr	r3, [pc, #148]	; (8007a18 <LSM6DSL_init+0xa8>)
 8007982:	60a3      	str	r3, [r4, #8]
 8007984:	2701      	movs	r7, #1
 8007986:	2300      	movs	r3, #0
 8007988:	4631      	mov	r1, r6
 800798a:	4620      	mov	r0, r4
 800798c:	7033      	strb	r3, [r6, #0]
 800798e:	702f      	strb	r7, [r5, #0]
 8007990:	f000 f9dc 	bl	8007d4c <lsm6dsl_device_id_get>
 8007994:	7833      	ldrb	r3, [r6, #0]
 8007996:	2b6a      	cmp	r3, #106	; 0x6a
 8007998:	d004      	beq.n	80079a4 <LSM6DSL_init+0x34>
 800799a:	4820      	ldr	r0, [pc, #128]	; (8007a1c <LSM6DSL_init+0xac>)
 800799c:	e8bd 40f8 	ldmia.w	sp!, {r3, r4, r5, r6, r7, lr}
 80079a0:	f7ff ba3a 	b.w	8006e18 <COM_uartPrint>
 80079a4:	4639      	mov	r1, r7
 80079a6:	4620      	mov	r0, r4
 80079a8:	f000 f9d5 	bl	8007d56 <lsm6dsl_reset_set>
 80079ac:	4f1c      	ldr	r7, [pc, #112]	; (8007a20 <LSM6DSL_init+0xb0>)
 80079ae:	491c      	ldr	r1, [pc, #112]	; (8007a20 <LSM6DSL_init+0xb0>)
 80079b0:	4620      	mov	r0, r4
 80079b2:	f000 f9e7 	bl	8007d84 <lsm6dsl_reset_get>
 80079b6:	783e      	ldrb	r6, [r7, #0]
 80079b8:	2e00      	cmp	r6, #0
 80079ba:	d1f8      	bne.n	80079ae <LSM6DSL_init+0x3e>
 80079bc:	2101      	movs	r1, #1
 80079be:	4811      	ldr	r0, [pc, #68]	; (8007a04 <LSM6DSL_init+0x94>)
 80079c0:	f000 f982 	bl	8007cc8 <lsm6dsl_block_data_update_set>
 80079c4:	2101      	movs	r1, #1
 80079c6:	480f      	ldr	r0, [pc, #60]	; (8007a04 <LSM6DSL_init+0x94>)
 80079c8:	f000 f939 	bl	8007c3e <lsm6dsl_xl_data_rate_set>
 80079cc:	2101      	movs	r1, #1
 80079ce:	480d      	ldr	r0, [pc, #52]	; (8007a04 <LSM6DSL_init+0x94>)
 80079d0:	f000 f963 	bl	8007c9a <lsm6dsl_gy_data_rate_set>
 80079d4:	2103      	movs	r1, #3
 80079d6:	480b      	ldr	r0, [pc, #44]	; (8007a04 <LSM6DSL_init+0x94>)
 80079d8:	f000 f91a 	bl	8007c10 <lsm6dsl_xl_full_scale_set>
 80079dc:	2102      	movs	r1, #2
 80079de:	4809      	ldr	r0, [pc, #36]	; (8007a04 <LSM6DSL_init+0x94>)
 80079e0:	f000 f944 	bl	8007c6c <lsm6dsl_gy_full_scale_set>
 80079e4:	2101      	movs	r1, #1
 80079e6:	4807      	ldr	r0, [pc, #28]	; (8007a04 <LSM6DSL_init+0x94>)
 80079e8:	f000 f9da 	bl	8007da0 <lsm6dsl_xl_filter_analog_set>
 80079ec:	2111      	movs	r1, #17
 80079ee:	4805      	ldr	r0, [pc, #20]	; (8007a04 <LSM6DSL_init+0x94>)
 80079f0:	f000 f9ed 	bl	8007dce <lsm6dsl_xl_lp2_bandwidth_set>
 80079f4:	21a8      	movs	r1, #168	; 0xa8
 80079f6:	4803      	ldr	r0, [pc, #12]	; (8007a04 <LSM6DSL_init+0x94>)
 80079f8:	f000 fa07 	bl	8007e0a <lsm6dsl_gy_band_pass_set>
 80079fc:	4b09      	ldr	r3, [pc, #36]	; (8007a24 <LSM6DSL_init+0xb4>)
 80079fe:	702e      	strb	r6, [r5, #0]
 8007a00:	701e      	strb	r6, [r3, #0]
 8007a02:	bdf8      	pop	{r3, r4, r5, r6, r7, pc}
 8007a04:	20000d60 	.word	0x20000d60
 8007a08:	080075cd 	.word	0x080075cd
 8007a0c:	20001071 	.word	0x20001071
 8007a10:	080075b1 	.word	0x080075b1
 8007a14:	20000d6c 	.word	0x20000d6c
 8007a18:	20001100 	.word	0x20001100
 8007a1c:	0800b66c 	.word	0x0800b66c
 8007a20:	20001070 	.word	0x20001070
 8007a24:	20000d6d 	.word	0x20000d6d

08007a28 <LSM6DSL_perSampleInit>:
 8007a28:	4b14      	ldr	r3, [pc, #80]	; (8007a7c <LSM6DSL_perSampleInit+0x54>)
 8007a2a:	781b      	ldrb	r3, [r3, #0]
 8007a2c:	2b01      	cmp	r3, #1
 8007a2e:	b513      	push	{r0, r1, r4, lr}
 8007a30:	d104      	bne.n	8007a3c <LSM6DSL_perSampleInit+0x14>
 8007a32:	4813      	ldr	r0, [pc, #76]	; (8007a80 <LSM6DSL_perSampleInit+0x58>)
 8007a34:	f7ff f9f0 	bl	8006e18 <COM_uartPrint>
 8007a38:	b002      	add	sp, #8
 8007a3a:	bd10      	pop	{r4, pc}
 8007a3c:	4c11      	ldr	r4, [pc, #68]	; (8007a84 <LSM6DSL_perSampleInit+0x5c>)
 8007a3e:	7823      	ldrb	r3, [r4, #0]
 8007a40:	2b02      	cmp	r3, #2
 8007a42:	d101      	bne.n	8007a48 <LSM6DSL_perSampleInit+0x20>
 8007a44:	4810      	ldr	r0, [pc, #64]	; (8007a88 <LSM6DSL_perSampleInit+0x60>)
 8007a46:	e7f5      	b.n	8007a34 <LSM6DSL_perSampleInit+0xc>
 8007a48:	2101      	movs	r1, #1
 8007a4a:	4810      	ldr	r0, [pc, #64]	; (8007a8c <LSM6DSL_perSampleInit+0x64>)
 8007a4c:	f000 fb5d 	bl	800810a <lsm6dsl_pin_polarity_set>
 8007a50:	2101      	movs	r1, #1
 8007a52:	480e      	ldr	r0, [pc, #56]	; (8007a8c <LSM6DSL_perSampleInit+0x64>)
 8007a54:	f000 f963 	bl	8007d1e <lsm6dsl_data_ready_mode_set>
 8007a58:	a901      	add	r1, sp, #4
 8007a5a:	480c      	ldr	r0, [pc, #48]	; (8007a8c <LSM6DSL_perSampleInit+0x64>)
 8007a5c:	f000 fade 	bl	800801c <lsm6dsl_pin_int1_route_get>
 8007a60:	f89d 3004 	ldrb.w	r3, [sp, #4]
 8007a64:	4809      	ldr	r0, [pc, #36]	; (8007a8c <LSM6DSL_perSampleInit+0x64>)
 8007a66:	f043 0303 	orr.w	r3, r3, #3
 8007a6a:	f88d 3004 	strb.w	r3, [sp, #4]
 8007a6e:	9901      	ldr	r1, [sp, #4]
 8007a70:	f000 fa10 	bl	8007e94 <lsm6dsl_pin_int1_route_set>
 8007a74:	2301      	movs	r3, #1
 8007a76:	7023      	strb	r3, [r4, #0]
 8007a78:	e7de      	b.n	8007a38 <LSM6DSL_perSampleInit+0x10>
 8007a7a:	bf00      	nop
 8007a7c:	20000d6c 	.word	0x20000d6c
 8007a80:	0800b686 	.word	0x0800b686
 8007a84:	20000d6d 	.word	0x20000d6d
 8007a88:	0800b6a1 	.word	0x0800b6a1
 8007a8c:	20000d60 	.word	0x20000d60

08007a90 <LSM6DSL_fifoInit>:
 8007a90:	4b2d      	ldr	r3, [pc, #180]	; (8007b48 <LSM6DSL_fifoInit+0xb8>)
 8007a92:	781b      	ldrb	r3, [r3, #0]
 8007a94:	2b01      	cmp	r3, #1
 8007a96:	b537      	push	{r0, r1, r2, r4, r5, lr}
 8007a98:	d104      	bne.n	8007aa4 <LSM6DSL_fifoInit+0x14>
 8007a9a:	482c      	ldr	r0, [pc, #176]	; (8007b4c <LSM6DSL_fifoInit+0xbc>)
 8007a9c:	f7ff f9bc 	bl	8006e18 <COM_uartPrint>
 8007aa0:	b003      	add	sp, #12
 8007aa2:	bd30      	pop	{r4, r5, pc}
 8007aa4:	4d2a      	ldr	r5, [pc, #168]	; (8007b50 <LSM6DSL_fifoInit+0xc0>)
 8007aa6:	782b      	ldrb	r3, [r5, #0]
 8007aa8:	2b01      	cmp	r3, #1
 8007aaa:	d101      	bne.n	8007ab0 <LSM6DSL_fifoInit+0x20>
 8007aac:	4829      	ldr	r0, [pc, #164]	; (8007b54 <LSM6DSL_fifoInit+0xc4>)
 8007aae:	e7f5      	b.n	8007a9c <LSM6DSL_fifoInit+0xc>
 8007ab0:	2101      	movs	r1, #1
 8007ab2:	4829      	ldr	r0, [pc, #164]	; (8007b58 <LSM6DSL_fifoInit+0xc8>)
 8007ab4:	2401      	movs	r4, #1
 8007ab6:	f000 fb28 	bl	800810a <lsm6dsl_pin_polarity_set>
 8007aba:	4669      	mov	r1, sp
 8007abc:	4826      	ldr	r0, [pc, #152]	; (8007b58 <LSM6DSL_fifoInit+0xc8>)
 8007abe:	f000 fba7 	bl	8008210 <lsm6dsl_fifo_xl_batch_get>
 8007ac2:	4621      	mov	r1, r4
 8007ac4:	4824      	ldr	r0, [pc, #144]	; (8007b58 <LSM6DSL_fifoInit+0xc8>)
 8007ac6:	f88d 4000 	strb.w	r4, [sp]
 8007aca:	f000 fb8a 	bl	80081e2 <lsm6dsl_fifo_xl_batch_set>
 8007ace:	eb0d 0104 	add.w	r1, sp, r4
 8007ad2:	4821      	ldr	r0, [pc, #132]	; (8007b58 <LSM6DSL_fifoInit+0xc8>)
 8007ad4:	f000 fbda 	bl	800828c <lsm6dsl_fifo_gy_batch_get>
 8007ad8:	4621      	mov	r1, r4
 8007ada:	481f      	ldr	r0, [pc, #124]	; (8007b58 <LSM6DSL_fifoInit+0xc8>)
 8007adc:	f88d 4001 	strb.w	r4, [sp, #1]
 8007ae0:	f000 fbbd 	bl	800825e <lsm6dsl_fifo_gy_batch_set>
 8007ae4:	f10d 0102 	add.w	r1, sp, #2
 8007ae8:	481b      	ldr	r0, [pc, #108]	; (8007b58 <LSM6DSL_fifoInit+0xc8>)
 8007aea:	f000 fc45 	bl	8008378 <lsm6dsl_fifo_data_rate_get>
 8007aee:	4621      	mov	r1, r4
 8007af0:	4819      	ldr	r0, [pc, #100]	; (8007b58 <LSM6DSL_fifoInit+0xc8>)
 8007af2:	f88d 4002 	strb.w	r4, [sp, #2]
 8007af6:	f000 fc28 	bl	800834a <lsm6dsl_fifo_data_rate_set>
 8007afa:	a901      	add	r1, sp, #4
 8007afc:	4816      	ldr	r0, [pc, #88]	; (8007b58 <LSM6DSL_fifoInit+0xc8>)
 8007afe:	f000 fa8d 	bl	800801c <lsm6dsl_pin_int1_route_get>
 8007b02:	f89d 3004 	ldrb.w	r3, [sp, #4]
 8007b06:	4814      	ldr	r0, [pc, #80]	; (8007b58 <LSM6DSL_fifoInit+0xc8>)
 8007b08:	f043 0308 	orr.w	r3, r3, #8
 8007b0c:	f88d 3004 	strb.w	r3, [sp, #4]
 8007b10:	9901      	ldr	r1, [sp, #4]
 8007b12:	f000 f9bf 	bl	8007e94 <lsm6dsl_pin_int1_route_set>
 8007b16:	a901      	add	r1, sp, #4
 8007b18:	480f      	ldr	r0, [pc, #60]	; (8007b58 <LSM6DSL_fifoInit+0xc8>)
 8007b1a:	f000 fb2e 	bl	800817a <lsm6dsl_fifo_watermark_get>
 8007b1e:	213c      	movs	r1, #60	; 0x3c
 8007b20:	480d      	ldr	r0, [pc, #52]	; (8007b58 <LSM6DSL_fifoInit+0xc8>)
 8007b22:	f8ad 1004 	strh.w	r1, [sp, #4]
 8007b26:	f000 fb07 	bl	8008138 <lsm6dsl_fifo_watermark_set>
 8007b2a:	f10d 0103 	add.w	r1, sp, #3
 8007b2e:	480a      	ldr	r0, [pc, #40]	; (8007b58 <LSM6DSL_fifoInit+0xc8>)
 8007b30:	f000 fbea 	bl	8008308 <lsm6dsl_fifo_mode_get>
 8007b34:	4621      	mov	r1, r4
 8007b36:	4808      	ldr	r0, [pc, #32]	; (8007b58 <LSM6DSL_fifoInit+0xc8>)
 8007b38:	f88d 4003 	strb.w	r4, [sp, #3]
 8007b3c:	f000 fbcd 	bl	80082da <lsm6dsl_fifo_mode_set>
 8007b40:	2302      	movs	r3, #2
 8007b42:	702b      	strb	r3, [r5, #0]
 8007b44:	e7ac      	b.n	8007aa0 <LSM6DSL_fifoInit+0x10>
 8007b46:	bf00      	nop
 8007b48:	20000d6c 	.word	0x20000d6c
 8007b4c:	0800b686 	.word	0x0800b686
 8007b50:	20000d6d 	.word	0x20000d6d
 8007b54:	0800b645 	.word	0x0800b645
 8007b58:	20000d60 	.word	0x20000d60

08007b5c <LSM6DSL_modesDisable>:
 8007b5c:	b537      	push	{r0, r1, r2, r4, r5, lr}
 8007b5e:	4c17      	ldr	r4, [pc, #92]	; (8007bbc <LSM6DSL_modesDisable+0x60>)
 8007b60:	a901      	add	r1, sp, #4
 8007b62:	4620      	mov	r0, r4
 8007b64:	f000 fa5a 	bl	800801c <lsm6dsl_pin_int1_route_get>
 8007b68:	f89d 3004 	ldrb.w	r3, [sp, #4]
 8007b6c:	f003 03fe 	and.w	r3, r3, #254	; 0xfe
 8007b70:	f36f 0341 	bfc	r3, #1, #1
 8007b74:	f88d 3004 	strb.w	r3, [sp, #4]
 8007b78:	9901      	ldr	r1, [sp, #4]
 8007b7a:	4620      	mov	r0, r4
 8007b7c:	f000 f98a 	bl	8007e94 <lsm6dsl_pin_int1_route_set>
 8007b80:	a901      	add	r1, sp, #4
 8007b82:	4620      	mov	r0, r4
 8007b84:	f000 fa4a 	bl	800801c <lsm6dsl_pin_int1_route_get>
 8007b88:	f89d 3004 	ldrb.w	r3, [sp, #4]
 8007b8c:	f36f 03c3 	bfc	r3, #3, #1
 8007b90:	f88d 3004 	strb.w	r3, [sp, #4]
 8007b94:	9901      	ldr	r1, [sp, #4]
 8007b96:	4620      	mov	r0, r4
 8007b98:	f000 f97c 	bl	8007e94 <lsm6dsl_pin_int1_route_set>
 8007b9c:	2500      	movs	r5, #0
 8007b9e:	a901      	add	r1, sp, #4
 8007ba0:	4620      	mov	r0, r4
 8007ba2:	f000 fbb1 	bl	8008308 <lsm6dsl_fifo_mode_get>
 8007ba6:	4629      	mov	r1, r5
 8007ba8:	4620      	mov	r0, r4
 8007baa:	f88d 5004 	strb.w	r5, [sp, #4]
 8007bae:	f000 fb94 	bl	80082da <lsm6dsl_fifo_mode_set>
 8007bb2:	4b03      	ldr	r3, [pc, #12]	; (8007bc0 <LSM6DSL_modesDisable+0x64>)
 8007bb4:	701d      	strb	r5, [r3, #0]
 8007bb6:	b003      	add	sp, #12
 8007bb8:	bd30      	pop	{r4, r5, pc}
 8007bba:	bf00      	nop
 8007bbc:	20000d60 	.word	0x20000d60
 8007bc0:	20000d6d 	.word	0x20000d6d

08007bc4 <lsm6dsl_read_reg>:
 8007bc4:	b410      	push	{r4}
 8007bc6:	e9d0 4001 	ldrd	r4, r0, [r0, #4]
 8007bca:	46a4      	mov	ip, r4
 8007bcc:	f85d 4b04 	ldr.w	r4, [sp], #4
 8007bd0:	4760      	bx	ip

08007bd2 <lsm6dsl_write_reg>:
 8007bd2:	b410      	push	{r4}
 8007bd4:	6804      	ldr	r4, [r0, #0]
 8007bd6:	6880      	ldr	r0, [r0, #8]
 8007bd8:	46a4      	mov	ip, r4
 8007bda:	f85d 4b04 	ldr.w	r4, [sp], #4
 8007bde:	4760      	bx	ip

08007be0 <lsm6dsl_from_fs8g_to_mg>:
 8007be0:	ee07 0a90 	vmov	s15, r0
 8007be4:	eeb8 0ae7 	vcvt.f32.s32	s0, s15
 8007be8:	eddf 7a02 	vldr	s15, [pc, #8]	; 8007bf4 <lsm6dsl_from_fs8g_to_mg+0x14>
 8007bec:	ee20 0a27 	vmul.f32	s0, s0, s15
 8007bf0:	4770      	bx	lr
 8007bf2:	bf00      	nop
 8007bf4:	3e79db23 	.word	0x3e79db23

08007bf8 <lsm6dsl_from_fs500dps_to_mdps>:
 8007bf8:	ee07 0a90 	vmov	s15, r0
 8007bfc:	eeb8 0ae7 	vcvt.f32.s32	s0, s15
 8007c00:	eddf 7a02 	vldr	s15, [pc, #8]	; 8007c0c <lsm6dsl_from_fs500dps_to_mdps+0x14>
 8007c04:	ee20 0a27 	vmul.f32	s0, s0, s15
 8007c08:	4770      	bx	lr
 8007c0a:	bf00      	nop
 8007c0c:	418c0000 	.word	0x418c0000

08007c10 <lsm6dsl_xl_full_scale_set>:
 8007c10:	b537      	push	{r0, r1, r2, r4, r5, lr}
 8007c12:	2301      	movs	r3, #1
 8007c14:	460d      	mov	r5, r1
 8007c16:	aa01      	add	r2, sp, #4
 8007c18:	2110      	movs	r1, #16
 8007c1a:	4604      	mov	r4, r0
 8007c1c:	f7ff ffd2 	bl	8007bc4 <lsm6dsl_read_reg>
 8007c20:	b958      	cbnz	r0, 8007c3a <lsm6dsl_xl_full_scale_set+0x2a>
 8007c22:	f89d 3004 	ldrb.w	r3, [sp, #4]
 8007c26:	f365 0383 	bfi	r3, r5, #2, #2
 8007c2a:	f88d 3004 	strb.w	r3, [sp, #4]
 8007c2e:	aa01      	add	r2, sp, #4
 8007c30:	2301      	movs	r3, #1
 8007c32:	2110      	movs	r1, #16
 8007c34:	4620      	mov	r0, r4
 8007c36:	f7ff ffcc 	bl	8007bd2 <lsm6dsl_write_reg>
 8007c3a:	b003      	add	sp, #12
 8007c3c:	bd30      	pop	{r4, r5, pc}

08007c3e <lsm6dsl_xl_data_rate_set>:
 8007c3e:	b537      	push	{r0, r1, r2, r4, r5, lr}
 8007c40:	2301      	movs	r3, #1
 8007c42:	460d      	mov	r5, r1
 8007c44:	aa01      	add	r2, sp, #4
 8007c46:	2110      	movs	r1, #16
 8007c48:	4604      	mov	r4, r0
 8007c4a:	f7ff ffbb 	bl	8007bc4 <lsm6dsl_read_reg>
 8007c4e:	b958      	cbnz	r0, 8007c68 <lsm6dsl_xl_data_rate_set+0x2a>
 8007c50:	f89d 3004 	ldrb.w	r3, [sp, #4]
 8007c54:	f365 1307 	bfi	r3, r5, #4, #4
 8007c58:	f88d 3004 	strb.w	r3, [sp, #4]
 8007c5c:	aa01      	add	r2, sp, #4
 8007c5e:	2301      	movs	r3, #1
 8007c60:	2110      	movs	r1, #16
 8007c62:	4620      	mov	r0, r4
 8007c64:	f7ff ffb5 	bl	8007bd2 <lsm6dsl_write_reg>
 8007c68:	b003      	add	sp, #12
 8007c6a:	bd30      	pop	{r4, r5, pc}

08007c6c <lsm6dsl_gy_full_scale_set>:
 8007c6c:	b537      	push	{r0, r1, r2, r4, r5, lr}
 8007c6e:	2301      	movs	r3, #1
 8007c70:	460d      	mov	r5, r1
 8007c72:	aa01      	add	r2, sp, #4
 8007c74:	2111      	movs	r1, #17
 8007c76:	4604      	mov	r4, r0
 8007c78:	f7ff ffa4 	bl	8007bc4 <lsm6dsl_read_reg>
 8007c7c:	b958      	cbnz	r0, 8007c96 <lsm6dsl_gy_full_scale_set+0x2a>
 8007c7e:	f89d 3004 	ldrb.w	r3, [sp, #4]
 8007c82:	f365 0343 	bfi	r3, r5, #1, #3
 8007c86:	f88d 3004 	strb.w	r3, [sp, #4]
 8007c8a:	aa01      	add	r2, sp, #4
 8007c8c:	2301      	movs	r3, #1
 8007c8e:	2111      	movs	r1, #17
 8007c90:	4620      	mov	r0, r4
 8007c92:	f7ff ff9e 	bl	8007bd2 <lsm6dsl_write_reg>
 8007c96:	b003      	add	sp, #12
 8007c98:	bd30      	pop	{r4, r5, pc}

08007c9a <lsm6dsl_gy_data_rate_set>:
 8007c9a:	b537      	push	{r0, r1, r2, r4, r5, lr}
 8007c9c:	2301      	movs	r3, #1
 8007c9e:	460d      	mov	r5, r1
 8007ca0:	aa01      	add	r2, sp, #4
 8007ca2:	2111      	movs	r1, #17
 8007ca4:	4604      	mov	r4, r0
 8007ca6:	f7ff ff8d 	bl	8007bc4 <lsm6dsl_read_reg>
 8007caa:	b958      	cbnz	r0, 8007cc4 <lsm6dsl_gy_data_rate_set+0x2a>
 8007cac:	f89d 3004 	ldrb.w	r3, [sp, #4]
 8007cb0:	f365 1307 	bfi	r3, r5, #4, #4
 8007cb4:	f88d 3004 	strb.w	r3, [sp, #4]
 8007cb8:	aa01      	add	r2, sp, #4
 8007cba:	2301      	movs	r3, #1
 8007cbc:	2111      	movs	r1, #17
 8007cbe:	4620      	mov	r0, r4
 8007cc0:	f7ff ff87 	bl	8007bd2 <lsm6dsl_write_reg>
 8007cc4:	b003      	add	sp, #12
 8007cc6:	bd30      	pop	{r4, r5, pc}

08007cc8 <lsm6dsl_block_data_update_set>:
 8007cc8:	b537      	push	{r0, r1, r2, r4, r5, lr}
 8007cca:	2301      	movs	r3, #1
 8007ccc:	460d      	mov	r5, r1
 8007cce:	aa01      	add	r2, sp, #4
 8007cd0:	2112      	movs	r1, #18
 8007cd2:	4604      	mov	r4, r0
 8007cd4:	f7ff ff76 	bl	8007bc4 <lsm6dsl_read_reg>
 8007cd8:	b958      	cbnz	r0, 8007cf2 <lsm6dsl_block_data_update_set+0x2a>
 8007cda:	f89d 3004 	ldrb.w	r3, [sp, #4]
 8007cde:	f365 1386 	bfi	r3, r5, #6, #1
 8007ce2:	f88d 3004 	strb.w	r3, [sp, #4]
 8007ce6:	aa01      	add	r2, sp, #4
 8007ce8:	2301      	movs	r3, #1
 8007cea:	2112      	movs	r1, #18
 8007cec:	4620      	mov	r0, r4
 8007cee:	f7ff ff70 	bl	8007bd2 <lsm6dsl_write_reg>
 8007cf2:	b003      	add	sp, #12
 8007cf4:	bd30      	pop	{r4, r5, pc}

08007cf6 <lsm6dsl_status_reg_get>:
 8007cf6:	460a      	mov	r2, r1
 8007cf8:	2301      	movs	r3, #1
 8007cfa:	211e      	movs	r1, #30
 8007cfc:	f7ff bf62 	b.w	8007bc4 <lsm6dsl_read_reg>

08007d00 <lsm6dsl_angular_rate_raw_get>:
 8007d00:	460a      	mov	r2, r1
 8007d02:	2306      	movs	r3, #6
 8007d04:	2122      	movs	r1, #34	; 0x22
 8007d06:	f7ff bf5d 	b.w	8007bc4 <lsm6dsl_read_reg>

08007d0a <lsm6dsl_acceleration_raw_get>:
 8007d0a:	460a      	mov	r2, r1
 8007d0c:	2306      	movs	r3, #6
 8007d0e:	2128      	movs	r1, #40	; 0x28
 8007d10:	f7ff bf58 	b.w	8007bc4 <lsm6dsl_read_reg>

08007d14 <lsm6dsl_fifo_raw_data_get>:
 8007d14:	4613      	mov	r3, r2
 8007d16:	460a      	mov	r2, r1
 8007d18:	213e      	movs	r1, #62	; 0x3e
 8007d1a:	f7ff bf53 	b.w	8007bc4 <lsm6dsl_read_reg>

08007d1e <lsm6dsl_data_ready_mode_set>:
 8007d1e:	b537      	push	{r0, r1, r2, r4, r5, lr}
 8007d20:	2301      	movs	r3, #1
 8007d22:	460d      	mov	r5, r1
 8007d24:	aa01      	add	r2, sp, #4
 8007d26:	210b      	movs	r1, #11
 8007d28:	4604      	mov	r4, r0
 8007d2a:	f7ff ff4b 	bl	8007bc4 <lsm6dsl_read_reg>
 8007d2e:	b958      	cbnz	r0, 8007d48 <lsm6dsl_data_ready_mode_set+0x2a>
 8007d30:	f89d 3004 	ldrb.w	r3, [sp, #4]
 8007d34:	f365 13c7 	bfi	r3, r5, #7, #1
 8007d38:	f88d 3004 	strb.w	r3, [sp, #4]
 8007d3c:	aa01      	add	r2, sp, #4
 8007d3e:	2301      	movs	r3, #1
 8007d40:	210b      	movs	r1, #11
 8007d42:	4620      	mov	r0, r4
 8007d44:	f7ff ff45 	bl	8007bd2 <lsm6dsl_write_reg>
 8007d48:	b003      	add	sp, #12
 8007d4a:	bd30      	pop	{r4, r5, pc}

08007d4c <lsm6dsl_device_id_get>:
 8007d4c:	460a      	mov	r2, r1
 8007d4e:	2301      	movs	r3, #1
 8007d50:	210f      	movs	r1, #15
 8007d52:	f7ff bf37 	b.w	8007bc4 <lsm6dsl_read_reg>

08007d56 <lsm6dsl_reset_set>:
 8007d56:	b537      	push	{r0, r1, r2, r4, r5, lr}
 8007d58:	2301      	movs	r3, #1
 8007d5a:	460d      	mov	r5, r1
 8007d5c:	aa01      	add	r2, sp, #4
 8007d5e:	2112      	movs	r1, #18
 8007d60:	4604      	mov	r4, r0
 8007d62:	f7ff ff2f 	bl	8007bc4 <lsm6dsl_read_reg>
 8007d66:	b958      	cbnz	r0, 8007d80 <lsm6dsl_reset_set+0x2a>
 8007d68:	f89d 3004 	ldrb.w	r3, [sp, #4]
 8007d6c:	f365 0300 	bfi	r3, r5, #0, #1
 8007d70:	f88d 3004 	strb.w	r3, [sp, #4]
 8007d74:	aa01      	add	r2, sp, #4
 8007d76:	2301      	movs	r3, #1
 8007d78:	2112      	movs	r1, #18
 8007d7a:	4620      	mov	r0, r4
 8007d7c:	f7ff ff29 	bl	8007bd2 <lsm6dsl_write_reg>
 8007d80:	b003      	add	sp, #12
 8007d82:	bd30      	pop	{r4, r5, pc}

08007d84 <lsm6dsl_reset_get>:
 8007d84:	b513      	push	{r0, r1, r4, lr}
 8007d86:	2301      	movs	r3, #1
 8007d88:	460c      	mov	r4, r1
 8007d8a:	aa01      	add	r2, sp, #4
 8007d8c:	2112      	movs	r1, #18
 8007d8e:	f7ff ff19 	bl	8007bc4 <lsm6dsl_read_reg>
 8007d92:	f89d 3004 	ldrb.w	r3, [sp, #4]
 8007d96:	f3c3 0300 	ubfx	r3, r3, #0, #1
 8007d9a:	7023      	strb	r3, [r4, #0]
 8007d9c:	b002      	add	sp, #8
 8007d9e:	bd10      	pop	{r4, pc}

08007da0 <lsm6dsl_xl_filter_analog_set>:
 8007da0:	b537      	push	{r0, r1, r2, r4, r5, lr}
 8007da2:	2301      	movs	r3, #1
 8007da4:	460d      	mov	r5, r1
 8007da6:	aa01      	add	r2, sp, #4
 8007da8:	2110      	movs	r1, #16
 8007daa:	4604      	mov	r4, r0
 8007dac:	f7ff ff0a 	bl	8007bc4 <lsm6dsl_read_reg>
 8007db0:	b958      	cbnz	r0, 8007dca <lsm6dsl_xl_filter_analog_set+0x2a>
 8007db2:	f89d 3004 	ldrb.w	r3, [sp, #4]
 8007db6:	f365 0300 	bfi	r3, r5, #0, #1
 8007dba:	f88d 3004 	strb.w	r3, [sp, #4]
 8007dbe:	aa01      	add	r2, sp, #4
 8007dc0:	2301      	movs	r3, #1
 8007dc2:	2110      	movs	r1, #16
 8007dc4:	4620      	mov	r0, r4
 8007dc6:	f7ff ff04 	bl	8007bd2 <lsm6dsl_write_reg>
 8007dca:	b003      	add	sp, #12
 8007dcc:	bd30      	pop	{r4, r5, pc}

08007dce <lsm6dsl_xl_lp2_bandwidth_set>:
 8007dce:	b537      	push	{r0, r1, r2, r4, r5, lr}
 8007dd0:	2301      	movs	r3, #1
 8007dd2:	460c      	mov	r4, r1
 8007dd4:	aa01      	add	r2, sp, #4
 8007dd6:	2117      	movs	r1, #23
 8007dd8:	4605      	mov	r5, r0
 8007dda:	f7ff fef3 	bl	8007bc4 <lsm6dsl_read_reg>
 8007dde:	b990      	cbnz	r0, 8007e06 <lsm6dsl_xl_lp2_bandwidth_set+0x38>
 8007de0:	f89d 3004 	ldrb.w	r3, [sp, #4]
 8007de4:	0922      	lsrs	r2, r4, #4
 8007de6:	f362 03c3 	bfi	r3, r2, #3, #1
 8007dea:	f364 1346 	bfi	r3, r4, #5, #2
 8007dee:	f063 037f 	orn	r3, r3, #127	; 0x7f
 8007df2:	f360 0382 	bfi	r3, r0, #2, #1
 8007df6:	f88d 3004 	strb.w	r3, [sp, #4]
 8007dfa:	aa01      	add	r2, sp, #4
 8007dfc:	2301      	movs	r3, #1
 8007dfe:	2117      	movs	r1, #23
 8007e00:	4628      	mov	r0, r5
 8007e02:	f7ff fee6 	bl	8007bd2 <lsm6dsl_write_reg>
 8007e06:	b003      	add	sp, #12
 8007e08:	bd30      	pop	{r4, r5, pc}

08007e0a <lsm6dsl_gy_band_pass_set>:
 8007e0a:	b530      	push	{r4, r5, lr}
 8007e0c:	b085      	sub	sp, #20
 8007e0e:	460c      	mov	r4, r1
 8007e10:	2301      	movs	r3, #1
 8007e12:	aa03      	add	r2, sp, #12
 8007e14:	2116      	movs	r1, #22
 8007e16:	4605      	mov	r5, r0
 8007e18:	f7ff fed4 	bl	8007bc4 <lsm6dsl_read_reg>
 8007e1c:	bbc0      	cbnz	r0, 8007e90 <lsm6dsl_gy_band_pass_set+0x86>
 8007e1e:	f89d 300c 	ldrb.w	r3, [sp, #12]
 8007e22:	0922      	lsrs	r2, r4, #4
 8007e24:	f362 1305 	bfi	r3, r2, #4, #2
 8007e28:	09e2      	lsrs	r2, r4, #7
 8007e2a:	f362 1386 	bfi	r3, r2, #6, #1
 8007e2e:	f88d 300c 	strb.w	r3, [sp, #12]
 8007e32:	aa03      	add	r2, sp, #12
 8007e34:	2301      	movs	r3, #1
 8007e36:	2116      	movs	r1, #22
 8007e38:	4628      	mov	r0, r5
 8007e3a:	f7ff feca 	bl	8007bd2 <lsm6dsl_write_reg>
 8007e3e:	bb38      	cbnz	r0, 8007e90 <lsm6dsl_gy_band_pass_set+0x86>
 8007e40:	2301      	movs	r3, #1
 8007e42:	aa02      	add	r2, sp, #8
 8007e44:	2115      	movs	r1, #21
 8007e46:	4628      	mov	r0, r5
 8007e48:	f7ff febc 	bl	8007bc4 <lsm6dsl_read_reg>
 8007e4c:	bb00      	cbnz	r0, 8007e90 <lsm6dsl_gy_band_pass_set+0x86>
 8007e4e:	f89d 3008 	ldrb.w	r3, [sp, #8]
 8007e52:	f364 0301 	bfi	r3, r4, #0, #2
 8007e56:	f88d 3008 	strb.w	r3, [sp, #8]
 8007e5a:	aa02      	add	r2, sp, #8
 8007e5c:	2301      	movs	r3, #1
 8007e5e:	2115      	movs	r1, #21
 8007e60:	4628      	mov	r0, r5
 8007e62:	f7ff feb6 	bl	8007bd2 <lsm6dsl_write_reg>
 8007e66:	b998      	cbnz	r0, 8007e90 <lsm6dsl_gy_band_pass_set+0x86>
 8007e68:	2301      	movs	r3, #1
 8007e6a:	aa01      	add	r2, sp, #4
 8007e6c:	2113      	movs	r1, #19
 8007e6e:	4628      	mov	r0, r5
 8007e70:	f7ff fea8 	bl	8007bc4 <lsm6dsl_read_reg>
 8007e74:	b960      	cbnz	r0, 8007e90 <lsm6dsl_gy_band_pass_set+0x86>
 8007e76:	f89d 3004 	ldrb.w	r3, [sp, #4]
 8007e7a:	08e4      	lsrs	r4, r4, #3
 8007e7c:	f364 0341 	bfi	r3, r4, #1, #1
 8007e80:	f88d 3004 	strb.w	r3, [sp, #4]
 8007e84:	aa01      	add	r2, sp, #4
 8007e86:	2301      	movs	r3, #1
 8007e88:	2113      	movs	r1, #19
 8007e8a:	4628      	mov	r0, r5
 8007e8c:	f7ff fea1 	bl	8007bd2 <lsm6dsl_write_reg>
 8007e90:	b005      	add	sp, #20
 8007e92:	bd30      	pop	{r4, r5, pc}

08007e94 <lsm6dsl_pin_int1_route_set>:
 8007e94:	b530      	push	{r4, r5, lr}
 8007e96:	b089      	sub	sp, #36	; 0x24
 8007e98:	f3c1 4500 	ubfx	r5, r1, #16, #1
 8007e9c:	9101      	str	r1, [sp, #4]
 8007e9e:	2301      	movs	r3, #1
 8007ea0:	aa03      	add	r2, sp, #12
 8007ea2:	210d      	movs	r1, #13
 8007ea4:	4604      	mov	r4, r0
 8007ea6:	f7ff fe8d 	bl	8007bc4 <lsm6dsl_read_reg>
 8007eaa:	2800      	cmp	r0, #0
 8007eac:	f040 80b1 	bne.w	8008012 <lsm6dsl_pin_int1_route_set+0x17e>
 8007eb0:	f89d 2004 	ldrb.w	r2, [sp, #4]
 8007eb4:	f89d 300c 	ldrb.w	r3, [sp, #12]
 8007eb8:	f3c2 0100 	ubfx	r1, r2, #0, #1
 8007ebc:	f361 0300 	bfi	r3, r1, #0, #1
 8007ec0:	f3c2 0140 	ubfx	r1, r2, #1, #1
 8007ec4:	f361 0341 	bfi	r3, r1, #1, #1
 8007ec8:	f3c2 0180 	ubfx	r1, r2, #2, #1
 8007ecc:	f361 0382 	bfi	r3, r1, #2, #1
 8007ed0:	f3c2 01c0 	ubfx	r1, r2, #3, #1
 8007ed4:	f361 03c3 	bfi	r3, r1, #3, #1
 8007ed8:	f3c2 1100 	ubfx	r1, r2, #4, #1
 8007edc:	f361 1304 	bfi	r3, r1, #4, #1
 8007ee0:	f3c2 1140 	ubfx	r1, r2, #5, #1
 8007ee4:	f361 1345 	bfi	r3, r1, #5, #1
 8007ee8:	f3c2 1180 	ubfx	r1, r2, #6, #1
 8007eec:	f361 1386 	bfi	r3, r1, #6, #1
 8007ef0:	09d2      	lsrs	r2, r2, #7
 8007ef2:	f362 13c7 	bfi	r3, r2, #7, #1
 8007ef6:	f88d 300c 	strb.w	r3, [sp, #12]
 8007efa:	aa03      	add	r2, sp, #12
 8007efc:	2301      	movs	r3, #1
 8007efe:	210d      	movs	r1, #13
 8007f00:	4620      	mov	r0, r4
 8007f02:	f7ff fe66 	bl	8007bd2 <lsm6dsl_write_reg>
 8007f06:	2800      	cmp	r0, #0
 8007f08:	f040 8083 	bne.w	8008012 <lsm6dsl_pin_int1_route_set+0x17e>
 8007f0c:	2301      	movs	r3, #1
 8007f0e:	aa04      	add	r2, sp, #16
 8007f10:	215e      	movs	r1, #94	; 0x5e
 8007f12:	4620      	mov	r0, r4
 8007f14:	f7ff fe56 	bl	8007bc4 <lsm6dsl_read_reg>
 8007f18:	2800      	cmp	r0, #0
 8007f1a:	d17a      	bne.n	8008012 <lsm6dsl_pin_int1_route_set+0x17e>
 8007f1c:	2301      	movs	r3, #1
 8007f1e:	aa05      	add	r2, sp, #20
 8007f20:	215f      	movs	r1, #95	; 0x5f
 8007f22:	4620      	mov	r0, r4
 8007f24:	f7ff fe4e 	bl	8007bc4 <lsm6dsl_read_reg>
 8007f28:	2800      	cmp	r0, #0
 8007f2a:	d172      	bne.n	8008012 <lsm6dsl_pin_int1_route_set+0x17e>
 8007f2c:	f89d 2005 	ldrb.w	r2, [sp, #5]
 8007f30:	f89d 3010 	ldrb.w	r3, [sp, #16]
 8007f34:	f3c2 0100 	ubfx	r1, r2, #0, #1
 8007f38:	f361 0300 	bfi	r3, r1, #0, #1
 8007f3c:	f3c2 0140 	ubfx	r1, r2, #1, #1
 8007f40:	f361 0341 	bfi	r3, r1, #1, #1
 8007f44:	f3c2 0180 	ubfx	r1, r2, #2, #1
 8007f48:	f361 0382 	bfi	r3, r1, #2, #1
 8007f4c:	f3c2 01c0 	ubfx	r1, r2, #3, #1
 8007f50:	f361 03c3 	bfi	r3, r1, #3, #1
 8007f54:	f3c2 1100 	ubfx	r1, r2, #4, #1
 8007f58:	f361 1304 	bfi	r3, r1, #4, #1
 8007f5c:	f3c2 1140 	ubfx	r1, r2, #5, #1
 8007f60:	f361 1345 	bfi	r3, r1, #5, #1
 8007f64:	f3c2 1180 	ubfx	r1, r2, #6, #1
 8007f68:	f361 1386 	bfi	r3, r1, #6, #1
 8007f6c:	09d2      	lsrs	r2, r2, #7
 8007f6e:	f362 13c7 	bfi	r3, r2, #7, #1
 8007f72:	f88d 3010 	strb.w	r3, [sp, #16]
 8007f76:	aa04      	add	r2, sp, #16
 8007f78:	2301      	movs	r3, #1
 8007f7a:	215e      	movs	r1, #94	; 0x5e
 8007f7c:	4620      	mov	r0, r4
 8007f7e:	f7ff fe28 	bl	8007bd2 <lsm6dsl_write_reg>
 8007f82:	2800      	cmp	r0, #0
 8007f84:	d145      	bne.n	8008012 <lsm6dsl_pin_int1_route_set+0x17e>
 8007f86:	2301      	movs	r3, #1
 8007f88:	aa06      	add	r2, sp, #24
 8007f8a:	2113      	movs	r1, #19
 8007f8c:	4620      	mov	r0, r4
 8007f8e:	f7ff fe19 	bl	8007bc4 <lsm6dsl_read_reg>
 8007f92:	2800      	cmp	r0, #0
 8007f94:	d13d      	bne.n	8008012 <lsm6dsl_pin_int1_route_set+0x17e>
 8007f96:	f89d 3018 	ldrb.w	r3, [sp, #24]
 8007f9a:	f365 1304 	bfi	r3, r5, #4, #1
 8007f9e:	f88d 3018 	strb.w	r3, [sp, #24]
 8007fa2:	aa06      	add	r2, sp, #24
 8007fa4:	2301      	movs	r3, #1
 8007fa6:	2113      	movs	r1, #19
 8007fa8:	4620      	mov	r0, r4
 8007faa:	f7ff fe12 	bl	8007bd2 <lsm6dsl_write_reg>
 8007fae:	bb80      	cbnz	r0, 8008012 <lsm6dsl_pin_int1_route_set+0x17e>
 8007fb0:	2301      	movs	r3, #1
 8007fb2:	aa02      	add	r2, sp, #8
 8007fb4:	211a      	movs	r1, #26
 8007fb6:	4620      	mov	r0, r4
 8007fb8:	f7ff fe04 	bl	8007bc4 <lsm6dsl_read_reg>
 8007fbc:	bb48      	cbnz	r0, 8008012 <lsm6dsl_pin_int1_route_set+0x17e>
 8007fbe:	f89d 3008 	ldrb.w	r3, [sp, #8]
 8007fc2:	f365 13c7 	bfi	r3, r5, #7, #1
 8007fc6:	f88d 3008 	strb.w	r3, [sp, #8]
 8007fca:	aa02      	add	r2, sp, #8
 8007fcc:	2301      	movs	r3, #1
 8007fce:	211a      	movs	r1, #26
 8007fd0:	4620      	mov	r0, r4
 8007fd2:	f7ff fdfe 	bl	8007bd2 <lsm6dsl_write_reg>
 8007fd6:	b9e0      	cbnz	r0, 8008012 <lsm6dsl_pin_int1_route_set+0x17e>
 8007fd8:	2301      	movs	r3, #1
 8007fda:	aa07      	add	r2, sp, #28
 8007fdc:	2158      	movs	r1, #88	; 0x58
 8007fde:	4620      	mov	r0, r4
 8007fe0:	f7ff fdf0 	bl	8007bc4 <lsm6dsl_read_reg>
 8007fe4:	f89d 3005 	ldrb.w	r3, [sp, #5]
 8007fe8:	f013 0ffc 	tst.w	r3, #252	; 0xfc
 8007fec:	f89d 301c 	ldrb.w	r3, [sp, #28]
 8007ff0:	d104      	bne.n	8007ffc <lsm6dsl_pin_int1_route_set+0x168>
 8007ff2:	f89d 2014 	ldrb.w	r2, [sp, #20]
 8007ff6:	f012 02fc 	ands.w	r2, r2, #252	; 0xfc
 8007ffa:	d00c      	beq.n	8008016 <lsm6dsl_pin_int1_route_set+0x182>
 8007ffc:	f043 0380 	orr.w	r3, r3, #128	; 0x80
 8008000:	f88d 301c 	strb.w	r3, [sp, #28]
 8008004:	b928      	cbnz	r0, 8008012 <lsm6dsl_pin_int1_route_set+0x17e>
 8008006:	2301      	movs	r3, #1
 8008008:	aa07      	add	r2, sp, #28
 800800a:	2158      	movs	r1, #88	; 0x58
 800800c:	4620      	mov	r0, r4
 800800e:	f7ff fde0 	bl	8007bd2 <lsm6dsl_write_reg>
 8008012:	b009      	add	sp, #36	; 0x24
 8008014:	bd30      	pop	{r4, r5, pc}
 8008016:	f362 13c7 	bfi	r3, r2, #7, #1
 800801a:	e7f1      	b.n	8008000 <lsm6dsl_pin_int1_route_set+0x16c>

0800801c <lsm6dsl_pin_int1_route_get>:
 800801c:	b530      	push	{r4, r5, lr}
 800801e:	b085      	sub	sp, #20
 8008020:	460c      	mov	r4, r1
 8008022:	2301      	movs	r3, #1
 8008024:	aa01      	add	r2, sp, #4
 8008026:	210d      	movs	r1, #13
 8008028:	4605      	mov	r5, r0
 800802a:	f7ff fdcb 	bl	8007bc4 <lsm6dsl_read_reg>
 800802e:	2800      	cmp	r0, #0
 8008030:	d169      	bne.n	8008106 <lsm6dsl_pin_int1_route_get+0xea>
 8008032:	f89d 2004 	ldrb.w	r2, [sp, #4]
 8008036:	7823      	ldrb	r3, [r4, #0]
 8008038:	f3c2 0100 	ubfx	r1, r2, #0, #1
 800803c:	f361 0300 	bfi	r3, r1, #0, #1
 8008040:	f3c2 0140 	ubfx	r1, r2, #1, #1
 8008044:	f361 0341 	bfi	r3, r1, #1, #1
 8008048:	f3c2 0180 	ubfx	r1, r2, #2, #1
 800804c:	f361 0382 	bfi	r3, r1, #2, #1
 8008050:	f3c2 01c0 	ubfx	r1, r2, #3, #1
 8008054:	f361 03c3 	bfi	r3, r1, #3, #1
 8008058:	f3c2 1100 	ubfx	r1, r2, #4, #1
 800805c:	f361 1304 	bfi	r3, r1, #4, #1
 8008060:	f3c2 1140 	ubfx	r1, r2, #5, #1
 8008064:	f361 1345 	bfi	r3, r1, #5, #1
 8008068:	f3c2 1180 	ubfx	r1, r2, #6, #1
 800806c:	f361 1386 	bfi	r3, r1, #6, #1
 8008070:	09d2      	lsrs	r2, r2, #7
 8008072:	f362 13c7 	bfi	r3, r2, #7, #1
 8008076:	7023      	strb	r3, [r4, #0]
 8008078:	aa02      	add	r2, sp, #8
 800807a:	2301      	movs	r3, #1
 800807c:	215e      	movs	r1, #94	; 0x5e
 800807e:	4628      	mov	r0, r5
 8008080:	f7ff fda0 	bl	8007bc4 <lsm6dsl_read_reg>
 8008084:	2800      	cmp	r0, #0
 8008086:	d13e      	bne.n	8008106 <lsm6dsl_pin_int1_route_get+0xea>
 8008088:	f89d 2008 	ldrb.w	r2, [sp, #8]
 800808c:	7863      	ldrb	r3, [r4, #1]
 800808e:	f3c2 0100 	ubfx	r1, r2, #0, #1
 8008092:	f361 0300 	bfi	r3, r1, #0, #1
 8008096:	f3c2 0140 	ubfx	r1, r2, #1, #1
 800809a:	f361 0341 	bfi	r3, r1, #1, #1
 800809e:	f3c2 0180 	ubfx	r1, r2, #2, #1
 80080a2:	f361 0382 	bfi	r3, r1, #2, #1
 80080a6:	f3c2 01c0 	ubfx	r1, r2, #3, #1
 80080aa:	f361 03c3 	bfi	r3, r1, #3, #1
 80080ae:	f3c2 1100 	ubfx	r1, r2, #4, #1
 80080b2:	f361 1304 	bfi	r3, r1, #4, #1
 80080b6:	f3c2 1140 	ubfx	r1, r2, #5, #1
 80080ba:	f361 1345 	bfi	r3, r1, #5, #1
 80080be:	f3c2 1180 	ubfx	r1, r2, #6, #1
 80080c2:	f361 1386 	bfi	r3, r1, #6, #1
 80080c6:	09d2      	lsrs	r2, r2, #7
 80080c8:	f362 13c7 	bfi	r3, r2, #7, #1
 80080cc:	7063      	strb	r3, [r4, #1]
 80080ce:	aa03      	add	r2, sp, #12
 80080d0:	2301      	movs	r3, #1
 80080d2:	2113      	movs	r1, #19
 80080d4:	4628      	mov	r0, r5
 80080d6:	f7ff fd75 	bl	8007bc4 <lsm6dsl_read_reg>
 80080da:	b9a0      	cbnz	r0, 8008106 <lsm6dsl_pin_int1_route_get+0xea>
 80080dc:	f89d 300c 	ldrb.w	r3, [sp, #12]
 80080e0:	78a2      	ldrb	r2, [r4, #2]
 80080e2:	f3c3 1300 	ubfx	r3, r3, #4, #1
 80080e6:	f363 0200 	bfi	r2, r3, #0, #1
 80080ea:	70a2      	strb	r2, [r4, #2]
 80080ec:	2301      	movs	r3, #1
 80080ee:	466a      	mov	r2, sp
 80080f0:	211a      	movs	r1, #26
 80080f2:	4628      	mov	r0, r5
 80080f4:	f7ff fd66 	bl	8007bc4 <lsm6dsl_read_reg>
 80080f8:	f89d 3000 	ldrb.w	r3, [sp]
 80080fc:	78a2      	ldrb	r2, [r4, #2]
 80080fe:	09db      	lsrs	r3, r3, #7
 8008100:	f363 0200 	bfi	r2, r3, #0, #1
 8008104:	70a2      	strb	r2, [r4, #2]
 8008106:	b005      	add	sp, #20
 8008108:	bd30      	pop	{r4, r5, pc}

0800810a <lsm6dsl_pin_polarity_set>:
 800810a:	b537      	push	{r0, r1, r2, r4, r5, lr}
 800810c:	2301      	movs	r3, #1
 800810e:	460d      	mov	r5, r1
 8008110:	aa01      	add	r2, sp, #4
 8008112:	2112      	movs	r1, #18
 8008114:	4604      	mov	r4, r0
 8008116:	f7ff fd55 	bl	8007bc4 <lsm6dsl_read_reg>
 800811a:	b958      	cbnz	r0, 8008134 <lsm6dsl_pin_polarity_set+0x2a>
 800811c:	f89d 3004 	ldrb.w	r3, [sp, #4]
 8008120:	f365 1345 	bfi	r3, r5, #5, #1
 8008124:	f88d 3004 	strb.w	r3, [sp, #4]
 8008128:	aa01      	add	r2, sp, #4
 800812a:	2301      	movs	r3, #1
 800812c:	2112      	movs	r1, #18
 800812e:	4620      	mov	r0, r4
 8008130:	f7ff fd4f 	bl	8007bd2 <lsm6dsl_write_reg>
 8008134:	b003      	add	sp, #12
 8008136:	bd30      	pop	{r4, r5, pc}

08008138 <lsm6dsl_fifo_watermark_set>:
 8008138:	b537      	push	{r0, r1, r2, r4, r5, lr}
 800813a:	2301      	movs	r3, #1
 800813c:	460c      	mov	r4, r1
 800813e:	aa01      	add	r2, sp, #4
 8008140:	2107      	movs	r1, #7
 8008142:	4605      	mov	r5, r0
 8008144:	f7ff fd3e 	bl	8007bc4 <lsm6dsl_read_reg>
 8008148:	b9a8      	cbnz	r0, 8008176 <lsm6dsl_fifo_watermark_set+0x3e>
 800814a:	f89d 3004 	ldrb.w	r3, [sp, #4]
 800814e:	f88d 4000 	strb.w	r4, [sp]
 8008152:	0a24      	lsrs	r4, r4, #8
 8008154:	f364 0302 	bfi	r3, r4, #0, #3
 8008158:	f88d 3004 	strb.w	r3, [sp, #4]
 800815c:	466a      	mov	r2, sp
 800815e:	2301      	movs	r3, #1
 8008160:	2106      	movs	r1, #6
 8008162:	4628      	mov	r0, r5
 8008164:	f7ff fd35 	bl	8007bd2 <lsm6dsl_write_reg>
 8008168:	b928      	cbnz	r0, 8008176 <lsm6dsl_fifo_watermark_set+0x3e>
 800816a:	2301      	movs	r3, #1
 800816c:	aa01      	add	r2, sp, #4
 800816e:	2107      	movs	r1, #7
 8008170:	4628      	mov	r0, r5
 8008172:	f7ff fd2e 	bl	8007bd2 <lsm6dsl_write_reg>
 8008176:	b003      	add	sp, #12
 8008178:	bd30      	pop	{r4, r5, pc}

0800817a <lsm6dsl_fifo_watermark_get>:
 800817a:	b537      	push	{r0, r1, r2, r4, r5, lr}
 800817c:	2301      	movs	r3, #1
 800817e:	460c      	mov	r4, r1
 8008180:	466a      	mov	r2, sp
 8008182:	2106      	movs	r1, #6
 8008184:	4605      	mov	r5, r0
 8008186:	f7ff fd1d 	bl	8007bc4 <lsm6dsl_read_reg>
 800818a:	b928      	cbnz	r0, 8008198 <lsm6dsl_fifo_watermark_get+0x1e>
 800818c:	2301      	movs	r3, #1
 800818e:	aa01      	add	r2, sp, #4
 8008190:	2107      	movs	r1, #7
 8008192:	4628      	mov	r0, r5
 8008194:	f7ff fd16 	bl	8007bc4 <lsm6dsl_read_reg>
 8008198:	f89d 3004 	ldrb.w	r3, [sp, #4]
 800819c:	f003 0207 	and.w	r2, r3, #7
 80081a0:	f89d 3000 	ldrb.w	r3, [sp]
 80081a4:	eb03 2302 	add.w	r3, r3, r2, lsl #8
 80081a8:	8023      	strh	r3, [r4, #0]
 80081aa:	b003      	add	sp, #12
 80081ac:	bd30      	pop	{r4, r5, pc}

080081ae <lsm6dsl_fifo_data_level_get>:
 80081ae:	b537      	push	{r0, r1, r2, r4, r5, lr}
 80081b0:	2301      	movs	r3, #1
 80081b2:	460c      	mov	r4, r1
 80081b4:	466a      	mov	r2, sp
 80081b6:	213a      	movs	r1, #58	; 0x3a
 80081b8:	4605      	mov	r5, r0
 80081ba:	f7ff fd03 	bl	8007bc4 <lsm6dsl_read_reg>
 80081be:	b970      	cbnz	r0, 80081de <lsm6dsl_fifo_data_level_get+0x30>
 80081c0:	2301      	movs	r3, #1
 80081c2:	aa01      	add	r2, sp, #4
 80081c4:	213b      	movs	r1, #59	; 0x3b
 80081c6:	4628      	mov	r0, r5
 80081c8:	f7ff fcfc 	bl	8007bc4 <lsm6dsl_read_reg>
 80081cc:	f89d 3004 	ldrb.w	r3, [sp, #4]
 80081d0:	f003 0207 	and.w	r2, r3, #7
 80081d4:	f89d 3000 	ldrb.w	r3, [sp]
 80081d8:	eb03 2302 	add.w	r3, r3, r2, lsl #8
 80081dc:	8023      	strh	r3, [r4, #0]
 80081de:	b003      	add	sp, #12
 80081e0:	bd30      	pop	{r4, r5, pc}

080081e2 <lsm6dsl_fifo_xl_batch_set>:
 80081e2:	b537      	push	{r0, r1, r2, r4, r5, lr}
 80081e4:	2301      	movs	r3, #1
 80081e6:	460d      	mov	r5, r1
 80081e8:	aa01      	add	r2, sp, #4
 80081ea:	2108      	movs	r1, #8
 80081ec:	4604      	mov	r4, r0
 80081ee:	f7ff fce9 	bl	8007bc4 <lsm6dsl_read_reg>
 80081f2:	b958      	cbnz	r0, 800820c <lsm6dsl_fifo_xl_batch_set+0x2a>
 80081f4:	f89d 3004 	ldrb.w	r3, [sp, #4]
 80081f8:	f365 0302 	bfi	r3, r5, #0, #3
 80081fc:	f88d 3004 	strb.w	r3, [sp, #4]
 8008200:	aa01      	add	r2, sp, #4
 8008202:	2301      	movs	r3, #1
 8008204:	2108      	movs	r1, #8
 8008206:	4620      	mov	r0, r4
 8008208:	f7ff fce3 	bl	8007bd2 <lsm6dsl_write_reg>
 800820c:	b003      	add	sp, #12
 800820e:	bd30      	pop	{r4, r5, pc}

08008210 <lsm6dsl_fifo_xl_batch_get>:
 8008210:	b513      	push	{r0, r1, r4, lr}
 8008212:	2301      	movs	r3, #1
 8008214:	460c      	mov	r4, r1
 8008216:	aa01      	add	r2, sp, #4
 8008218:	2108      	movs	r1, #8
 800821a:	f7ff fcd3 	bl	8007bc4 <lsm6dsl_read_reg>
 800821e:	f89d 3004 	ldrb.w	r3, [sp, #4]
 8008222:	f003 0307 	and.w	r3, r3, #7
 8008226:	2b07      	cmp	r3, #7
 8008228:	d817      	bhi.n	800825a <lsm6dsl_fifo_xl_batch_get+0x4a>
 800822a:	e8df f003 	tbb	[pc, r3]
 800822e:	0804      	.short	0x0804
 8008230:	100e0c0a 	.word	0x100e0c0a
 8008234:	1412      	.short	0x1412
 8008236:	2300      	movs	r3, #0
 8008238:	7023      	strb	r3, [r4, #0]
 800823a:	b002      	add	sp, #8
 800823c:	bd10      	pop	{r4, pc}
 800823e:	2301      	movs	r3, #1
 8008240:	e7fa      	b.n	8008238 <lsm6dsl_fifo_xl_batch_get+0x28>
 8008242:	2302      	movs	r3, #2
 8008244:	e7f8      	b.n	8008238 <lsm6dsl_fifo_xl_batch_get+0x28>
 8008246:	2303      	movs	r3, #3
 8008248:	e7f6      	b.n	8008238 <lsm6dsl_fifo_xl_batch_get+0x28>
 800824a:	2304      	movs	r3, #4
 800824c:	e7f4      	b.n	8008238 <lsm6dsl_fifo_xl_batch_get+0x28>
 800824e:	2305      	movs	r3, #5
 8008250:	e7f2      	b.n	8008238 <lsm6dsl_fifo_xl_batch_get+0x28>
 8008252:	2306      	movs	r3, #6
 8008254:	e7f0      	b.n	8008238 <lsm6dsl_fifo_xl_batch_get+0x28>
 8008256:	2307      	movs	r3, #7
 8008258:	e7ee      	b.n	8008238 <lsm6dsl_fifo_xl_batch_get+0x28>
 800825a:	2308      	movs	r3, #8
 800825c:	e7ec      	b.n	8008238 <lsm6dsl_fifo_xl_batch_get+0x28>

0800825e <lsm6dsl_fifo_gy_batch_set>:
 800825e:	b537      	push	{r0, r1, r2, r4, r5, lr}
 8008260:	2301      	movs	r3, #1
 8008262:	460d      	mov	r5, r1
 8008264:	aa01      	add	r2, sp, #4
 8008266:	2108      	movs	r1, #8
 8008268:	4604      	mov	r4, r0
 800826a:	f7ff fcab 	bl	8007bc4 <lsm6dsl_read_reg>
 800826e:	b958      	cbnz	r0, 8008288 <lsm6dsl_fifo_gy_batch_set+0x2a>
 8008270:	f89d 3004 	ldrb.w	r3, [sp, #4]
 8008274:	f365 03c5 	bfi	r3, r5, #3, #3
 8008278:	f88d 3004 	strb.w	r3, [sp, #4]
 800827c:	aa01      	add	r2, sp, #4
 800827e:	2301      	movs	r3, #1
 8008280:	2108      	movs	r1, #8
 8008282:	4620      	mov	r0, r4
 8008284:	f7ff fca5 	bl	8007bd2 <lsm6dsl_write_reg>
 8008288:	b003      	add	sp, #12
 800828a:	bd30      	pop	{r4, r5, pc}

0800828c <lsm6dsl_fifo_gy_batch_get>:
 800828c:	b513      	push	{r0, r1, r4, lr}
 800828e:	2301      	movs	r3, #1
 8008290:	460c      	mov	r4, r1
 8008292:	aa01      	add	r2, sp, #4
 8008294:	2108      	movs	r1, #8
 8008296:	f7ff fc95 	bl	8007bc4 <lsm6dsl_read_reg>
 800829a:	f89d 3004 	ldrb.w	r3, [sp, #4]
 800829e:	f3c3 03c2 	ubfx	r3, r3, #3, #3
 80082a2:	2b07      	cmp	r3, #7
 80082a4:	d817      	bhi.n	80082d6 <lsm6dsl_fifo_gy_batch_get+0x4a>
 80082a6:	e8df f003 	tbb	[pc, r3]
 80082aa:	0804      	.short	0x0804
 80082ac:	100e0c0a 	.word	0x100e0c0a
 80082b0:	1412      	.short	0x1412
 80082b2:	2300      	movs	r3, #0
 80082b4:	7023      	strb	r3, [r4, #0]
 80082b6:	b002      	add	sp, #8
 80082b8:	bd10      	pop	{r4, pc}
 80082ba:	2301      	movs	r3, #1
 80082bc:	e7fa      	b.n	80082b4 <lsm6dsl_fifo_gy_batch_get+0x28>
 80082be:	2302      	movs	r3, #2
 80082c0:	e7f8      	b.n	80082b4 <lsm6dsl_fifo_gy_batch_get+0x28>
 80082c2:	2303      	movs	r3, #3
 80082c4:	e7f6      	b.n	80082b4 <lsm6dsl_fifo_gy_batch_get+0x28>
 80082c6:	2304      	movs	r3, #4
 80082c8:	e7f4      	b.n	80082b4 <lsm6dsl_fifo_gy_batch_get+0x28>
 80082ca:	2305      	movs	r3, #5
 80082cc:	e7f2      	b.n	80082b4 <lsm6dsl_fifo_gy_batch_get+0x28>
 80082ce:	2306      	movs	r3, #6
 80082d0:	e7f0      	b.n	80082b4 <lsm6dsl_fifo_gy_batch_get+0x28>
 80082d2:	2307      	movs	r3, #7
 80082d4:	e7ee      	b.n	80082b4 <lsm6dsl_fifo_gy_batch_get+0x28>
 80082d6:	2308      	movs	r3, #8
 80082d8:	e7ec      	b.n	80082b4 <lsm6dsl_fifo_gy_batch_get+0x28>

080082da <lsm6dsl_fifo_mode_set>:
 80082da:	b537      	push	{r0, r1, r2, r4, r5, lr}
 80082dc:	2301      	movs	r3, #1
 80082de:	460d      	mov	r5, r1
 80082e0:	aa01      	add	r2, sp, #4
 80082e2:	210a      	movs	r1, #10
 80082e4:	4604      	mov	r4, r0
 80082e6:	f7ff fc6d 	bl	8007bc4 <lsm6dsl_read_reg>
 80082ea:	b958      	cbnz	r0, 8008304 <lsm6dsl_fifo_mode_set+0x2a>
 80082ec:	f89d 3004 	ldrb.w	r3, [sp, #4]
 80082f0:	f365 0302 	bfi	r3, r5, #0, #3
 80082f4:	f88d 3004 	strb.w	r3, [sp, #4]
 80082f8:	aa01      	add	r2, sp, #4
 80082fa:	2301      	movs	r3, #1
 80082fc:	210a      	movs	r1, #10
 80082fe:	4620      	mov	r0, r4
 8008300:	f7ff fc67 	bl	8007bd2 <lsm6dsl_write_reg>
 8008304:	b003      	add	sp, #12
 8008306:	bd30      	pop	{r4, r5, pc}

08008308 <lsm6dsl_fifo_mode_get>:
 8008308:	b513      	push	{r0, r1, r4, lr}
 800830a:	2301      	movs	r3, #1
 800830c:	460c      	mov	r4, r1
 800830e:	aa01      	add	r2, sp, #4
 8008310:	210a      	movs	r1, #10
 8008312:	f7ff fc57 	bl	8007bc4 <lsm6dsl_read_reg>
 8008316:	f89d 3004 	ldrb.w	r3, [sp, #4]
 800831a:	f003 0307 	and.w	r3, r3, #7
 800831e:	2b06      	cmp	r3, #6
 8008320:	d811      	bhi.n	8008346 <lsm6dsl_fifo_mode_get+0x3e>
 8008322:	e8df f003 	tbb	[pc, r3]
 8008326:	0804      	.short	0x0804
 8008328:	100c0a10 	.word	0x100c0a10
 800832c:	0e          	.byte	0x0e
 800832d:	00          	.byte	0x00
 800832e:	2300      	movs	r3, #0
 8008330:	7023      	strb	r3, [r4, #0]
 8008332:	b002      	add	sp, #8
 8008334:	bd10      	pop	{r4, pc}
 8008336:	2301      	movs	r3, #1
 8008338:	e7fa      	b.n	8008330 <lsm6dsl_fifo_mode_get+0x28>
 800833a:	2303      	movs	r3, #3
 800833c:	e7f8      	b.n	8008330 <lsm6dsl_fifo_mode_get+0x28>
 800833e:	2304      	movs	r3, #4
 8008340:	e7f6      	b.n	8008330 <lsm6dsl_fifo_mode_get+0x28>
 8008342:	2306      	movs	r3, #6
 8008344:	e7f4      	b.n	8008330 <lsm6dsl_fifo_mode_get+0x28>
 8008346:	2308      	movs	r3, #8
 8008348:	e7f2      	b.n	8008330 <lsm6dsl_fifo_mode_get+0x28>

0800834a <lsm6dsl_fifo_data_rate_set>:
 800834a:	b537      	push	{r0, r1, r2, r4, r5, lr}
 800834c:	2301      	movs	r3, #1
 800834e:	460d      	mov	r5, r1
 8008350:	aa01      	add	r2, sp, #4
 8008352:	210a      	movs	r1, #10
 8008354:	4604      	mov	r4, r0
 8008356:	f7ff fc35 	bl	8007bc4 <lsm6dsl_read_reg>
 800835a:	b958      	cbnz	r0, 8008374 <lsm6dsl_fifo_data_rate_set+0x2a>
 800835c:	f89d 3004 	ldrb.w	r3, [sp, #4]
 8008360:	f365 03c6 	bfi	r3, r5, #3, #4
 8008364:	f88d 3004 	strb.w	r3, [sp, #4]
 8008368:	aa01      	add	r2, sp, #4
 800836a:	2301      	movs	r3, #1
 800836c:	210a      	movs	r1, #10
 800836e:	4620      	mov	r0, r4
 8008370:	f7ff fc2f 	bl	8007bd2 <lsm6dsl_write_reg>
 8008374:	b003      	add	sp, #12
 8008376:	bd30      	pop	{r4, r5, pc}

08008378 <lsm6dsl_fifo_data_rate_get>:
 8008378:	b513      	push	{r0, r1, r4, lr}
 800837a:	2301      	movs	r3, #1
 800837c:	460c      	mov	r4, r1
 800837e:	aa01      	add	r2, sp, #4
 8008380:	210a      	movs	r1, #10
 8008382:	f7ff fc1f 	bl	8007bc4 <lsm6dsl_read_reg>
 8008386:	f89d 3004 	ldrb.w	r3, [sp, #4]
 800838a:	f3c3 03c3 	ubfx	r3, r3, #3, #4
 800838e:	2b0a      	cmp	r3, #10
 8008390:	d81f      	bhi.n	80083d2 <lsm6dsl_fifo_data_rate_get+0x5a>
 8008392:	e8df f003 	tbb	[pc, r3]
 8008396:	0a06      	.short	0x0a06
 8008398:	12100e0c 	.word	0x12100e0c
 800839c:	1a181614 	.word	0x1a181614
 80083a0:	1c          	.byte	0x1c
 80083a1:	00          	.byte	0x00
 80083a2:	2300      	movs	r3, #0
 80083a4:	7023      	strb	r3, [r4, #0]
 80083a6:	b002      	add	sp, #8
 80083a8:	bd10      	pop	{r4, pc}
 80083aa:	2301      	movs	r3, #1
 80083ac:	e7fa      	b.n	80083a4 <lsm6dsl_fifo_data_rate_get+0x2c>
 80083ae:	2302      	movs	r3, #2
 80083b0:	e7f8      	b.n	80083a4 <lsm6dsl_fifo_data_rate_get+0x2c>
 80083b2:	2303      	movs	r3, #3
 80083b4:	e7f6      	b.n	80083a4 <lsm6dsl_fifo_data_rate_get+0x2c>
 80083b6:	2304      	movs	r3, #4
 80083b8:	e7f4      	b.n	80083a4 <lsm6dsl_fifo_data_rate_get+0x2c>
 80083ba:	2305      	movs	r3, #5
 80083bc:	e7f2      	b.n	80083a4 <lsm6dsl_fifo_data_rate_get+0x2c>
 80083be:	2306      	movs	r3, #6
 80083c0:	e7f0      	b.n	80083a4 <lsm6dsl_fifo_data_rate_get+0x2c>
 80083c2:	2307      	movs	r3, #7
 80083c4:	e7ee      	b.n	80083a4 <lsm6dsl_fifo_data_rate_get+0x2c>
 80083c6:	2308      	movs	r3, #8
 80083c8:	e7ec      	b.n	80083a4 <lsm6dsl_fifo_data_rate_get+0x2c>
 80083ca:	2309      	movs	r3, #9
 80083cc:	e7ea      	b.n	80083a4 <lsm6dsl_fifo_data_rate_get+0x2c>
 80083ce:	230a      	movs	r3, #10
 80083d0:	e7e8      	b.n	80083a4 <lsm6dsl_fifo_data_rate_get+0x2c>
 80083d2:	230b      	movs	r3, #11
 80083d4:	e7e6      	b.n	80083a4 <lsm6dsl_fifo_data_rate_get+0x2c>
	...

080083d8 <HAL_TIM_PeriodElapsedCallback>:
 80083d8:	6802      	ldr	r2, [r0, #0]
 80083da:	4b03      	ldr	r3, [pc, #12]	; (80083e8 <HAL_TIM_PeriodElapsedCallback+0x10>)
 80083dc:	429a      	cmp	r2, r3
 80083de:	d101      	bne.n	80083e4 <HAL_TIM_PeriodElapsedCallback+0xc>
 80083e0:	f7f8 bd84 	b.w	8000eec <HAL_IncTick>
 80083e4:	4770      	bx	lr
 80083e6:	bf00      	nop
 80083e8:	40000c00 	.word	0x40000c00

080083ec <Error_Handler>:
 80083ec:	b508      	push	{r3, lr}
 80083ee:	4802      	ldr	r0, [pc, #8]	; (80083f8 <Error_Handler+0xc>)
 80083f0:	f7fe fd12 	bl	8006e18 <COM_uartPrint>
 80083f4:	e7fe      	b.n	80083f4 <Error_Handler+0x8>
 80083f6:	bf00      	nop
 80083f8:	0800b7a3 	.word	0x0800b7a3

080083fc <SystemClock_Config>:
 80083fc:	b530      	push	{r4, r5, lr}
 80083fe:	2400      	movs	r4, #0
 8008400:	b09b      	sub	sp, #108	; 0x6c
 8008402:	2214      	movs	r2, #20
 8008404:	4621      	mov	r1, r4
 8008406:	a803      	add	r0, sp, #12
 8008408:	940f      	str	r4, [sp, #60]	; 0x3c
 800840a:	f000 fc82 	bl	8008d12 <memset>
 800840e:	2218      	movs	r2, #24
 8008410:	4621      	mov	r1, r4
 8008412:	a808      	add	r0, sp, #32
 8008414:	f000 fc7d 	bl	8008d12 <memset>
 8008418:	4b23      	ldr	r3, [pc, #140]	; (80084a8 <SystemClock_Config+0xac>)
 800841a:	9401      	str	r4, [sp, #4]
 800841c:	6c1a      	ldr	r2, [r3, #64]	; 0x40
 800841e:	f042 5280 	orr.w	r2, r2, #268435456	; 0x10000000
 8008422:	641a      	str	r2, [r3, #64]	; 0x40
 8008424:	6c1b      	ldr	r3, [r3, #64]	; 0x40
 8008426:	f003 5380 	and.w	r3, r3, #268435456	; 0x10000000
 800842a:	9301      	str	r3, [sp, #4]
 800842c:	9b01      	ldr	r3, [sp, #4]
 800842e:	4b1f      	ldr	r3, [pc, #124]	; (80084ac <SystemClock_Config+0xb0>)
 8008430:	9402      	str	r4, [sp, #8]
 8008432:	681a      	ldr	r2, [r3, #0]
 8008434:	f442 4240 	orr.w	r2, r2, #49152	; 0xc000
 8008438:	601a      	str	r2, [r3, #0]
 800843a:	681b      	ldr	r3, [r3, #0]
 800843c:	f403 4340 	and.w	r3, r3, #49152	; 0xc000
 8008440:	9302      	str	r3, [sp, #8]
 8008442:	9b02      	ldr	r3, [sp, #8]
 8008444:	230e      	movs	r3, #14
 8008446:	2210      	movs	r2, #16
 8008448:	930e      	str	r3, [sp, #56]	; 0x38
 800844a:	2301      	movs	r3, #1
 800844c:	e9cd 3310 	strd	r3, r3, [sp, #64]	; 0x40
 8008450:	e9cd 2312 	strd	r2, r3, [sp, #72]	; 0x48
 8008454:	2502      	movs	r5, #2
 8008456:	2304      	movs	r3, #4
 8008458:	f44f 71a8 	mov.w	r1, #336	; 0x150
 800845c:	a80e      	add	r0, sp, #56	; 0x38
 800845e:	e9cd 5414 	strd	r5, r4, [sp, #80]	; 0x50
 8008462:	9216      	str	r2, [sp, #88]	; 0x58
 8008464:	e9cd 1317 	strd	r1, r3, [sp, #92]	; 0x5c
 8008468:	9319      	str	r3, [sp, #100]	; 0x64
 800846a:	f7fa f94d 	bl	8002708 <HAL_RCC_OscConfig>
 800846e:	b108      	cbz	r0, 8008474 <SystemClock_Config+0x78>
 8008470:	f7ff ffbc 	bl	80083ec <Error_Handler>
 8008474:	230f      	movs	r3, #15
 8008476:	e9cd 3503 	strd	r3, r5, [sp, #12]
 800847a:	f44f 5380 	mov.w	r3, #4096	; 0x1000
 800847e:	9005      	str	r0, [sp, #20]
 8008480:	e9cd 3006 	strd	r3, r0, [sp, #24]
 8008484:	4629      	mov	r1, r5
 8008486:	a803      	add	r0, sp, #12
 8008488:	f7fa fb86 	bl	8002b98 <HAL_RCC_ClockConfig>
 800848c:	2800      	cmp	r0, #0
 800848e:	d1ef      	bne.n	8008470 <SystemClock_Config+0x74>
 8008490:	f44f 7380 	mov.w	r3, #256	; 0x100
 8008494:	a808      	add	r0, sp, #32
 8008496:	9508      	str	r5, [sp, #32]
 8008498:	930c      	str	r3, [sp, #48]	; 0x30
 800849a:	f7fa fcaf 	bl	8002dfc <HAL_RCCEx_PeriphCLKConfig>
 800849e:	2800      	cmp	r0, #0
 80084a0:	d1e6      	bne.n	8008470 <SystemClock_Config+0x74>
 80084a2:	b01b      	add	sp, #108	; 0x6c
 80084a4:	bd30      	pop	{r4, r5, pc}
 80084a6:	bf00      	nop
 80084a8:	40023800 	.word	0x40023800
 80084ac:	40007000 	.word	0x40007000

080084b0 <main>:
 80084b0:	b508      	push	{r3, lr}
 80084b2:	4b17      	ldr	r3, [pc, #92]	; (8008510 <main+0x60>)
 80084b4:	2200      	movs	r2, #0
 80084b6:	601a      	str	r2, [r3, #0]
 80084b8:	f7f8 fcfe 	bl	8000eb8 <HAL_Init>
 80084bc:	f7ff ff9e 	bl	80083fc <SystemClock_Config>
 80084c0:	f7fe ff68 	bl	8007394 <MX_GPIO_Init>
 80084c4:	f7fe fe6a 	bl	800719c <MX_DMA_Init>
 80084c8:	f7fe fe40 	bl	800714c <MX_CRC_Init>
 80084cc:	f000 f828 	bl	8008520 <MX_RTC_Init>
 80084d0:	f000 fb1e 	bl	8008b10 <MX_USART2_UART_Init>
 80084d4:	f000 facc 	bl	8008a70 <MX_TIM3_Init>
 80084d8:	f7ff f812 	bl	8007500 <MX_I2C1_Init>
 80084dc:	f44f 7180 	mov.w	r1, #256	; 0x100
 80084e0:	480c      	ldr	r0, [pc, #48]	; (8008514 <main+0x64>)
 80084e2:	f7fa fd8b 	bl	8002ffc <HAL_RTC_DeactivateAlarm>
 80084e6:	480b      	ldr	r0, [pc, #44]	; (8008514 <main+0x64>)
 80084e8:	f7fb fa5c 	bl	80039a4 <HAL_RTCEx_DeactivateWakeUpTimer>
 80084ec:	f000 fa2e 	bl	800894c <SYSTEM_DEBUG_wakeupStandbyMode>
 80084f0:	f7fe fcea 	bl	8006ec8 <COM_halUartReceiveDma>
 80084f4:	4808      	ldr	r0, [pc, #32]	; (8008518 <main+0x68>)
 80084f6:	f7fe fc8f 	bl	8006e18 <COM_uartPrint>
 80084fa:	f000 f95f 	bl	80087bc <SYSTEM_DEBUG_assertMsgPrint>
 80084fe:	f7ff fa37 	bl	8007970 <LSM6DSL_init>
 8008502:	f000 f9a7 	bl	8008854 <SYSTEM_DEBUG_printResetCause>
 8008506:	f7fe ff11 	bl	800732c <MX_FREERTOS_Init>
 800850a:	f7fc fd13 	bl	8004f34 <osKernelStart>
 800850e:	e7fe      	b.n	800850e <main+0x5e>
 8008510:	20000084 	.word	0x20000084
 8008514:	20001154 	.word	0x20001154
 8008518:	0800b7a9 	.word	0x0800b7a9

0800851c <assert_failed>:
 800851c:	f000 b926 	b.w	800876c <SYSTEM_DEBUG_assertRecord>

08008520 <MX_RTC_Init>:
 8008520:	b510      	push	{r4, lr}
 8008522:	b090      	sub	sp, #64	; 0x40
 8008524:	2400      	movs	r4, #0
 8008526:	2214      	movs	r2, #20
 8008528:	2100      	movs	r1, #0
 800852a:	a801      	add	r0, sp, #4
 800852c:	f000 fbf1 	bl	8008d12 <memset>
 8008530:	2228      	movs	r2, #40	; 0x28
 8008532:	4621      	mov	r1, r4
 8008534:	a806      	add	r0, sp, #24
 8008536:	9400      	str	r4, [sp, #0]
 8008538:	f000 fbeb 	bl	8008d12 <memset>
 800853c:	4826      	ldr	r0, [pc, #152]	; (80085d8 <MX_RTC_Init+0xb8>)
 800853e:	4b27      	ldr	r3, [pc, #156]	; (80085dc <MX_RTC_Init+0xbc>)
 8008540:	6184      	str	r4, [r0, #24]
 8008542:	e9c0 3400 	strd	r3, r4, [r0]
 8008546:	227f      	movs	r2, #127	; 0x7f
 8008548:	23ff      	movs	r3, #255	; 0xff
 800854a:	e9c0 2302 	strd	r2, r3, [r0, #8]
 800854e:	e9c0 4404 	strd	r4, r4, [r0, #16]
 8008552:	f7fa fe0b 	bl	800316c <HAL_RTC_Init>
 8008556:	b108      	cbz	r0, 800855c <MX_RTC_Init+0x3c>
 8008558:	f7ff ff48 	bl	80083ec <Error_Handler>
 800855c:	2200      	movs	r2, #0
 800855e:	a901      	add	r1, sp, #4
 8008560:	481d      	ldr	r0, [pc, #116]	; (80085d8 <MX_RTC_Init+0xb8>)
 8008562:	f8ad 4004 	strh.w	r4, [sp, #4]
 8008566:	f88d 4006 	strb.w	r4, [sp, #6]
 800856a:	e9cd 4404 	strd	r4, r4, [sp, #16]
 800856e:	f7fa fe97 	bl	80032a0 <HAL_RTC_SetTime>
 8008572:	b108      	cbz	r0, 8008578 <MX_RTC_Init+0x58>
 8008574:	f7ff ff3a 	bl	80083ec <Error_Handler>
 8008578:	a910      	add	r1, sp, #64	; 0x40
 800857a:	4b19      	ldr	r3, [pc, #100]	; (80085e0 <MX_RTC_Init+0xc0>)
 800857c:	f841 3d40 	str.w	r3, [r1, #-64]!
 8008580:	2200      	movs	r2, #0
 8008582:	4815      	ldr	r0, [pc, #84]	; (80085d8 <MX_RTC_Init+0xb8>)
 8008584:	f7fa ff72 	bl	800346c <HAL_RTC_SetDate>
 8008588:	b108      	cbz	r0, 800858e <MX_RTC_Init+0x6e>
 800858a:	f7ff ff2f 	bl	80083ec <Error_Handler>
 800858e:	2200      	movs	r2, #0
 8008590:	2301      	movs	r3, #1
 8008592:	f04f 3180 	mov.w	r1, #2155905152	; 0x80808080
 8008596:	f88d 301a 	strb.w	r3, [sp, #26]
 800859a:	e9cd 120b 	strd	r1, r2, [sp, #44]	; 0x2c
 800859e:	f88d 3038 	strb.w	r3, [sp, #56]	; 0x38
 80085a2:	a906      	add	r1, sp, #24
 80085a4:	f44f 7380 	mov.w	r3, #256	; 0x100
 80085a8:	480b      	ldr	r0, [pc, #44]	; (80085d8 <MX_RTC_Init+0xb8>)
 80085aa:	f8ad 2018 	strh.w	r2, [sp, #24]
 80085ae:	9207      	str	r2, [sp, #28]
 80085b0:	e9cd 2209 	strd	r2, r2, [sp, #36]	; 0x24
 80085b4:	920d      	str	r2, [sp, #52]	; 0x34
 80085b6:	930f      	str	r3, [sp, #60]	; 0x3c
 80085b8:	f7fb f810 	bl	80035dc <HAL_RTC_SetAlarm_IT>
 80085bc:	b108      	cbz	r0, 80085c2 <MX_RTC_Init+0xa2>
 80085be:	f7ff ff15 	bl	80083ec <Error_Handler>
 80085c2:	2200      	movs	r2, #0
 80085c4:	4611      	mov	r1, r2
 80085c6:	4804      	ldr	r0, [pc, #16]	; (80085d8 <MX_RTC_Init+0xb8>)
 80085c8:	f7fb f976 	bl	80038b8 <HAL_RTCEx_SetWakeUpTimer_IT>
 80085cc:	b108      	cbz	r0, 80085d2 <MX_RTC_Init+0xb2>
 80085ce:	f7ff ff0d 	bl	80083ec <Error_Handler>
 80085d2:	b010      	add	sp, #64	; 0x40
 80085d4:	bd10      	pop	{r4, pc}
 80085d6:	bf00      	nop
 80085d8:	20001154 	.word	0x20001154
 80085dc:	40002800 	.word	0x40002800
 80085e0:	00010101 	.word	0x00010101

080085e4 <HAL_RTC_MspInit>:
 80085e4:	b508      	push	{r3, lr}
 80085e6:	6802      	ldr	r2, [r0, #0]
 80085e8:	4b0c      	ldr	r3, [pc, #48]	; (800861c <HAL_RTC_MspInit+0x38>)
 80085ea:	429a      	cmp	r2, r3
 80085ec:	d114      	bne.n	8008618 <HAL_RTC_MspInit+0x34>
 80085ee:	4b0c      	ldr	r3, [pc, #48]	; (8008620 <HAL_RTC_MspInit+0x3c>)
 80085f0:	2201      	movs	r2, #1
 80085f2:	601a      	str	r2, [r3, #0]
 80085f4:	2105      	movs	r1, #5
 80085f6:	2200      	movs	r2, #0
 80085f8:	2003      	movs	r0, #3
 80085fa:	f7f8 fca7 	bl	8000f4c <HAL_NVIC_SetPriority>
 80085fe:	2003      	movs	r0, #3
 8008600:	f7f8 fce8 	bl	8000fd4 <HAL_NVIC_EnableIRQ>
 8008604:	2029      	movs	r0, #41	; 0x29
 8008606:	2200      	movs	r2, #0
 8008608:	2105      	movs	r1, #5
 800860a:	f7f8 fc9f 	bl	8000f4c <HAL_NVIC_SetPriority>
 800860e:	2029      	movs	r0, #41	; 0x29
 8008610:	e8bd 4008 	ldmia.w	sp!, {r3, lr}
 8008614:	f7f8 bcde 	b.w	8000fd4 <HAL_NVIC_EnableIRQ>
 8008618:	bd08      	pop	{r3, pc}
 800861a:	bf00      	nop
 800861c:	40002800 	.word	0x40002800
 8008620:	42470e3c 	.word	0x42470e3c

08008624 <HAL_MspInit>:
 8008624:	b082      	sub	sp, #8
 8008626:	4b0e      	ldr	r3, [pc, #56]	; (8008660 <HAL_MspInit+0x3c>)
 8008628:	2200      	movs	r2, #0
 800862a:	9200      	str	r2, [sp, #0]
 800862c:	6c59      	ldr	r1, [r3, #68]	; 0x44
 800862e:	f441 4180 	orr.w	r1, r1, #16384	; 0x4000
 8008632:	6459      	str	r1, [r3, #68]	; 0x44
 8008634:	6c59      	ldr	r1, [r3, #68]	; 0x44
 8008636:	f401 4180 	and.w	r1, r1, #16384	; 0x4000
 800863a:	9100      	str	r1, [sp, #0]
 800863c:	9900      	ldr	r1, [sp, #0]
 800863e:	9201      	str	r2, [sp, #4]
 8008640:	6c19      	ldr	r1, [r3, #64]	; 0x40
 8008642:	f041 5180 	orr.w	r1, r1, #268435456	; 0x10000000
 8008646:	6419      	str	r1, [r3, #64]	; 0x40
 8008648:	6c1b      	ldr	r3, [r3, #64]	; 0x40
 800864a:	f003 5380 	and.w	r3, r3, #268435456	; 0x10000000
 800864e:	9301      	str	r3, [sp, #4]
 8008650:	9b01      	ldr	r3, [sp, #4]
 8008652:	210f      	movs	r1, #15
 8008654:	f06f 0001 	mvn.w	r0, #1
 8008658:	b002      	add	sp, #8
 800865a:	f7f8 bc77 	b.w	8000f4c <HAL_NVIC_SetPriority>
 800865e:	bf00      	nop
 8008660:	40023800 	.word	0x40023800

08008664 <HAL_InitTick>:
 8008664:	b530      	push	{r4, r5, lr}
 8008666:	4601      	mov	r1, r0
 8008668:	b089      	sub	sp, #36	; 0x24
 800866a:	2200      	movs	r2, #0
 800866c:	2032      	movs	r0, #50	; 0x32
 800866e:	f7f8 fc6d 	bl	8000f4c <HAL_NVIC_SetPriority>
 8008672:	2032      	movs	r0, #50	; 0x32
 8008674:	f7f8 fcae 	bl	8000fd4 <HAL_NVIC_EnableIRQ>
 8008678:	2500      	movs	r5, #0
 800867a:	4b15      	ldr	r3, [pc, #84]	; (80086d0 <HAL_InitTick+0x6c>)
 800867c:	9502      	str	r5, [sp, #8]
 800867e:	6c1a      	ldr	r2, [r3, #64]	; 0x40
 8008680:	4c14      	ldr	r4, [pc, #80]	; (80086d4 <HAL_InitTick+0x70>)
 8008682:	f042 0208 	orr.w	r2, r2, #8
 8008686:	641a      	str	r2, [r3, #64]	; 0x40
 8008688:	6c1b      	ldr	r3, [r3, #64]	; 0x40
 800868a:	f003 0308 	and.w	r3, r3, #8
 800868e:	9302      	str	r3, [sp, #8]
 8008690:	a901      	add	r1, sp, #4
 8008692:	a803      	add	r0, sp, #12
 8008694:	9b02      	ldr	r3, [sp, #8]
 8008696:	f7fa fb93 	bl	8002dc0 <HAL_RCC_GetClockConfig>
 800869a:	f7fa fb71 	bl	8002d80 <HAL_RCC_GetPCLK1Freq>
 800869e:	4b0e      	ldr	r3, [pc, #56]	; (80086d8 <HAL_InitTick+0x74>)
 80086a0:	6023      	str	r3, [r4, #0]
 80086a2:	f240 33e7 	movw	r3, #999	; 0x3e7
 80086a6:	60e3      	str	r3, [r4, #12]
 80086a8:	0040      	lsls	r0, r0, #1
 80086aa:	4b0c      	ldr	r3, [pc, #48]	; (80086dc <HAL_InitTick+0x78>)
 80086ac:	fbb0 f0f3 	udiv	r0, r0, r3
 80086b0:	3801      	subs	r0, #1
 80086b2:	6060      	str	r0, [r4, #4]
 80086b4:	4620      	mov	r0, r4
 80086b6:	6125      	str	r5, [r4, #16]
 80086b8:	60a5      	str	r5, [r4, #8]
 80086ba:	f7fb fbbf 	bl	8003e3c <HAL_TIM_Base_Init>
 80086be:	b920      	cbnz	r0, 80086ca <HAL_InitTick+0x66>
 80086c0:	4620      	mov	r0, r4
 80086c2:	f7fb fa8b 	bl	8003bdc <HAL_TIM_Base_Start_IT>
 80086c6:	b009      	add	sp, #36	; 0x24
 80086c8:	bd30      	pop	{r4, r5, pc}
 80086ca:	2001      	movs	r0, #1
 80086cc:	e7fb      	b.n	80086c6 <HAL_InitTick+0x62>
 80086ce:	bf00      	nop
 80086d0:	40023800 	.word	0x40023800
 80086d4:	20001174 	.word	0x20001174
 80086d8:	40000c00 	.word	0x40000c00
 80086dc:	000f4240 	.word	0x000f4240

080086e0 <HAL_SuspendTick>:
 80086e0:	4b03      	ldr	r3, [pc, #12]	; (80086f0 <HAL_SuspendTick+0x10>)
 80086e2:	681a      	ldr	r2, [r3, #0]
 80086e4:	68d3      	ldr	r3, [r2, #12]
 80086e6:	f023 0301 	bic.w	r3, r3, #1
 80086ea:	60d3      	str	r3, [r2, #12]
 80086ec:	4770      	bx	lr
 80086ee:	bf00      	nop
 80086f0:	20001174 	.word	0x20001174

080086f4 <HAL_ResumeTick>:
 80086f4:	4b03      	ldr	r3, [pc, #12]	; (8008704 <HAL_ResumeTick+0x10>)
 80086f6:	681a      	ldr	r2, [r3, #0]
 80086f8:	68d3      	ldr	r3, [r2, #12]
 80086fa:	f043 0301 	orr.w	r3, r3, #1
 80086fe:	60d3      	str	r3, [r2, #12]
 8008700:	4770      	bx	lr
 8008702:	bf00      	nop
 8008704:	20001174 	.word	0x20001174

08008708 <NMI_Handler>:
 8008708:	4770      	bx	lr

0800870a <HardFault_Handler>:
 800870a:	e7fe      	b.n	800870a <HardFault_Handler>

0800870c <MemManage_Handler>:
 800870c:	e7fe      	b.n	800870c <MemManage_Handler>

0800870e <BusFault_Handler>:
 800870e:	e7fe      	b.n	800870e <BusFault_Handler>

08008710 <UsageFault_Handler>:
 8008710:	e7fe      	b.n	8008710 <UsageFault_Handler>

08008712 <DebugMon_Handler>:
 8008712:	4770      	bx	lr

08008714 <RTC_WKUP_IRQHandler>:
 8008714:	4801      	ldr	r0, [pc, #4]	; (800871c <RTC_WKUP_IRQHandler+0x8>)
 8008716:	f7fb b979 	b.w	8003a0c <HAL_RTCEx_WakeUpTimerIRQHandler>
 800871a:	bf00      	nop
 800871c:	20001154 	.word	0x20001154

08008720 <DMA1_Stream5_IRQHandler>:
 8008720:	4801      	ldr	r0, [pc, #4]	; (8008728 <DMA1_Stream5_IRQHandler+0x8>)
 8008722:	f7f8 be3f 	b.w	80013a4 <HAL_DMA_IRQHandler>
 8008726:	bf00      	nop
 8008728:	200011f4 	.word	0x200011f4

0800872c <DMA1_Stream6_IRQHandler>:
 800872c:	4801      	ldr	r0, [pc, #4]	; (8008734 <DMA1_Stream6_IRQHandler+0x8>)
 800872e:	f7f8 be39 	b.w	80013a4 <HAL_DMA_IRQHandler>
 8008732:	bf00      	nop
 8008734:	20001254 	.word	0x20001254

08008738 <EXTI9_5_IRQHandler>:
 8008738:	2020      	movs	r0, #32
 800873a:	f7f9 badb 	b.w	8001cf4 <HAL_GPIO_EXTI_IRQHandler>
	...

08008740 <USART2_IRQHandler>:
 8008740:	4801      	ldr	r0, [pc, #4]	; (8008748 <USART2_IRQHandler+0x8>)
 8008742:	f7fc bb4d 	b.w	8004de0 <HAL_UART_IRQHandler>
 8008746:	bf00      	nop
 8008748:	200012b4 	.word	0x200012b4

0800874c <EXTI15_10_IRQHandler>:
 800874c:	f44f 5000 	mov.w	r0, #8192	; 0x2000
 8008750:	f7f9 bad0 	b.w	8001cf4 <HAL_GPIO_EXTI_IRQHandler>

08008754 <RTC_Alarm_IRQHandler>:
 8008754:	4801      	ldr	r0, [pc, #4]	; (800875c <RTC_Alarm_IRQHandler+0x8>)
 8008756:	f7fa bcad 	b.w	80030b4 <HAL_RTC_AlarmIRQHandler>
 800875a:	bf00      	nop
 800875c:	20001154 	.word	0x20001154

08008760 <TIM5_IRQHandler>:
 8008760:	4801      	ldr	r0, [pc, #4]	; (8008768 <TIM5_IRQHandler+0x8>)
 8008762:	f7fb ba7a 	b.w	8003c5a <HAL_TIM_IRQHandler>
 8008766:	bf00      	nop
 8008768:	20001174 	.word	0x20001174

0800876c <SYSTEM_DEBUG_assertRecord>:
 800876c:	b538      	push	{r3, r4, r5, lr}
 800876e:	4c10      	ldr	r4, [pc, #64]	; (80087b0 <SYSTEM_DEBUG_assertRecord+0x44>)
 8008770:	23aa      	movs	r3, #170	; 0xaa
 8008772:	2200      	movs	r2, #0
 8008774:	f884 3040 	strb.w	r3, [r4, #64]	; 0x40
 8008778:	460d      	mov	r5, r1
 800877a:	4613      	mov	r3, r2
 800877c:	54a3      	strb	r3, [r4, r2]
 800877e:	3201      	adds	r2, #1
 8008780:	2a3c      	cmp	r2, #60	; 0x3c
 8008782:	d1fb      	bne.n	800877c <SYSTEM_DEBUG_assertRecord+0x10>
 8008784:	4601      	mov	r1, r0
 8008786:	480a      	ldr	r0, [pc, #40]	; (80087b0 <SYSTEM_DEBUG_assertRecord+0x44>)
 8008788:	f001 f86c 	bl	8009864 <strncpy>
 800878c:	63e5      	str	r5, [r4, #60]	; 0x3c
 800878e:	f7fe fba5 	bl	8006edc <COM_getTxBusyFlag>
 8008792:	2800      	cmp	r0, #0
 8008794:	d1fb      	bne.n	800878e <SYSTEM_DEBUG_assertRecord+0x22>
 8008796:	f3bf 8f4f 	dsb	sy
 800879a:	4906      	ldr	r1, [pc, #24]	; (80087b4 <SYSTEM_DEBUG_assertRecord+0x48>)
 800879c:	4b06      	ldr	r3, [pc, #24]	; (80087b8 <SYSTEM_DEBUG_assertRecord+0x4c>)
 800879e:	68ca      	ldr	r2, [r1, #12]
 80087a0:	f402 62e0 	and.w	r2, r2, #1792	; 0x700
 80087a4:	4313      	orrs	r3, r2
 80087a6:	60cb      	str	r3, [r1, #12]
 80087a8:	f3bf 8f4f 	dsb	sy
 80087ac:	bf00      	nop
 80087ae:	e7fd      	b.n	80087ac <SYSTEM_DEBUG_assertRecord+0x40>
 80087b0:	20000000 	.word	0x20000000
 80087b4:	e000ed00 	.word	0xe000ed00
 80087b8:	05fa0004 	.word	0x05fa0004

080087bc <SYSTEM_DEBUG_assertMsgPrint>:
 80087bc:	b500      	push	{lr}
 80087be:	4a08      	ldr	r2, [pc, #32]	; (80087e0 <SYSTEM_DEBUG_assertMsgPrint+0x24>)
 80087c0:	f892 3040 	ldrb.w	r3, [r2, #64]	; 0x40
 80087c4:	2baa      	cmp	r3, #170	; 0xaa
 80087c6:	b09b      	sub	sp, #108	; 0x6c
 80087c8:	d107      	bne.n	80087da <SYSTEM_DEBUG_assertMsgPrint+0x1e>
 80087ca:	6bd3      	ldr	r3, [r2, #60]	; 0x3c
 80087cc:	4905      	ldr	r1, [pc, #20]	; (80087e4 <SYSTEM_DEBUG_assertMsgPrint+0x28>)
 80087ce:	a801      	add	r0, sp, #4
 80087d0:	f001 f816 	bl	8009800 <siprintf>
 80087d4:	a801      	add	r0, sp, #4
 80087d6:	f7fe fb1f 	bl	8006e18 <COM_uartPrint>
 80087da:	b01b      	add	sp, #108	; 0x6c
 80087dc:	f85d fb04 	ldr.w	pc, [sp], #4
 80087e0:	20000000 	.word	0x20000000
 80087e4:	0800b7d8 	.word	0x0800b7d8

080087e8 <SYSTEM_DEBUG_assertResetFlag>:
 80087e8:	4b02      	ldr	r3, [pc, #8]	; (80087f4 <SYSTEM_DEBUG_assertResetFlag+0xc>)
 80087ea:	2255      	movs	r2, #85	; 0x55
 80087ec:	f883 2040 	strb.w	r2, [r3, #64]	; 0x40
 80087f0:	4770      	bx	lr
 80087f2:	bf00      	nop
 80087f4:	20000000 	.word	0x20000000

080087f8 <SYSTEM_DEBUG_resetCauseGet>:
 80087f8:	4b15      	ldr	r3, [pc, #84]	; (8008850 <SYSTEM_DEBUG_resetCauseGet+0x58>)
 80087fa:	6f5a      	ldr	r2, [r3, #116]	; 0x74
 80087fc:	2a00      	cmp	r2, #0
 80087fe:	db1a      	blt.n	8008836 <SYSTEM_DEBUG_resetCauseGet+0x3e>
 8008800:	6f5a      	ldr	r2, [r3, #116]	; 0x74
 8008802:	0052      	lsls	r2, r2, #1
 8008804:	d419      	bmi.n	800883a <SYSTEM_DEBUG_resetCauseGet+0x42>
 8008806:	6f5a      	ldr	r2, [r3, #116]	; 0x74
 8008808:	0091      	lsls	r1, r2, #2
 800880a:	d418      	bmi.n	800883e <SYSTEM_DEBUG_resetCauseGet+0x46>
 800880c:	6f5a      	ldr	r2, [r3, #116]	; 0x74
 800880e:	00d2      	lsls	r2, r2, #3
 8008810:	d417      	bmi.n	8008842 <SYSTEM_DEBUG_resetCauseGet+0x4a>
 8008812:	6f5a      	ldr	r2, [r3, #116]	; 0x74
 8008814:	0111      	lsls	r1, r2, #4
 8008816:	d416      	bmi.n	8008846 <SYSTEM_DEBUG_resetCauseGet+0x4e>
 8008818:	6f5a      	ldr	r2, [r3, #116]	; 0x74
 800881a:	0152      	lsls	r2, r2, #5
 800881c:	d415      	bmi.n	800884a <SYSTEM_DEBUG_resetCauseGet+0x52>
 800881e:	6f5b      	ldr	r3, [r3, #116]	; 0x74
 8008820:	f013 7f00 	tst.w	r3, #33554432	; 0x2000000
 8008824:	bf14      	ite	ne
 8008826:	2007      	movne	r0, #7
 8008828:	2000      	moveq	r0, #0
 800882a:	4a09      	ldr	r2, [pc, #36]	; (8008850 <SYSTEM_DEBUG_resetCauseGet+0x58>)
 800882c:	6f53      	ldr	r3, [r2, #116]	; 0x74
 800882e:	f043 7380 	orr.w	r3, r3, #16777216	; 0x1000000
 8008832:	6753      	str	r3, [r2, #116]	; 0x74
 8008834:	4770      	bx	lr
 8008836:	2001      	movs	r0, #1
 8008838:	e7f7      	b.n	800882a <SYSTEM_DEBUG_resetCauseGet+0x32>
 800883a:	2002      	movs	r0, #2
 800883c:	e7f5      	b.n	800882a <SYSTEM_DEBUG_resetCauseGet+0x32>
 800883e:	2003      	movs	r0, #3
 8008840:	e7f3      	b.n	800882a <SYSTEM_DEBUG_resetCauseGet+0x32>
 8008842:	2004      	movs	r0, #4
 8008844:	e7f1      	b.n	800882a <SYSTEM_DEBUG_resetCauseGet+0x32>
 8008846:	2005      	movs	r0, #5
 8008848:	e7ef      	b.n	800882a <SYSTEM_DEBUG_resetCauseGet+0x32>
 800884a:	2006      	movs	r0, #6
 800884c:	e7ed      	b.n	800882a <SYSTEM_DEBUG_resetCauseGet+0x32>
 800884e:	bf00      	nop
 8008850:	40023800 	.word	0x40023800

08008854 <SYSTEM_DEBUG_printResetCause>:
 8008854:	b500      	push	{lr}
 8008856:	b09b      	sub	sp, #108	; 0x6c
 8008858:	f7ff ffce 	bl	80087f8 <SYSTEM_DEBUG_resetCauseGet>
 800885c:	2807      	cmp	r0, #7
 800885e:	bf96      	itet	ls
 8008860:	4b06      	ldrls	r3, [pc, #24]	; (800887c <SYSTEM_DEBUG_printResetCause+0x28>)
 8008862:	4a07      	ldrhi	r2, [pc, #28]	; (8008880 <SYSTEM_DEBUG_printResetCause+0x2c>)
 8008864:	f853 2020 	ldrls.w	r2, [r3, r0, lsl #2]
 8008868:	4906      	ldr	r1, [pc, #24]	; (8008884 <SYSTEM_DEBUG_printResetCause+0x30>)
 800886a:	a801      	add	r0, sp, #4
 800886c:	f000 ffc8 	bl	8009800 <siprintf>
 8008870:	a801      	add	r0, sp, #4
 8008872:	f7fe fad1 	bl	8006e18 <COM_uartPrint>
 8008876:	b01b      	add	sp, #108	; 0x6c
 8008878:	f85d fb04 	ldr.w	pc, [sp], #4
 800887c:	0800b7b8 	.word	0x0800b7b8
 8008880:	0800b831 	.word	0x0800b831
 8008884:	0800b835 	.word	0x0800b835

08008888 <SYSTEM_DEBUG_enterStopMode>:
 8008888:	b508      	push	{r3, lr}
 800888a:	ed2d 8b02 	vpush	{d8}
 800888e:	ee08 0a10 	vmov	s16, r0
 8008892:	4816      	ldr	r0, [pc, #88]	; (80088ec <SYSTEM_DEBUG_enterStopMode+0x64>)
 8008894:	f7fe fac0 	bl	8006e18 <COM_uartPrint>
 8008898:	eeb8 8a48 	vcvt.f32.u32	s16, s16
 800889c:	ed9f 7a14 	vldr	s14, [pc, #80]	; 80088f0 <SYSTEM_DEBUG_enterStopMode+0x68>
 80088a0:	4814      	ldr	r0, [pc, #80]	; (80088f4 <SYSTEM_DEBUG_enterStopMode+0x6c>)
 80088a2:	eec8 7a07 	vdiv.f32	s15, s16, s14
 80088a6:	2200      	movs	r2, #0
 80088a8:	eefc 7ae7 	vcvt.u32.f32	s15, s15
 80088ac:	ee17 1a90 	vmov	r1, s15
 80088b0:	f7fb f802 	bl	80038b8 <HAL_RTCEx_SetWakeUpTimer_IT>
 80088b4:	b108      	cbz	r0, 80088ba <SYSTEM_DEBUG_enterStopMode+0x32>
 80088b6:	f7ff fd99 	bl	80083ec <Error_Handler>
 80088ba:	f7fe fb0f 	bl	8006edc <COM_getTxBusyFlag>
 80088be:	2800      	cmp	r0, #0
 80088c0:	d1fb      	bne.n	80088ba <SYSTEM_DEBUG_enterStopMode+0x32>
 80088c2:	f7ff ff0d 	bl	80086e0 <HAL_SuspendTick>
 80088c6:	2101      	movs	r1, #1
 80088c8:	4608      	mov	r0, r1
 80088ca:	f7f9 fedd 	bl	8002688 <HAL_PWR_EnterSTOPMode>
 80088ce:	f7ff fd95 	bl	80083fc <SystemClock_Config>
 80088d2:	f7ff ff0f 	bl	80086f4 <HAL_ResumeTick>
 80088d6:	4807      	ldr	r0, [pc, #28]	; (80088f4 <SYSTEM_DEBUG_enterStopMode+0x6c>)
 80088d8:	f7fb f864 	bl	80039a4 <HAL_RTCEx_DeactivateWakeUpTimer>
 80088dc:	ecbd 8b02 	vpop	{d8}
 80088e0:	4805      	ldr	r0, [pc, #20]	; (80088f8 <SYSTEM_DEBUG_enterStopMode+0x70>)
 80088e2:	e8bd 4008 	ldmia.w	sp!, {r3, lr}
 80088e6:	f7fe ba97 	b.w	8006e18 <COM_uartPrint>
 80088ea:	bf00      	nop
 80088ec:	0800b80e 	.word	0x0800b80e
 80088f0:	39fba882 	.word	0x39fba882
 80088f4:	20001154 	.word	0x20001154
 80088f8:	0800b81f 	.word	0x0800b81f

080088fc <SYSTEM_DEBUG_enterStandbyMode>:
 80088fc:	4a10      	ldr	r2, [pc, #64]	; (8008940 <SYSTEM_DEBUG_enterStandbyMode+0x44>)
 80088fe:	6813      	ldr	r3, [r2, #0]
 8008900:	b510      	push	{r4, lr}
 8008902:	4c10      	ldr	r4, [pc, #64]	; (8008944 <SYSTEM_DEBUG_enterStandbyMode+0x48>)
 8008904:	f043 0304 	orr.w	r3, r3, #4
 8008908:	6013      	str	r3, [r2, #0]
 800890a:	6822      	ldr	r2, [r4, #0]
 800890c:	68d3      	ldr	r3, [r2, #12]
 800890e:	b2db      	uxtb	r3, r3
 8008910:	f463 6390 	orn	r3, r3, #1152	; 0x480
 8008914:	60d3      	str	r3, [r2, #12]
 8008916:	f44f 7080 	mov.w	r0, #256	; 0x100
 800891a:	f7f9 fe8d 	bl	8002638 <HAL_PWR_EnableWakeUpPin>
 800891e:	2200      	movs	r2, #0
 8008920:	f242 7110 	movw	r1, #10000	; 0x2710
 8008924:	4620      	mov	r0, r4
 8008926:	f7fa ffc7 	bl	80038b8 <HAL_RTCEx_SetWakeUpTimer_IT>
 800892a:	b108      	cbz	r0, 8008930 <SYSTEM_DEBUG_enterStandbyMode+0x34>
 800892c:	f7ff fd5e 	bl	80083ec <Error_Handler>
 8008930:	4805      	ldr	r0, [pc, #20]	; (8008948 <SYSTEM_DEBUG_enterStandbyMode+0x4c>)
 8008932:	f7fe fa71 	bl	8006e18 <COM_uartPrint>
 8008936:	e8bd 4010 	ldmia.w	sp!, {r4, lr}
 800893a:	f7f9 bed5 	b.w	80026e8 <HAL_PWR_EnterSTANDBYMode>
 800893e:	bf00      	nop
 8008940:	40007000 	.word	0x40007000
 8008944:	20001154 	.word	0x20001154
 8008948:	0800b7fa 	.word	0x0800b7fa

0800894c <SYSTEM_DEBUG_wakeupStandbyMode>:
 800894c:	b508      	push	{r3, lr}
 800894e:	4b0a      	ldr	r3, [pc, #40]	; (8008978 <SYSTEM_DEBUG_wakeupStandbyMode+0x2c>)
 8008950:	685a      	ldr	r2, [r3, #4]
 8008952:	0792      	lsls	r2, r2, #30
 8008954:	d50f      	bpl.n	8008976 <SYSTEM_DEBUG_wakeupStandbyMode+0x2a>
 8008956:	681a      	ldr	r2, [r3, #0]
 8008958:	4808      	ldr	r0, [pc, #32]	; (800897c <SYSTEM_DEBUG_wakeupStandbyMode+0x30>)
 800895a:	f042 0208 	orr.w	r2, r2, #8
 800895e:	601a      	str	r2, [r3, #0]
 8008960:	f7fe fa5a 	bl	8006e18 <COM_uartPrint>
 8008964:	f44f 7080 	mov.w	r0, #256	; 0x100
 8008968:	f7f9 fe7a 	bl	8002660 <HAL_PWR_DisableWakeUpPin>
 800896c:	4804      	ldr	r0, [pc, #16]	; (8008980 <SYSTEM_DEBUG_wakeupStandbyMode+0x34>)
 800896e:	e8bd 4008 	ldmia.w	sp!, {r3, lr}
 8008972:	f7fb b817 	b.w	80039a4 <HAL_RTCEx_DeactivateWakeUpTimer>
 8008976:	bd08      	pop	{r3, pc}
 8008978:	40007000 	.word	0x40007000
 800897c:	0800b854 	.word	0x0800b854
 8008980:	20001154 	.word	0x20001154

08008984 <HAL_UART_RxCpltCallback>:
 8008984:	b508      	push	{r3, lr}
 8008986:	f7fe fa9f 	bl	8006ec8 <COM_halUartReceiveDma>
 800898a:	f7fe faad 	bl	8006ee8 <COM_charHandler>
 800898e:	b130      	cbz	r0, 800899e <HAL_UART_RxCpltCallback+0x1a>
 8008990:	4b03      	ldr	r3, [pc, #12]	; (80089a0 <HAL_UART_RxCpltCallback+0x1c>)
 8008992:	2101      	movs	r1, #1
 8008994:	6818      	ldr	r0, [r3, #0]
 8008996:	e8bd 4008 	ldmia.w	sp!, {r3, lr}
 800899a:	f7fc bb63 	b.w	8005064 <osSignalSet>
 800899e:	bd08      	pop	{r3, pc}
 80089a0:	200010e8 	.word	0x200010e8

080089a4 <HAL_GPIO_EXTI_Callback>:
 80089a4:	2820      	cmp	r0, #32
 80089a6:	d104      	bne.n	80089b2 <HAL_GPIO_EXTI_Callback+0xe>
 80089a8:	4b02      	ldr	r3, [pc, #8]	; (80089b4 <HAL_GPIO_EXTI_Callback+0x10>)
 80089aa:	2102      	movs	r1, #2
 80089ac:	6818      	ldr	r0, [r3, #0]
 80089ae:	f7fc bb59 	b.w	8005064 <osSignalSet>
 80089b2:	4770      	bx	lr
 80089b4:	200010e8 	.word	0x200010e8

080089b8 <HAL_RTC_AlarmAEventCallback>:
 80089b8:	4801      	ldr	r0, [pc, #4]	; (80089c0 <HAL_RTC_AlarmAEventCallback+0x8>)
 80089ba:	f7fe ba2d 	b.w	8006e18 <COM_uartPrint>
 80089be:	bf00      	nop
 80089c0:	0800b922 	.word	0x0800b922

080089c4 <Timer01Callback>:
 80089c4:	4801      	ldr	r0, [pc, #4]	; (80089cc <Timer01Callback+0x8>)
 80089c6:	f7fe ba27 	b.w	8006e18 <COM_uartPrint>
 80089ca:	bf00      	nop
 80089cc:	0800b928 	.word	0x0800b928

080089d0 <SystemInit>:
 80089d0:	4b05      	ldr	r3, [pc, #20]	; (80089e8 <SystemInit+0x18>)
 80089d2:	f8d3 2088 	ldr.w	r2, [r3, #136]	; 0x88
 80089d6:	f442 0270 	orr.w	r2, r2, #15728640	; 0xf00000
 80089da:	f8c3 2088 	str.w	r2, [r3, #136]	; 0x88
 80089de:	f04f 6200 	mov.w	r2, #134217728	; 0x8000000
 80089e2:	609a      	str	r2, [r3, #8]
 80089e4:	4770      	bx	lr
 80089e6:	bf00      	nop
 80089e8:	e000ed00 	.word	0xe000ed00

080089ec <HAL_TIM_Base_MspInit>:
 80089ec:	6802      	ldr	r2, [r0, #0]
 80089ee:	4b09      	ldr	r3, [pc, #36]	; (8008a14 <HAL_TIM_Base_MspInit+0x28>)
 80089f0:	429a      	cmp	r2, r3
 80089f2:	b082      	sub	sp, #8
 80089f4:	d10b      	bne.n	8008a0e <HAL_TIM_Base_MspInit+0x22>
 80089f6:	2300      	movs	r3, #0
 80089f8:	9301      	str	r3, [sp, #4]
 80089fa:	4b07      	ldr	r3, [pc, #28]	; (8008a18 <HAL_TIM_Base_MspInit+0x2c>)
 80089fc:	6c1a      	ldr	r2, [r3, #64]	; 0x40
 80089fe:	f042 0202 	orr.w	r2, r2, #2
 8008a02:	641a      	str	r2, [r3, #64]	; 0x40
 8008a04:	6c1b      	ldr	r3, [r3, #64]	; 0x40
 8008a06:	f003 0302 	and.w	r3, r3, #2
 8008a0a:	9301      	str	r3, [sp, #4]
 8008a0c:	9b01      	ldr	r3, [sp, #4]
 8008a0e:	b002      	add	sp, #8
 8008a10:	4770      	bx	lr
 8008a12:	bf00      	nop
 8008a14:	40000400 	.word	0x40000400
 8008a18:	40023800 	.word	0x40023800

08008a1c <HAL_TIM_MspPostInit>:
 8008a1c:	b510      	push	{r4, lr}
 8008a1e:	4604      	mov	r4, r0
 8008a20:	b086      	sub	sp, #24
 8008a22:	2214      	movs	r2, #20
 8008a24:	2100      	movs	r1, #0
 8008a26:	a801      	add	r0, sp, #4
 8008a28:	f000 f973 	bl	8008d12 <memset>
 8008a2c:	6822      	ldr	r2, [r4, #0]
 8008a2e:	4b0d      	ldr	r3, [pc, #52]	; (8008a64 <HAL_TIM_MspPostInit+0x48>)
 8008a30:	429a      	cmp	r2, r3
 8008a32:	d114      	bne.n	8008a5e <HAL_TIM_MspPostInit+0x42>
 8008a34:	2300      	movs	r3, #0
 8008a36:	9300      	str	r3, [sp, #0]
 8008a38:	4b0b      	ldr	r3, [pc, #44]	; (8008a68 <HAL_TIM_MspPostInit+0x4c>)
 8008a3a:	480c      	ldr	r0, [pc, #48]	; (8008a6c <HAL_TIM_MspPostInit+0x50>)
 8008a3c:	6b1a      	ldr	r2, [r3, #48]	; 0x30
 8008a3e:	f042 0201 	orr.w	r2, r2, #1
 8008a42:	631a      	str	r2, [r3, #48]	; 0x30
 8008a44:	6b1b      	ldr	r3, [r3, #48]	; 0x30
 8008a46:	f003 0301 	and.w	r3, r3, #1
 8008a4a:	9300      	str	r3, [sp, #0]
 8008a4c:	9b00      	ldr	r3, [sp, #0]
 8008a4e:	2240      	movs	r2, #64	; 0x40
 8008a50:	2302      	movs	r3, #2
 8008a52:	a901      	add	r1, sp, #4
 8008a54:	e9cd 2301 	strd	r2, r3, [sp, #4]
 8008a58:	9305      	str	r3, [sp, #20]
 8008a5a:	f7f9 f801 	bl	8001a60 <HAL_GPIO_Init>
 8008a5e:	b006      	add	sp, #24
 8008a60:	bd10      	pop	{r4, pc}
 8008a62:	bf00      	nop
 8008a64:	40000400 	.word	0x40000400
 8008a68:	40023800 	.word	0x40023800
 8008a6c:	40020000 	.word	0x40020000

08008a70 <MX_TIM3_Init>:
 8008a70:	b510      	push	{r4, lr}
 8008a72:	b08e      	sub	sp, #56	; 0x38
 8008a74:	2210      	movs	r2, #16
 8008a76:	2100      	movs	r1, #0
 8008a78:	a803      	add	r0, sp, #12
 8008a7a:	f000 f94a 	bl	8008d12 <memset>
 8008a7e:	2400      	movs	r4, #0
 8008a80:	221c      	movs	r2, #28
 8008a82:	eb0d 0002 	add.w	r0, sp, r2
 8008a86:	4621      	mov	r1, r4
 8008a88:	e9cd 4401 	strd	r4, r4, [sp, #4]
 8008a8c:	f000 f941 	bl	8008d12 <memset>
 8008a90:	481d      	ldr	r0, [pc, #116]	; (8008b08 <MX_TIM3_Init+0x98>)
 8008a92:	4a1e      	ldr	r2, [pc, #120]	; (8008b0c <MX_TIM3_Init+0x9c>)
 8008a94:	6084      	str	r4, [r0, #8]
 8008a96:	2353      	movs	r3, #83	; 0x53
 8008a98:	e9c0 2300 	strd	r2, r3, [r0]
 8008a9c:	2363      	movs	r3, #99	; 0x63
 8008a9e:	e9c0 3403 	strd	r3, r4, [r0, #12]
 8008aa2:	6184      	str	r4, [r0, #24]
 8008aa4:	f7fb f9ca 	bl	8003e3c <HAL_TIM_Base_Init>
 8008aa8:	b108      	cbz	r0, 8008aae <MX_TIM3_Init+0x3e>
 8008aaa:	f7ff fc9f 	bl	80083ec <Error_Handler>
 8008aae:	f44f 5380 	mov.w	r3, #4096	; 0x1000
 8008ab2:	a903      	add	r1, sp, #12
 8008ab4:	4814      	ldr	r0, [pc, #80]	; (8008b08 <MX_TIM3_Init+0x98>)
 8008ab6:	9303      	str	r3, [sp, #12]
 8008ab8:	f7fb fbea 	bl	8004290 <HAL_TIM_ConfigClockSource>
 8008abc:	b108      	cbz	r0, 8008ac2 <MX_TIM3_Init+0x52>
 8008abe:	f7ff fc95 	bl	80083ec <Error_Handler>
 8008ac2:	4811      	ldr	r0, [pc, #68]	; (8008b08 <MX_TIM3_Init+0x98>)
 8008ac4:	f7fb fa22 	bl	8003f0c <HAL_TIM_PWM_Init>
 8008ac8:	b108      	cbz	r0, 8008ace <MX_TIM3_Init+0x5e>
 8008aca:	f7ff fc8f 	bl	80083ec <Error_Handler>
 8008ace:	2400      	movs	r4, #0
 8008ad0:	a901      	add	r1, sp, #4
 8008ad2:	480d      	ldr	r0, [pc, #52]	; (8008b08 <MX_TIM3_Init+0x98>)
 8008ad4:	e9cd 4401 	strd	r4, r4, [sp, #4]
 8008ad8:	f7fb fed8 	bl	800488c <HAL_TIMEx_MasterConfigSynchronization>
 8008adc:	b108      	cbz	r0, 8008ae2 <MX_TIM3_Init+0x72>
 8008ade:	f7ff fc85 	bl	80083ec <Error_Handler>
 8008ae2:	2360      	movs	r3, #96	; 0x60
 8008ae4:	2200      	movs	r2, #0
 8008ae6:	a907      	add	r1, sp, #28
 8008ae8:	4807      	ldr	r0, [pc, #28]	; (8008b08 <MX_TIM3_Init+0x98>)
 8008aea:	9409      	str	r4, [sp, #36]	; 0x24
 8008aec:	e9cd 3407 	strd	r3, r4, [sp, #28]
 8008af0:	940b      	str	r4, [sp, #44]	; 0x2c
 8008af2:	f7fb fac1 	bl	8004078 <HAL_TIM_PWM_ConfigChannel>
 8008af6:	b108      	cbz	r0, 8008afc <MX_TIM3_Init+0x8c>
 8008af8:	f7ff fc78 	bl	80083ec <Error_Handler>
 8008afc:	4802      	ldr	r0, [pc, #8]	; (8008b08 <MX_TIM3_Init+0x98>)
 8008afe:	f7ff ff8d 	bl	8008a1c <HAL_TIM_MspPostInit>
 8008b02:	b00e      	add	sp, #56	; 0x38
 8008b04:	bd10      	pop	{r4, pc}
 8008b06:	bf00      	nop
 8008b08:	200011b4 	.word	0x200011b4
 8008b0c:	40000400 	.word	0x40000400

08008b10 <MX_USART2_UART_Init>:
 8008b10:	480b      	ldr	r0, [pc, #44]	; (8008b40 <MX_USART2_UART_Init+0x30>)
 8008b12:	4a0c      	ldr	r2, [pc, #48]	; (8008b44 <MX_USART2_UART_Init+0x34>)
 8008b14:	b508      	push	{r3, lr}
 8008b16:	f44f 33e1 	mov.w	r3, #115200	; 0x1c200
 8008b1a:	e9c0 2300 	strd	r2, r3, [r0]
 8008b1e:	2300      	movs	r3, #0
 8008b20:	220c      	movs	r2, #12
 8008b22:	e9c0 3302 	strd	r3, r3, [r0, #8]
 8008b26:	6103      	str	r3, [r0, #16]
 8008b28:	e9c0 2305 	strd	r2, r3, [r0, #20]
 8008b2c:	61c3      	str	r3, [r0, #28]
 8008b2e:	f7fb ffc1 	bl	8004ab4 <HAL_UART_Init>
 8008b32:	b118      	cbz	r0, 8008b3c <MX_USART2_UART_Init+0x2c>
 8008b34:	e8bd 4008 	ldmia.w	sp!, {r3, lr}
 8008b38:	f7ff bc58 	b.w	80083ec <Error_Handler>
 8008b3c:	bd08      	pop	{r3, pc}
 8008b3e:	bf00      	nop
 8008b40:	200012b4 	.word	0x200012b4
 8008b44:	40004400 	.word	0x40004400

08008b48 <HAL_UART_MspInit>:
 8008b48:	b570      	push	{r4, r5, r6, lr}
 8008b4a:	4606      	mov	r6, r0
 8008b4c:	b088      	sub	sp, #32
 8008b4e:	2214      	movs	r2, #20
 8008b50:	2100      	movs	r1, #0
 8008b52:	a803      	add	r0, sp, #12
 8008b54:	f000 f8dd 	bl	8008d12 <memset>
 8008b58:	6832      	ldr	r2, [r6, #0]
 8008b5a:	4b31      	ldr	r3, [pc, #196]	; (8008c20 <HAL_UART_MspInit+0xd8>)
 8008b5c:	429a      	cmp	r2, r3
 8008b5e:	d15d      	bne.n	8008c1c <HAL_UART_MspInit+0xd4>
 8008b60:	2500      	movs	r5, #0
 8008b62:	f503 33fa 	add.w	r3, r3, #128000	; 0x1f400
 8008b66:	9501      	str	r5, [sp, #4]
 8008b68:	6c1a      	ldr	r2, [r3, #64]	; 0x40
 8008b6a:	f442 3200 	orr.w	r2, r2, #131072	; 0x20000
 8008b6e:	641a      	str	r2, [r3, #64]	; 0x40
 8008b70:	6c1a      	ldr	r2, [r3, #64]	; 0x40
 8008b72:	f402 3200 	and.w	r2, r2, #131072	; 0x20000
 8008b76:	9201      	str	r2, [sp, #4]
 8008b78:	9a01      	ldr	r2, [sp, #4]
 8008b7a:	9502      	str	r5, [sp, #8]
 8008b7c:	6b1a      	ldr	r2, [r3, #48]	; 0x30
 8008b7e:	f042 0201 	orr.w	r2, r2, #1
 8008b82:	631a      	str	r2, [r3, #48]	; 0x30
 8008b84:	6b1b      	ldr	r3, [r3, #48]	; 0x30
 8008b86:	f003 0301 	and.w	r3, r3, #1
 8008b8a:	9302      	str	r3, [sp, #8]
 8008b8c:	9b02      	ldr	r3, [sp, #8]
 8008b8e:	200c      	movs	r0, #12
 8008b90:	2302      	movs	r3, #2
 8008b92:	e9cd 0303 	strd	r0, r3, [sp, #12]
 8008b96:	2403      	movs	r4, #3
 8008b98:	2307      	movs	r3, #7
 8008b9a:	4822      	ldr	r0, [pc, #136]	; (8008c24 <HAL_UART_MspInit+0xdc>)
 8008b9c:	a903      	add	r1, sp, #12
 8008b9e:	e9cd 4306 	strd	r4, r3, [sp, #24]
 8008ba2:	f7f8 ff5d 	bl	8001a60 <HAL_GPIO_Init>
 8008ba6:	4c20      	ldr	r4, [pc, #128]	; (8008c28 <HAL_UART_MspInit+0xe0>)
 8008ba8:	f8df c088 	ldr.w	ip, [pc, #136]	; 8008c34 <HAL_UART_MspInit+0xec>
 8008bac:	f04f 6300 	mov.w	r3, #134217728	; 0x8000000
 8008bb0:	e9c4 c300 	strd	ip, r3, [r4]
 8008bb4:	4620      	mov	r0, r4
 8008bb6:	f44f 6380 	mov.w	r3, #1024	; 0x400
 8008bba:	e9c4 5502 	strd	r5, r5, [r4, #8]
 8008bbe:	e9c4 3504 	strd	r3, r5, [r4, #16]
 8008bc2:	e9c4 5506 	strd	r5, r5, [r4, #24]
 8008bc6:	e9c4 5508 	strd	r5, r5, [r4, #32]
 8008bca:	f7f8 fa61 	bl	8001090 <HAL_DMA_Init>
 8008bce:	b108      	cbz	r0, 8008bd4 <HAL_UART_MspInit+0x8c>
 8008bd0:	f7ff fc0c 	bl	80083ec <Error_Handler>
 8008bd4:	6374      	str	r4, [r6, #52]	; 0x34
 8008bd6:	4a15      	ldr	r2, [pc, #84]	; (8008c2c <HAL_UART_MspInit+0xe4>)
 8008bd8:	63a6      	str	r6, [r4, #56]	; 0x38
 8008bda:	4c15      	ldr	r4, [pc, #84]	; (8008c30 <HAL_UART_MspInit+0xe8>)
 8008bdc:	f04f 6300 	mov.w	r3, #134217728	; 0x8000000
 8008be0:	e9c4 2300 	strd	r2, r3, [r4]
 8008be4:	2140      	movs	r1, #64	; 0x40
 8008be6:	2300      	movs	r3, #0
 8008be8:	f44f 6280 	mov.w	r2, #1024	; 0x400
 8008bec:	4620      	mov	r0, r4
 8008bee:	e9c4 1302 	strd	r1, r3, [r4, #8]
 8008bf2:	e9c4 2304 	strd	r2, r3, [r4, #16]
 8008bf6:	e9c4 3306 	strd	r3, r3, [r4, #24]
 8008bfa:	e9c4 3308 	strd	r3, r3, [r4, #32]
 8008bfe:	f7f8 fa47 	bl	8001090 <HAL_DMA_Init>
 8008c02:	b108      	cbz	r0, 8008c08 <HAL_UART_MspInit+0xc0>
 8008c04:	f7ff fbf2 	bl	80083ec <Error_Handler>
 8008c08:	6334      	str	r4, [r6, #48]	; 0x30
 8008c0a:	2026      	movs	r0, #38	; 0x26
 8008c0c:	2200      	movs	r2, #0
 8008c0e:	2105      	movs	r1, #5
 8008c10:	63a6      	str	r6, [r4, #56]	; 0x38
 8008c12:	f7f8 f99b 	bl	8000f4c <HAL_NVIC_SetPriority>
 8008c16:	2026      	movs	r0, #38	; 0x26
 8008c18:	f7f8 f9dc 	bl	8000fd4 <HAL_NVIC_EnableIRQ>
 8008c1c:	b008      	add	sp, #32
 8008c1e:	bd70      	pop	{r4, r5, r6, pc}
 8008c20:	40004400 	.word	0x40004400
 8008c24:	40020000 	.word	0x40020000
 8008c28:	200011f4 	.word	0x200011f4
 8008c2c:	400260a0 	.word	0x400260a0
 8008c30:	20001254 	.word	0x20001254
 8008c34:	40026088 	.word	0x40026088

08008c38 <Reset_Handler>:
 8008c38:	f8df d034 	ldr.w	sp, [pc, #52]	; 8008c70 <LoopFillZerobss+0x14>
 8008c3c:	2100      	movs	r1, #0
 8008c3e:	e003      	b.n	8008c48 <LoopCopyDataInit>

08008c40 <CopyDataInit>:
 8008c40:	4b0c      	ldr	r3, [pc, #48]	; (8008c74 <LoopFillZerobss+0x18>)
 8008c42:	585b      	ldr	r3, [r3, r1]
 8008c44:	5043      	str	r3, [r0, r1]
 8008c46:	3104      	adds	r1, #4

08008c48 <LoopCopyDataInit>:
 8008c48:	480b      	ldr	r0, [pc, #44]	; (8008c78 <LoopFillZerobss+0x1c>)
 8008c4a:	4b0c      	ldr	r3, [pc, #48]	; (8008c7c <LoopFillZerobss+0x20>)
 8008c4c:	1842      	adds	r2, r0, r1
 8008c4e:	429a      	cmp	r2, r3
 8008c50:	d3f6      	bcc.n	8008c40 <CopyDataInit>
 8008c52:	4a0b      	ldr	r2, [pc, #44]	; (8008c80 <LoopFillZerobss+0x24>)
 8008c54:	e002      	b.n	8008c5c <LoopFillZerobss>

08008c56 <FillZerobss>:
 8008c56:	2300      	movs	r3, #0
 8008c58:	f842 3b04 	str.w	r3, [r2], #4

08008c5c <LoopFillZerobss>:
 8008c5c:	4b09      	ldr	r3, [pc, #36]	; (8008c84 <LoopFillZerobss+0x28>)
 8008c5e:	429a      	cmp	r2, r3
 8008c60:	d3f9      	bcc.n	8008c56 <FillZerobss>
 8008c62:	f7ff feb5 	bl	80089d0 <SystemInit>
 8008c66:	f000 f815 	bl	8008c94 <__libc_init_array>
 8008c6a:	f7ff fc21 	bl	80084b0 <main>
 8008c6e:	4770      	bx	lr
 8008c70:	20020000 	.word	0x20020000
 8008c74:	0800bc20 	.word	0x0800bc20
 8008c78:	20000080 	.word	0x20000080
 8008c7c:	20000264 	.word	0x20000264
 8008c80:	20000264 	.word	0x20000264
 8008c84:	200012f4 	.word	0x200012f4

08008c88 <ADC_IRQHandler>:
 8008c88:	e7fe      	b.n	8008c88 <ADC_IRQHandler>

08008c8a <atoi>:
 8008c8a:	220a      	movs	r2, #10
 8008c8c:	2100      	movs	r1, #0
 8008c8e:	f000 becf 	b.w	8009a30 <strtol>
	...

08008c94 <__libc_init_array>:
 8008c94:	b570      	push	{r4, r5, r6, lr}
 8008c96:	4e0d      	ldr	r6, [pc, #52]	; (8008ccc <__libc_init_array+0x38>)
 8008c98:	4c0d      	ldr	r4, [pc, #52]	; (8008cd0 <__libc_init_array+0x3c>)
 8008c9a:	1ba4      	subs	r4, r4, r6
 8008c9c:	10a4      	asrs	r4, r4, #2
 8008c9e:	2500      	movs	r5, #0
 8008ca0:	42a5      	cmp	r5, r4
 8008ca2:	d109      	bne.n	8008cb8 <__libc_init_array+0x24>
 8008ca4:	4e0b      	ldr	r6, [pc, #44]	; (8008cd4 <__libc_init_array+0x40>)
 8008ca6:	4c0c      	ldr	r4, [pc, #48]	; (8008cd8 <__libc_init_array+0x44>)
 8008ca8:	f002 f9d2 	bl	800b050 <_init>
 8008cac:	1ba4      	subs	r4, r4, r6
 8008cae:	10a4      	asrs	r4, r4, #2
 8008cb0:	2500      	movs	r5, #0
 8008cb2:	42a5      	cmp	r5, r4
 8008cb4:	d105      	bne.n	8008cc2 <__libc_init_array+0x2e>
 8008cb6:	bd70      	pop	{r4, r5, r6, pc}
 8008cb8:	f856 3025 	ldr.w	r3, [r6, r5, lsl #2]
 8008cbc:	4798      	blx	r3
 8008cbe:	3501      	adds	r5, #1
 8008cc0:	e7ee      	b.n	8008ca0 <__libc_init_array+0xc>
 8008cc2:	f856 3025 	ldr.w	r3, [r6, r5, lsl #2]
 8008cc6:	4798      	blx	r3
 8008cc8:	3501      	adds	r5, #1
 8008cca:	e7f2      	b.n	8008cb2 <__libc_init_array+0x1e>
 8008ccc:	0800bc18 	.word	0x0800bc18
 8008cd0:	0800bc18 	.word	0x0800bc18
 8008cd4:	0800bc18 	.word	0x0800bc18
 8008cd8:	0800bc1c 	.word	0x0800bc1c

08008cdc <malloc>:
 8008cdc:	4b02      	ldr	r3, [pc, #8]	; (8008ce8 <malloc+0xc>)
 8008cde:	4601      	mov	r1, r0
 8008ce0:	6818      	ldr	r0, [r3, #0]
 8008ce2:	f000 b86d 	b.w	8008dc0 <_malloc_r>
 8008ce6:	bf00      	nop
 8008ce8:	20000094 	.word	0x20000094

08008cec <free>:
 8008cec:	4b02      	ldr	r3, [pc, #8]	; (8008cf8 <free+0xc>)
 8008cee:	4601      	mov	r1, r0
 8008cf0:	6818      	ldr	r0, [r3, #0]
 8008cf2:	f000 b817 	b.w	8008d24 <_free_r>
 8008cf6:	bf00      	nop
 8008cf8:	20000094 	.word	0x20000094

08008cfc <memcpy>:
 8008cfc:	b510      	push	{r4, lr}
 8008cfe:	1e43      	subs	r3, r0, #1
 8008d00:	440a      	add	r2, r1
 8008d02:	4291      	cmp	r1, r2
 8008d04:	d100      	bne.n	8008d08 <memcpy+0xc>
 8008d06:	bd10      	pop	{r4, pc}
 8008d08:	f811 4b01 	ldrb.w	r4, [r1], #1
 8008d0c:	f803 4f01 	strb.w	r4, [r3, #1]!
 8008d10:	e7f7      	b.n	8008d02 <memcpy+0x6>

08008d12 <memset>:
 8008d12:	4402      	add	r2, r0
 8008d14:	4603      	mov	r3, r0
 8008d16:	4293      	cmp	r3, r2
 8008d18:	d100      	bne.n	8008d1c <memset+0xa>
 8008d1a:	4770      	bx	lr
 8008d1c:	f803 1b01 	strb.w	r1, [r3], #1
 8008d20:	e7f9      	b.n	8008d16 <memset+0x4>
	...

08008d24 <_free_r>:
 8008d24:	b538      	push	{r3, r4, r5, lr}
 8008d26:	4605      	mov	r5, r0
 8008d28:	2900      	cmp	r1, #0
 8008d2a:	d045      	beq.n	8008db8 <_free_r+0x94>
 8008d2c:	f851 3c04 	ldr.w	r3, [r1, #-4]
 8008d30:	1f0c      	subs	r4, r1, #4
 8008d32:	2b00      	cmp	r3, #0
 8008d34:	bfb8      	it	lt
 8008d36:	18e4      	addlt	r4, r4, r3
 8008d38:	f7fe fbce 	bl	80074d8 <__malloc_lock>
 8008d3c:	4a1f      	ldr	r2, [pc, #124]	; (8008dbc <_free_r+0x98>)
 8008d3e:	6813      	ldr	r3, [r2, #0]
 8008d40:	4610      	mov	r0, r2
 8008d42:	b933      	cbnz	r3, 8008d52 <_free_r+0x2e>
 8008d44:	6063      	str	r3, [r4, #4]
 8008d46:	6014      	str	r4, [r2, #0]
 8008d48:	4628      	mov	r0, r5
 8008d4a:	e8bd 4038 	ldmia.w	sp!, {r3, r4, r5, lr}
 8008d4e:	f7fe bbd1 	b.w	80074f4 <__malloc_unlock>
 8008d52:	42a3      	cmp	r3, r4
 8008d54:	d90c      	bls.n	8008d70 <_free_r+0x4c>
 8008d56:	6821      	ldr	r1, [r4, #0]
 8008d58:	1862      	adds	r2, r4, r1
 8008d5a:	4293      	cmp	r3, r2
 8008d5c:	bf04      	itt	eq
 8008d5e:	681a      	ldreq	r2, [r3, #0]
 8008d60:	685b      	ldreq	r3, [r3, #4]
 8008d62:	6063      	str	r3, [r4, #4]
 8008d64:	bf04      	itt	eq
 8008d66:	1852      	addeq	r2, r2, r1
 8008d68:	6022      	streq	r2, [r4, #0]
 8008d6a:	6004      	str	r4, [r0, #0]
 8008d6c:	e7ec      	b.n	8008d48 <_free_r+0x24>
 8008d6e:	4613      	mov	r3, r2
 8008d70:	685a      	ldr	r2, [r3, #4]
 8008d72:	b10a      	cbz	r2, 8008d78 <_free_r+0x54>
 8008d74:	42a2      	cmp	r2, r4
 8008d76:	d9fa      	bls.n	8008d6e <_free_r+0x4a>
 8008d78:	6819      	ldr	r1, [r3, #0]
 8008d7a:	1858      	adds	r0, r3, r1
 8008d7c:	42a0      	cmp	r0, r4
 8008d7e:	d10b      	bne.n	8008d98 <_free_r+0x74>
 8008d80:	6820      	ldr	r0, [r4, #0]
 8008d82:	4401      	add	r1, r0
 8008d84:	1858      	adds	r0, r3, r1
 8008d86:	4282      	cmp	r2, r0
 8008d88:	6019      	str	r1, [r3, #0]
 8008d8a:	d1dd      	bne.n	8008d48 <_free_r+0x24>
 8008d8c:	6810      	ldr	r0, [r2, #0]
 8008d8e:	6852      	ldr	r2, [r2, #4]
 8008d90:	605a      	str	r2, [r3, #4]
 8008d92:	4401      	add	r1, r0
 8008d94:	6019      	str	r1, [r3, #0]
 8008d96:	e7d7      	b.n	8008d48 <_free_r+0x24>
 8008d98:	d902      	bls.n	8008da0 <_free_r+0x7c>
 8008d9a:	230c      	movs	r3, #12
 8008d9c:	602b      	str	r3, [r5, #0]
 8008d9e:	e7d3      	b.n	8008d48 <_free_r+0x24>
 8008da0:	6820      	ldr	r0, [r4, #0]
 8008da2:	1821      	adds	r1, r4, r0
 8008da4:	428a      	cmp	r2, r1
 8008da6:	bf04      	itt	eq
 8008da8:	6811      	ldreq	r1, [r2, #0]
 8008daa:	6852      	ldreq	r2, [r2, #4]
 8008dac:	6062      	str	r2, [r4, #4]
 8008dae:	bf04      	itt	eq
 8008db0:	1809      	addeq	r1, r1, r0
 8008db2:	6021      	streq	r1, [r4, #0]
 8008db4:	605c      	str	r4, [r3, #4]
 8008db6:	e7c7      	b.n	8008d48 <_free_r+0x24>
 8008db8:	bd38      	pop	{r3, r4, r5, pc}
 8008dba:	bf00      	nop
 8008dbc:	20001074 	.word	0x20001074

08008dc0 <_malloc_r>:
 8008dc0:	b570      	push	{r4, r5, r6, lr}
 8008dc2:	1ccd      	adds	r5, r1, #3
 8008dc4:	f025 0503 	bic.w	r5, r5, #3
 8008dc8:	3508      	adds	r5, #8
 8008dca:	2d0c      	cmp	r5, #12
 8008dcc:	bf38      	it	cc
 8008dce:	250c      	movcc	r5, #12
 8008dd0:	2d00      	cmp	r5, #0
 8008dd2:	4606      	mov	r6, r0
 8008dd4:	db01      	blt.n	8008dda <_malloc_r+0x1a>
 8008dd6:	42a9      	cmp	r1, r5
 8008dd8:	d903      	bls.n	8008de2 <_malloc_r+0x22>
 8008dda:	230c      	movs	r3, #12
 8008ddc:	6033      	str	r3, [r6, #0]
 8008dde:	2000      	movs	r0, #0
 8008de0:	bd70      	pop	{r4, r5, r6, pc}
 8008de2:	f7fe fb79 	bl	80074d8 <__malloc_lock>
 8008de6:	4a21      	ldr	r2, [pc, #132]	; (8008e6c <_malloc_r+0xac>)
 8008de8:	6814      	ldr	r4, [r2, #0]
 8008dea:	4621      	mov	r1, r4
 8008dec:	b991      	cbnz	r1, 8008e14 <_malloc_r+0x54>
 8008dee:	4c20      	ldr	r4, [pc, #128]	; (8008e70 <_malloc_r+0xb0>)
 8008df0:	6823      	ldr	r3, [r4, #0]
 8008df2:	b91b      	cbnz	r3, 8008dfc <_malloc_r+0x3c>
 8008df4:	4630      	mov	r0, r6
 8008df6:	f7fe fb35 	bl	8007464 <_sbrk_r>
 8008dfa:	6020      	str	r0, [r4, #0]
 8008dfc:	4629      	mov	r1, r5
 8008dfe:	4630      	mov	r0, r6
 8008e00:	f7fe fb30 	bl	8007464 <_sbrk_r>
 8008e04:	1c43      	adds	r3, r0, #1
 8008e06:	d124      	bne.n	8008e52 <_malloc_r+0x92>
 8008e08:	230c      	movs	r3, #12
 8008e0a:	6033      	str	r3, [r6, #0]
 8008e0c:	4630      	mov	r0, r6
 8008e0e:	f7fe fb71 	bl	80074f4 <__malloc_unlock>
 8008e12:	e7e4      	b.n	8008dde <_malloc_r+0x1e>
 8008e14:	680b      	ldr	r3, [r1, #0]
 8008e16:	1b5b      	subs	r3, r3, r5
 8008e18:	d418      	bmi.n	8008e4c <_malloc_r+0x8c>
 8008e1a:	2b0b      	cmp	r3, #11
 8008e1c:	d90f      	bls.n	8008e3e <_malloc_r+0x7e>
 8008e1e:	600b      	str	r3, [r1, #0]
 8008e20:	50cd      	str	r5, [r1, r3]
 8008e22:	18cc      	adds	r4, r1, r3
 8008e24:	4630      	mov	r0, r6
 8008e26:	f7fe fb65 	bl	80074f4 <__malloc_unlock>
 8008e2a:	f104 000b 	add.w	r0, r4, #11
 8008e2e:	1d23      	adds	r3, r4, #4
 8008e30:	f020 0007 	bic.w	r0, r0, #7
 8008e34:	1ac3      	subs	r3, r0, r3
 8008e36:	d0d3      	beq.n	8008de0 <_malloc_r+0x20>
 8008e38:	425a      	negs	r2, r3
 8008e3a:	50e2      	str	r2, [r4, r3]
 8008e3c:	e7d0      	b.n	8008de0 <_malloc_r+0x20>
 8008e3e:	428c      	cmp	r4, r1
 8008e40:	684b      	ldr	r3, [r1, #4]
 8008e42:	bf16      	itet	ne
 8008e44:	6063      	strne	r3, [r4, #4]
 8008e46:	6013      	streq	r3, [r2, #0]
 8008e48:	460c      	movne	r4, r1
 8008e4a:	e7eb      	b.n	8008e24 <_malloc_r+0x64>
 8008e4c:	460c      	mov	r4, r1
 8008e4e:	6849      	ldr	r1, [r1, #4]
 8008e50:	e7cc      	b.n	8008dec <_malloc_r+0x2c>
 8008e52:	1cc4      	adds	r4, r0, #3
 8008e54:	f024 0403 	bic.w	r4, r4, #3
 8008e58:	42a0      	cmp	r0, r4
 8008e5a:	d005      	beq.n	8008e68 <_malloc_r+0xa8>
 8008e5c:	1a21      	subs	r1, r4, r0
 8008e5e:	4630      	mov	r0, r6
 8008e60:	f7fe fb00 	bl	8007464 <_sbrk_r>
 8008e64:	3001      	adds	r0, #1
 8008e66:	d0cf      	beq.n	8008e08 <_malloc_r+0x48>
 8008e68:	6025      	str	r5, [r4, #0]
 8008e6a:	e7db      	b.n	8008e24 <_malloc_r+0x64>
 8008e6c:	20001074 	.word	0x20001074
 8008e70:	20001078 	.word	0x20001078

08008e74 <__cvt>:
 8008e74:	e92d 47ff 	stmdb	sp!, {r0, r1, r2, r3, r4, r5, r6, r7, r8, r9, sl, lr}
 8008e78:	ec55 4b10 	vmov	r4, r5, d0
 8008e7c:	9f0d      	ldr	r7, [sp, #52]	; 0x34
 8008e7e:	f8dd a030 	ldr.w	sl, [sp, #48]	; 0x30
 8008e82:	2d00      	cmp	r5, #0
 8008e84:	460e      	mov	r6, r1
 8008e86:	4691      	mov	r9, r2
 8008e88:	4619      	mov	r1, r3
 8008e8a:	bfb8      	it	lt
 8008e8c:	4622      	movlt	r2, r4
 8008e8e:	462b      	mov	r3, r5
 8008e90:	f027 0720 	bic.w	r7, r7, #32
 8008e94:	bfbb      	ittet	lt
 8008e96:	f105 4300 	addlt.w	r3, r5, #2147483648	; 0x80000000
 8008e9a:	461d      	movlt	r5, r3
 8008e9c:	2300      	movge	r3, #0
 8008e9e:	232d      	movlt	r3, #45	; 0x2d
 8008ea0:	bfb8      	it	lt
 8008ea2:	4614      	movlt	r4, r2
 8008ea4:	2f46      	cmp	r7, #70	; 0x46
 8008ea6:	700b      	strb	r3, [r1, #0]
 8008ea8:	d004      	beq.n	8008eb4 <__cvt+0x40>
 8008eaa:	2f45      	cmp	r7, #69	; 0x45
 8008eac:	d100      	bne.n	8008eb0 <__cvt+0x3c>
 8008eae:	3601      	adds	r6, #1
 8008eb0:	2102      	movs	r1, #2
 8008eb2:	e000      	b.n	8008eb6 <__cvt+0x42>
 8008eb4:	2103      	movs	r1, #3
 8008eb6:	ab03      	add	r3, sp, #12
 8008eb8:	9301      	str	r3, [sp, #4]
 8008eba:	ab02      	add	r3, sp, #8
 8008ebc:	9300      	str	r3, [sp, #0]
 8008ebe:	4632      	mov	r2, r6
 8008ec0:	4653      	mov	r3, sl
 8008ec2:	ec45 4b10 	vmov	d0, r4, r5
 8008ec6:	f000 fe57 	bl	8009b78 <_dtoa_r>
 8008eca:	2f47      	cmp	r7, #71	; 0x47
 8008ecc:	4680      	mov	r8, r0
 8008ece:	d102      	bne.n	8008ed6 <__cvt+0x62>
 8008ed0:	f019 0f01 	tst.w	r9, #1
 8008ed4:	d026      	beq.n	8008f24 <__cvt+0xb0>
 8008ed6:	2f46      	cmp	r7, #70	; 0x46
 8008ed8:	eb08 0906 	add.w	r9, r8, r6
 8008edc:	d111      	bne.n	8008f02 <__cvt+0x8e>
 8008ede:	f898 3000 	ldrb.w	r3, [r8]
 8008ee2:	2b30      	cmp	r3, #48	; 0x30
 8008ee4:	d10a      	bne.n	8008efc <__cvt+0x88>
 8008ee6:	2200      	movs	r2, #0
 8008ee8:	2300      	movs	r3, #0
 8008eea:	4620      	mov	r0, r4
 8008eec:	4629      	mov	r1, r5
 8008eee:	f7f7 fdf3 	bl	8000ad8 <__aeabi_dcmpeq>
 8008ef2:	b918      	cbnz	r0, 8008efc <__cvt+0x88>
 8008ef4:	f1c6 0601 	rsb	r6, r6, #1
 8008ef8:	f8ca 6000 	str.w	r6, [sl]
 8008efc:	f8da 3000 	ldr.w	r3, [sl]
 8008f00:	4499      	add	r9, r3
 8008f02:	2200      	movs	r2, #0
 8008f04:	2300      	movs	r3, #0
 8008f06:	4620      	mov	r0, r4
 8008f08:	4629      	mov	r1, r5
 8008f0a:	f7f7 fde5 	bl	8000ad8 <__aeabi_dcmpeq>
 8008f0e:	b938      	cbnz	r0, 8008f20 <__cvt+0xac>
 8008f10:	2230      	movs	r2, #48	; 0x30
 8008f12:	9b03      	ldr	r3, [sp, #12]
 8008f14:	454b      	cmp	r3, r9
 8008f16:	d205      	bcs.n	8008f24 <__cvt+0xb0>
 8008f18:	1c59      	adds	r1, r3, #1
 8008f1a:	9103      	str	r1, [sp, #12]
 8008f1c:	701a      	strb	r2, [r3, #0]
 8008f1e:	e7f8      	b.n	8008f12 <__cvt+0x9e>
 8008f20:	f8cd 900c 	str.w	r9, [sp, #12]
 8008f24:	9b03      	ldr	r3, [sp, #12]
 8008f26:	9a0e      	ldr	r2, [sp, #56]	; 0x38
 8008f28:	eba3 0308 	sub.w	r3, r3, r8
 8008f2c:	4640      	mov	r0, r8
 8008f2e:	6013      	str	r3, [r2, #0]
 8008f30:	b004      	add	sp, #16
 8008f32:	e8bd 87f0 	ldmia.w	sp!, {r4, r5, r6, r7, r8, r9, sl, pc}

08008f36 <__exponent>:
 8008f36:	b5f7      	push	{r0, r1, r2, r4, r5, r6, r7, lr}
 8008f38:	2900      	cmp	r1, #0
 8008f3a:	4604      	mov	r4, r0
 8008f3c:	bfba      	itte	lt
 8008f3e:	4249      	neglt	r1, r1
 8008f40:	232d      	movlt	r3, #45	; 0x2d
 8008f42:	232b      	movge	r3, #43	; 0x2b
 8008f44:	2909      	cmp	r1, #9
 8008f46:	f804 2b02 	strb.w	r2, [r4], #2
 8008f4a:	7043      	strb	r3, [r0, #1]
 8008f4c:	dd20      	ble.n	8008f90 <__exponent+0x5a>
 8008f4e:	f10d 0307 	add.w	r3, sp, #7
 8008f52:	461f      	mov	r7, r3
 8008f54:	260a      	movs	r6, #10
 8008f56:	fb91 f5f6 	sdiv	r5, r1, r6
 8008f5a:	fb06 1115 	mls	r1, r6, r5, r1
 8008f5e:	3130      	adds	r1, #48	; 0x30
 8008f60:	2d09      	cmp	r5, #9
 8008f62:	f803 1c01 	strb.w	r1, [r3, #-1]
 8008f66:	f103 32ff 	add.w	r2, r3, #4294967295
 8008f6a:	4629      	mov	r1, r5
 8008f6c:	dc09      	bgt.n	8008f82 <__exponent+0x4c>
 8008f6e:	3130      	adds	r1, #48	; 0x30
 8008f70:	3b02      	subs	r3, #2
 8008f72:	f802 1c01 	strb.w	r1, [r2, #-1]
 8008f76:	42bb      	cmp	r3, r7
 8008f78:	4622      	mov	r2, r4
 8008f7a:	d304      	bcc.n	8008f86 <__exponent+0x50>
 8008f7c:	1a10      	subs	r0, r2, r0
 8008f7e:	b003      	add	sp, #12
 8008f80:	bdf0      	pop	{r4, r5, r6, r7, pc}
 8008f82:	4613      	mov	r3, r2
 8008f84:	e7e7      	b.n	8008f56 <__exponent+0x20>
 8008f86:	f813 2b01 	ldrb.w	r2, [r3], #1
 8008f8a:	f804 2b01 	strb.w	r2, [r4], #1
 8008f8e:	e7f2      	b.n	8008f76 <__exponent+0x40>
 8008f90:	2330      	movs	r3, #48	; 0x30
 8008f92:	4419      	add	r1, r3
 8008f94:	7083      	strb	r3, [r0, #2]
 8008f96:	1d02      	adds	r2, r0, #4
 8008f98:	70c1      	strb	r1, [r0, #3]
 8008f9a:	e7ef      	b.n	8008f7c <__exponent+0x46>

08008f9c <_printf_float>:
 8008f9c:	e92d 4ff0 	stmdb	sp!, {r4, r5, r6, r7, r8, r9, sl, fp, lr}
 8008fa0:	b08d      	sub	sp, #52	; 0x34
 8008fa2:	460c      	mov	r4, r1
 8008fa4:	f8dd 8058 	ldr.w	r8, [sp, #88]	; 0x58
 8008fa8:	4616      	mov	r6, r2
 8008faa:	461f      	mov	r7, r3
 8008fac:	4605      	mov	r5, r0
 8008fae:	f001 fb9f 	bl	800a6f0 <_localeconv_r>
 8008fb2:	6803      	ldr	r3, [r0, #0]
 8008fb4:	9304      	str	r3, [sp, #16]
 8008fb6:	4618      	mov	r0, r3
 8008fb8:	f7f7 f912 	bl	80001e0 <strlen>
 8008fbc:	2300      	movs	r3, #0
 8008fbe:	930a      	str	r3, [sp, #40]	; 0x28
 8008fc0:	f8d8 3000 	ldr.w	r3, [r8]
 8008fc4:	9005      	str	r0, [sp, #20]
 8008fc6:	3307      	adds	r3, #7
 8008fc8:	f023 0307 	bic.w	r3, r3, #7
 8008fcc:	f103 0208 	add.w	r2, r3, #8
 8008fd0:	f894 a018 	ldrb.w	sl, [r4, #24]
 8008fd4:	f8d4 b000 	ldr.w	fp, [r4]
 8008fd8:	f8c8 2000 	str.w	r2, [r8]
 8008fdc:	e9d3 2300 	ldrd	r2, r3, [r3]
 8008fe0:	e9c4 2312 	strd	r2, r3, [r4, #72]	; 0x48
 8008fe4:	e9d4 8912 	ldrd	r8, r9, [r4, #72]	; 0x48
 8008fe8:	f029 4300 	bic.w	r3, r9, #2147483648	; 0x80000000
 8008fec:	9307      	str	r3, [sp, #28]
 8008fee:	f8cd 8018 	str.w	r8, [sp, #24]
 8008ff2:	f04f 32ff 	mov.w	r2, #4294967295
 8008ff6:	4ba7      	ldr	r3, [pc, #668]	; (8009294 <_printf_float+0x2f8>)
 8008ff8:	e9dd 0106 	ldrd	r0, r1, [sp, #24]
 8008ffc:	f7f7 fd9e 	bl	8000b3c <__aeabi_dcmpun>
 8009000:	bb70      	cbnz	r0, 8009060 <_printf_float+0xc4>
 8009002:	f04f 32ff 	mov.w	r2, #4294967295
 8009006:	4ba3      	ldr	r3, [pc, #652]	; (8009294 <_printf_float+0x2f8>)
 8009008:	e9dd 0106 	ldrd	r0, r1, [sp, #24]
 800900c:	f7f7 fd78 	bl	8000b00 <__aeabi_dcmple>
 8009010:	bb30      	cbnz	r0, 8009060 <_printf_float+0xc4>
 8009012:	2200      	movs	r2, #0
 8009014:	2300      	movs	r3, #0
 8009016:	4640      	mov	r0, r8
 8009018:	4649      	mov	r1, r9
 800901a:	f7f7 fd67 	bl	8000aec <__aeabi_dcmplt>
 800901e:	b110      	cbz	r0, 8009026 <_printf_float+0x8a>
 8009020:	232d      	movs	r3, #45	; 0x2d
 8009022:	f884 3043 	strb.w	r3, [r4, #67]	; 0x43
 8009026:	4a9c      	ldr	r2, [pc, #624]	; (8009298 <_printf_float+0x2fc>)
 8009028:	4b9c      	ldr	r3, [pc, #624]	; (800929c <_printf_float+0x300>)
 800902a:	f1ba 0f47 	cmp.w	sl, #71	; 0x47
 800902e:	bf8c      	ite	hi
 8009030:	4690      	movhi	r8, r2
 8009032:	4698      	movls	r8, r3
 8009034:	2303      	movs	r3, #3
 8009036:	f02b 0204 	bic.w	r2, fp, #4
 800903a:	6123      	str	r3, [r4, #16]
 800903c:	6022      	str	r2, [r4, #0]
 800903e:	f04f 0900 	mov.w	r9, #0
 8009042:	9700      	str	r7, [sp, #0]
 8009044:	4633      	mov	r3, r6
 8009046:	aa0b      	add	r2, sp, #44	; 0x2c
 8009048:	4621      	mov	r1, r4
 800904a:	4628      	mov	r0, r5
 800904c:	f000 f9e6 	bl	800941c <_printf_common>
 8009050:	3001      	adds	r0, #1
 8009052:	f040 808d 	bne.w	8009170 <_printf_float+0x1d4>
 8009056:	f04f 30ff 	mov.w	r0, #4294967295
 800905a:	b00d      	add	sp, #52	; 0x34
 800905c:	e8bd 8ff0 	ldmia.w	sp!, {r4, r5, r6, r7, r8, r9, sl, fp, pc}
 8009060:	4642      	mov	r2, r8
 8009062:	464b      	mov	r3, r9
 8009064:	4640      	mov	r0, r8
 8009066:	4649      	mov	r1, r9
 8009068:	f7f7 fd68 	bl	8000b3c <__aeabi_dcmpun>
 800906c:	b110      	cbz	r0, 8009074 <_printf_float+0xd8>
 800906e:	4a8c      	ldr	r2, [pc, #560]	; (80092a0 <_printf_float+0x304>)
 8009070:	4b8c      	ldr	r3, [pc, #560]	; (80092a4 <_printf_float+0x308>)
 8009072:	e7da      	b.n	800902a <_printf_float+0x8e>
 8009074:	6861      	ldr	r1, [r4, #4]
 8009076:	1c4b      	adds	r3, r1, #1
 8009078:	f44b 6280 	orr.w	r2, fp, #1024	; 0x400
 800907c:	a80a      	add	r0, sp, #40	; 0x28
 800907e:	d13e      	bne.n	80090fe <_printf_float+0x162>
 8009080:	2306      	movs	r3, #6
 8009082:	6063      	str	r3, [r4, #4]
 8009084:	2300      	movs	r3, #0
 8009086:	e9cd 0302 	strd	r0, r3, [sp, #8]
 800908a:	ab09      	add	r3, sp, #36	; 0x24
 800908c:	9300      	str	r3, [sp, #0]
 800908e:	ec49 8b10 	vmov	d0, r8, r9
 8009092:	f10d 0323 	add.w	r3, sp, #35	; 0x23
 8009096:	6022      	str	r2, [r4, #0]
 8009098:	f8cd a004 	str.w	sl, [sp, #4]
 800909c:	6861      	ldr	r1, [r4, #4]
 800909e:	4628      	mov	r0, r5
 80090a0:	f7ff fee8 	bl	8008e74 <__cvt>
 80090a4:	f00a 03df 	and.w	r3, sl, #223	; 0xdf
 80090a8:	2b47      	cmp	r3, #71	; 0x47
 80090aa:	4680      	mov	r8, r0
 80090ac:	d109      	bne.n	80090c2 <_printf_float+0x126>
 80090ae:	9b09      	ldr	r3, [sp, #36]	; 0x24
 80090b0:	1cd8      	adds	r0, r3, #3
 80090b2:	db02      	blt.n	80090ba <_printf_float+0x11e>
 80090b4:	6862      	ldr	r2, [r4, #4]
 80090b6:	4293      	cmp	r3, r2
 80090b8:	dd47      	ble.n	800914a <_printf_float+0x1ae>
 80090ba:	f1aa 0a02 	sub.w	sl, sl, #2
 80090be:	fa5f fa8a 	uxtb.w	sl, sl
 80090c2:	f1ba 0f65 	cmp.w	sl, #101	; 0x65
 80090c6:	9909      	ldr	r1, [sp, #36]	; 0x24
 80090c8:	d824      	bhi.n	8009114 <_printf_float+0x178>
 80090ca:	3901      	subs	r1, #1
 80090cc:	4652      	mov	r2, sl
 80090ce:	f104 0050 	add.w	r0, r4, #80	; 0x50
 80090d2:	9109      	str	r1, [sp, #36]	; 0x24
 80090d4:	f7ff ff2f 	bl	8008f36 <__exponent>
 80090d8:	9a0a      	ldr	r2, [sp, #40]	; 0x28
 80090da:	1813      	adds	r3, r2, r0
 80090dc:	2a01      	cmp	r2, #1
 80090de:	4681      	mov	r9, r0
 80090e0:	6123      	str	r3, [r4, #16]
 80090e2:	dc02      	bgt.n	80090ea <_printf_float+0x14e>
 80090e4:	6822      	ldr	r2, [r4, #0]
 80090e6:	07d1      	lsls	r1, r2, #31
 80090e8:	d501      	bpl.n	80090ee <_printf_float+0x152>
 80090ea:	3301      	adds	r3, #1
 80090ec:	6123      	str	r3, [r4, #16]
 80090ee:	f89d 3023 	ldrb.w	r3, [sp, #35]	; 0x23
 80090f2:	2b00      	cmp	r3, #0
 80090f4:	d0a5      	beq.n	8009042 <_printf_float+0xa6>
 80090f6:	232d      	movs	r3, #45	; 0x2d
 80090f8:	f884 3043 	strb.w	r3, [r4, #67]	; 0x43
 80090fc:	e7a1      	b.n	8009042 <_printf_float+0xa6>
 80090fe:	f1ba 0f67 	cmp.w	sl, #103	; 0x67
 8009102:	f000 8177 	beq.w	80093f4 <_printf_float+0x458>
 8009106:	f1ba 0f47 	cmp.w	sl, #71	; 0x47
 800910a:	d1bb      	bne.n	8009084 <_printf_float+0xe8>
 800910c:	2900      	cmp	r1, #0
 800910e:	d1b9      	bne.n	8009084 <_printf_float+0xe8>
 8009110:	2301      	movs	r3, #1
 8009112:	e7b6      	b.n	8009082 <_printf_float+0xe6>
 8009114:	f1ba 0f66 	cmp.w	sl, #102	; 0x66
 8009118:	d119      	bne.n	800914e <_printf_float+0x1b2>
 800911a:	2900      	cmp	r1, #0
 800911c:	6863      	ldr	r3, [r4, #4]
 800911e:	dd0c      	ble.n	800913a <_printf_float+0x19e>
 8009120:	6121      	str	r1, [r4, #16]
 8009122:	b913      	cbnz	r3, 800912a <_printf_float+0x18e>
 8009124:	6822      	ldr	r2, [r4, #0]
 8009126:	07d2      	lsls	r2, r2, #31
 8009128:	d502      	bpl.n	8009130 <_printf_float+0x194>
 800912a:	3301      	adds	r3, #1
 800912c:	440b      	add	r3, r1
 800912e:	6123      	str	r3, [r4, #16]
 8009130:	9b09      	ldr	r3, [sp, #36]	; 0x24
 8009132:	65a3      	str	r3, [r4, #88]	; 0x58
 8009134:	f04f 0900 	mov.w	r9, #0
 8009138:	e7d9      	b.n	80090ee <_printf_float+0x152>
 800913a:	b913      	cbnz	r3, 8009142 <_printf_float+0x1a6>
 800913c:	6822      	ldr	r2, [r4, #0]
 800913e:	07d0      	lsls	r0, r2, #31
 8009140:	d501      	bpl.n	8009146 <_printf_float+0x1aa>
 8009142:	3302      	adds	r3, #2
 8009144:	e7f3      	b.n	800912e <_printf_float+0x192>
 8009146:	2301      	movs	r3, #1
 8009148:	e7f1      	b.n	800912e <_printf_float+0x192>
 800914a:	f04f 0a67 	mov.w	sl, #103	; 0x67
 800914e:	e9dd 3209 	ldrd	r3, r2, [sp, #36]	; 0x24
 8009152:	4293      	cmp	r3, r2
 8009154:	db05      	blt.n	8009162 <_printf_float+0x1c6>
 8009156:	6822      	ldr	r2, [r4, #0]
 8009158:	6123      	str	r3, [r4, #16]
 800915a:	07d1      	lsls	r1, r2, #31
 800915c:	d5e8      	bpl.n	8009130 <_printf_float+0x194>
 800915e:	3301      	adds	r3, #1
 8009160:	e7e5      	b.n	800912e <_printf_float+0x192>
 8009162:	2b00      	cmp	r3, #0
 8009164:	bfd4      	ite	le
 8009166:	f1c3 0302 	rsble	r3, r3, #2
 800916a:	2301      	movgt	r3, #1
 800916c:	4413      	add	r3, r2
 800916e:	e7de      	b.n	800912e <_printf_float+0x192>
 8009170:	6823      	ldr	r3, [r4, #0]
 8009172:	055a      	lsls	r2, r3, #21
 8009174:	d407      	bmi.n	8009186 <_printf_float+0x1ea>
 8009176:	6923      	ldr	r3, [r4, #16]
 8009178:	4642      	mov	r2, r8
 800917a:	4631      	mov	r1, r6
 800917c:	4628      	mov	r0, r5
 800917e:	47b8      	blx	r7
 8009180:	3001      	adds	r0, #1
 8009182:	d12b      	bne.n	80091dc <_printf_float+0x240>
 8009184:	e767      	b.n	8009056 <_printf_float+0xba>
 8009186:	f1ba 0f65 	cmp.w	sl, #101	; 0x65
 800918a:	f240 80dc 	bls.w	8009346 <_printf_float+0x3aa>
 800918e:	2200      	movs	r2, #0
 8009190:	2300      	movs	r3, #0
 8009192:	e9d4 0112 	ldrd	r0, r1, [r4, #72]	; 0x48
 8009196:	f7f7 fc9f 	bl	8000ad8 <__aeabi_dcmpeq>
 800919a:	2800      	cmp	r0, #0
 800919c:	d033      	beq.n	8009206 <_printf_float+0x26a>
 800919e:	2301      	movs	r3, #1
 80091a0:	4a41      	ldr	r2, [pc, #260]	; (80092a8 <_printf_float+0x30c>)
 80091a2:	4631      	mov	r1, r6
 80091a4:	4628      	mov	r0, r5
 80091a6:	47b8      	blx	r7
 80091a8:	3001      	adds	r0, #1
 80091aa:	f43f af54 	beq.w	8009056 <_printf_float+0xba>
 80091ae:	e9dd 2309 	ldrd	r2, r3, [sp, #36]	; 0x24
 80091b2:	429a      	cmp	r2, r3
 80091b4:	db02      	blt.n	80091bc <_printf_float+0x220>
 80091b6:	6823      	ldr	r3, [r4, #0]
 80091b8:	07d8      	lsls	r0, r3, #31
 80091ba:	d50f      	bpl.n	80091dc <_printf_float+0x240>
 80091bc:	e9dd 2304 	ldrd	r2, r3, [sp, #16]
 80091c0:	4631      	mov	r1, r6
 80091c2:	4628      	mov	r0, r5
 80091c4:	47b8      	blx	r7
 80091c6:	3001      	adds	r0, #1
 80091c8:	f43f af45 	beq.w	8009056 <_printf_float+0xba>
 80091cc:	f04f 0800 	mov.w	r8, #0
 80091d0:	f104 091a 	add.w	r9, r4, #26
 80091d4:	9b0a      	ldr	r3, [sp, #40]	; 0x28
 80091d6:	3b01      	subs	r3, #1
 80091d8:	4543      	cmp	r3, r8
 80091da:	dc09      	bgt.n	80091f0 <_printf_float+0x254>
 80091dc:	6823      	ldr	r3, [r4, #0]
 80091de:	079b      	lsls	r3, r3, #30
 80091e0:	f100 8103 	bmi.w	80093ea <_printf_float+0x44e>
 80091e4:	68e0      	ldr	r0, [r4, #12]
 80091e6:	9b0b      	ldr	r3, [sp, #44]	; 0x2c
 80091e8:	4298      	cmp	r0, r3
 80091ea:	bfb8      	it	lt
 80091ec:	4618      	movlt	r0, r3
 80091ee:	e734      	b.n	800905a <_printf_float+0xbe>
 80091f0:	2301      	movs	r3, #1
 80091f2:	464a      	mov	r2, r9
 80091f4:	4631      	mov	r1, r6
 80091f6:	4628      	mov	r0, r5
 80091f8:	47b8      	blx	r7
 80091fa:	3001      	adds	r0, #1
 80091fc:	f43f af2b 	beq.w	8009056 <_printf_float+0xba>
 8009200:	f108 0801 	add.w	r8, r8, #1
 8009204:	e7e6      	b.n	80091d4 <_printf_float+0x238>
 8009206:	9b09      	ldr	r3, [sp, #36]	; 0x24
 8009208:	2b00      	cmp	r3, #0
 800920a:	dc2b      	bgt.n	8009264 <_printf_float+0x2c8>
 800920c:	2301      	movs	r3, #1
 800920e:	4a26      	ldr	r2, [pc, #152]	; (80092a8 <_printf_float+0x30c>)
 8009210:	4631      	mov	r1, r6
 8009212:	4628      	mov	r0, r5
 8009214:	47b8      	blx	r7
 8009216:	3001      	adds	r0, #1
 8009218:	f43f af1d 	beq.w	8009056 <_printf_float+0xba>
 800921c:	9b09      	ldr	r3, [sp, #36]	; 0x24
 800921e:	b923      	cbnz	r3, 800922a <_printf_float+0x28e>
 8009220:	9b0a      	ldr	r3, [sp, #40]	; 0x28
 8009222:	b913      	cbnz	r3, 800922a <_printf_float+0x28e>
 8009224:	6823      	ldr	r3, [r4, #0]
 8009226:	07d9      	lsls	r1, r3, #31
 8009228:	d5d8      	bpl.n	80091dc <_printf_float+0x240>
 800922a:	e9dd 2304 	ldrd	r2, r3, [sp, #16]
 800922e:	4631      	mov	r1, r6
 8009230:	4628      	mov	r0, r5
 8009232:	47b8      	blx	r7
 8009234:	3001      	adds	r0, #1
 8009236:	f43f af0e 	beq.w	8009056 <_printf_float+0xba>
 800923a:	f04f 0900 	mov.w	r9, #0
 800923e:	f104 0a1a 	add.w	sl, r4, #26
 8009242:	9b09      	ldr	r3, [sp, #36]	; 0x24
 8009244:	425b      	negs	r3, r3
 8009246:	454b      	cmp	r3, r9
 8009248:	dc01      	bgt.n	800924e <_printf_float+0x2b2>
 800924a:	9b0a      	ldr	r3, [sp, #40]	; 0x28
 800924c:	e794      	b.n	8009178 <_printf_float+0x1dc>
 800924e:	2301      	movs	r3, #1
 8009250:	4652      	mov	r2, sl
 8009252:	4631      	mov	r1, r6
 8009254:	4628      	mov	r0, r5
 8009256:	47b8      	blx	r7
 8009258:	3001      	adds	r0, #1
 800925a:	f43f aefc 	beq.w	8009056 <_printf_float+0xba>
 800925e:	f109 0901 	add.w	r9, r9, #1
 8009262:	e7ee      	b.n	8009242 <_printf_float+0x2a6>
 8009264:	9a0a      	ldr	r2, [sp, #40]	; 0x28
 8009266:	6da3      	ldr	r3, [r4, #88]	; 0x58
 8009268:	429a      	cmp	r2, r3
 800926a:	bfa8      	it	ge
 800926c:	461a      	movge	r2, r3
 800926e:	2a00      	cmp	r2, #0
 8009270:	4691      	mov	r9, r2
 8009272:	dd07      	ble.n	8009284 <_printf_float+0x2e8>
 8009274:	4613      	mov	r3, r2
 8009276:	4631      	mov	r1, r6
 8009278:	4642      	mov	r2, r8
 800927a:	4628      	mov	r0, r5
 800927c:	47b8      	blx	r7
 800927e:	3001      	adds	r0, #1
 8009280:	f43f aee9 	beq.w	8009056 <_printf_float+0xba>
 8009284:	f104 031a 	add.w	r3, r4, #26
 8009288:	f04f 0b00 	mov.w	fp, #0
 800928c:	ea29 79e9 	bic.w	r9, r9, r9, asr #31
 8009290:	9306      	str	r3, [sp, #24]
 8009292:	e015      	b.n	80092c0 <_printf_float+0x324>
 8009294:	7fefffff 	.word	0x7fefffff
 8009298:	0800b9b4 	.word	0x0800b9b4
 800929c:	0800b9b0 	.word	0x0800b9b0
 80092a0:	0800b9bc 	.word	0x0800b9bc
 80092a4:	0800b9b8 	.word	0x0800b9b8
 80092a8:	0800b5a7 	.word	0x0800b5a7
 80092ac:	2301      	movs	r3, #1
 80092ae:	9a06      	ldr	r2, [sp, #24]
 80092b0:	4631      	mov	r1, r6
 80092b2:	4628      	mov	r0, r5
 80092b4:	47b8      	blx	r7
 80092b6:	3001      	adds	r0, #1
 80092b8:	f43f aecd 	beq.w	8009056 <_printf_float+0xba>
 80092bc:	f10b 0b01 	add.w	fp, fp, #1
 80092c0:	f8d4 a058 	ldr.w	sl, [r4, #88]	; 0x58
 80092c4:	ebaa 0309 	sub.w	r3, sl, r9
 80092c8:	455b      	cmp	r3, fp
 80092ca:	dcef      	bgt.n	80092ac <_printf_float+0x310>
 80092cc:	e9dd 2309 	ldrd	r2, r3, [sp, #36]	; 0x24
 80092d0:	429a      	cmp	r2, r3
 80092d2:	44d0      	add	r8, sl
 80092d4:	db15      	blt.n	8009302 <_printf_float+0x366>
 80092d6:	6823      	ldr	r3, [r4, #0]
 80092d8:	07da      	lsls	r2, r3, #31
 80092da:	d412      	bmi.n	8009302 <_printf_float+0x366>
 80092dc:	9b0a      	ldr	r3, [sp, #40]	; 0x28
 80092de:	9909      	ldr	r1, [sp, #36]	; 0x24
 80092e0:	eba3 020a 	sub.w	r2, r3, sl
 80092e4:	eba3 0a01 	sub.w	sl, r3, r1
 80092e8:	4592      	cmp	sl, r2
 80092ea:	bfa8      	it	ge
 80092ec:	4692      	movge	sl, r2
 80092ee:	f1ba 0f00 	cmp.w	sl, #0
 80092f2:	dc0e      	bgt.n	8009312 <_printf_float+0x376>
 80092f4:	f04f 0800 	mov.w	r8, #0
 80092f8:	ea2a 7aea 	bic.w	sl, sl, sl, asr #31
 80092fc:	f104 091a 	add.w	r9, r4, #26
 8009300:	e019      	b.n	8009336 <_printf_float+0x39a>
 8009302:	e9dd 2304 	ldrd	r2, r3, [sp, #16]
 8009306:	4631      	mov	r1, r6
 8009308:	4628      	mov	r0, r5
 800930a:	47b8      	blx	r7
 800930c:	3001      	adds	r0, #1
 800930e:	d1e5      	bne.n	80092dc <_printf_float+0x340>
 8009310:	e6a1      	b.n	8009056 <_printf_float+0xba>
 8009312:	4653      	mov	r3, sl
 8009314:	4642      	mov	r2, r8
 8009316:	4631      	mov	r1, r6
 8009318:	4628      	mov	r0, r5
 800931a:	47b8      	blx	r7
 800931c:	3001      	adds	r0, #1
 800931e:	d1e9      	bne.n	80092f4 <_printf_float+0x358>
 8009320:	e699      	b.n	8009056 <_printf_float+0xba>
 8009322:	2301      	movs	r3, #1
 8009324:	464a      	mov	r2, r9
 8009326:	4631      	mov	r1, r6
 8009328:	4628      	mov	r0, r5
 800932a:	47b8      	blx	r7
 800932c:	3001      	adds	r0, #1
 800932e:	f43f ae92 	beq.w	8009056 <_printf_float+0xba>
 8009332:	f108 0801 	add.w	r8, r8, #1
 8009336:	e9dd 2309 	ldrd	r2, r3, [sp, #36]	; 0x24
 800933a:	1a9b      	subs	r3, r3, r2
 800933c:	eba3 030a 	sub.w	r3, r3, sl
 8009340:	4543      	cmp	r3, r8
 8009342:	dcee      	bgt.n	8009322 <_printf_float+0x386>
 8009344:	e74a      	b.n	80091dc <_printf_float+0x240>
 8009346:	9a0a      	ldr	r2, [sp, #40]	; 0x28
 8009348:	2a01      	cmp	r2, #1
 800934a:	dc01      	bgt.n	8009350 <_printf_float+0x3b4>
 800934c:	07db      	lsls	r3, r3, #31
 800934e:	d53a      	bpl.n	80093c6 <_printf_float+0x42a>
 8009350:	2301      	movs	r3, #1
 8009352:	4642      	mov	r2, r8
 8009354:	4631      	mov	r1, r6
 8009356:	4628      	mov	r0, r5
 8009358:	47b8      	blx	r7
 800935a:	3001      	adds	r0, #1
 800935c:	f43f ae7b 	beq.w	8009056 <_printf_float+0xba>
 8009360:	e9dd 2304 	ldrd	r2, r3, [sp, #16]
 8009364:	4631      	mov	r1, r6
 8009366:	4628      	mov	r0, r5
 8009368:	47b8      	blx	r7
 800936a:	3001      	adds	r0, #1
 800936c:	f108 0801 	add.w	r8, r8, #1
 8009370:	f43f ae71 	beq.w	8009056 <_printf_float+0xba>
 8009374:	9b0a      	ldr	r3, [sp, #40]	; 0x28
 8009376:	2200      	movs	r2, #0
 8009378:	f103 3aff 	add.w	sl, r3, #4294967295
 800937c:	e9d4 0112 	ldrd	r0, r1, [r4, #72]	; 0x48
 8009380:	2300      	movs	r3, #0
 8009382:	f7f7 fba9 	bl	8000ad8 <__aeabi_dcmpeq>
 8009386:	b9c8      	cbnz	r0, 80093bc <_printf_float+0x420>
 8009388:	4653      	mov	r3, sl
 800938a:	4642      	mov	r2, r8
 800938c:	4631      	mov	r1, r6
 800938e:	4628      	mov	r0, r5
 8009390:	47b8      	blx	r7
 8009392:	3001      	adds	r0, #1
 8009394:	d10e      	bne.n	80093b4 <_printf_float+0x418>
 8009396:	e65e      	b.n	8009056 <_printf_float+0xba>
 8009398:	2301      	movs	r3, #1
 800939a:	4652      	mov	r2, sl
 800939c:	4631      	mov	r1, r6
 800939e:	4628      	mov	r0, r5
 80093a0:	47b8      	blx	r7
 80093a2:	3001      	adds	r0, #1
 80093a4:	f43f ae57 	beq.w	8009056 <_printf_float+0xba>
 80093a8:	f108 0801 	add.w	r8, r8, #1
 80093ac:	9b0a      	ldr	r3, [sp, #40]	; 0x28
 80093ae:	3b01      	subs	r3, #1
 80093b0:	4543      	cmp	r3, r8
 80093b2:	dcf1      	bgt.n	8009398 <_printf_float+0x3fc>
 80093b4:	464b      	mov	r3, r9
 80093b6:	f104 0250 	add.w	r2, r4, #80	; 0x50
 80093ba:	e6de      	b.n	800917a <_printf_float+0x1de>
 80093bc:	f04f 0800 	mov.w	r8, #0
 80093c0:	f104 0a1a 	add.w	sl, r4, #26
 80093c4:	e7f2      	b.n	80093ac <_printf_float+0x410>
 80093c6:	2301      	movs	r3, #1
 80093c8:	e7df      	b.n	800938a <_printf_float+0x3ee>
 80093ca:	2301      	movs	r3, #1
 80093cc:	464a      	mov	r2, r9
 80093ce:	4631      	mov	r1, r6
 80093d0:	4628      	mov	r0, r5
 80093d2:	47b8      	blx	r7
 80093d4:	3001      	adds	r0, #1
 80093d6:	f43f ae3e 	beq.w	8009056 <_printf_float+0xba>
 80093da:	f108 0801 	add.w	r8, r8, #1
 80093de:	68e3      	ldr	r3, [r4, #12]
 80093e0:	9a0b      	ldr	r2, [sp, #44]	; 0x2c
 80093e2:	1a9b      	subs	r3, r3, r2
 80093e4:	4543      	cmp	r3, r8
 80093e6:	dcf0      	bgt.n	80093ca <_printf_float+0x42e>
 80093e8:	e6fc      	b.n	80091e4 <_printf_float+0x248>
 80093ea:	f04f 0800 	mov.w	r8, #0
 80093ee:	f104 0919 	add.w	r9, r4, #25
 80093f2:	e7f4      	b.n	80093de <_printf_float+0x442>
 80093f4:	2900      	cmp	r1, #0
 80093f6:	f43f ae8b 	beq.w	8009110 <_printf_float+0x174>
 80093fa:	2300      	movs	r3, #0
 80093fc:	e9cd 0302 	strd	r0, r3, [sp, #8]
 8009400:	ab09      	add	r3, sp, #36	; 0x24
 8009402:	9300      	str	r3, [sp, #0]
 8009404:	ec49 8b10 	vmov	d0, r8, r9
 8009408:	6022      	str	r2, [r4, #0]
 800940a:	f8cd a004 	str.w	sl, [sp, #4]
 800940e:	f10d 0323 	add.w	r3, sp, #35	; 0x23
 8009412:	4628      	mov	r0, r5
 8009414:	f7ff fd2e 	bl	8008e74 <__cvt>
 8009418:	4680      	mov	r8, r0
 800941a:	e648      	b.n	80090ae <_printf_float+0x112>

0800941c <_printf_common>:
 800941c:	e92d 47f0 	stmdb	sp!, {r4, r5, r6, r7, r8, r9, sl, lr}
 8009420:	4691      	mov	r9, r2
 8009422:	461f      	mov	r7, r3
 8009424:	688a      	ldr	r2, [r1, #8]
 8009426:	690b      	ldr	r3, [r1, #16]
 8009428:	f8dd 8020 	ldr.w	r8, [sp, #32]
 800942c:	4293      	cmp	r3, r2
 800942e:	bfb8      	it	lt
 8009430:	4613      	movlt	r3, r2
 8009432:	f8c9 3000 	str.w	r3, [r9]
 8009436:	f891 2043 	ldrb.w	r2, [r1, #67]	; 0x43
 800943a:	4606      	mov	r6, r0
 800943c:	460c      	mov	r4, r1
 800943e:	b112      	cbz	r2, 8009446 <_printf_common+0x2a>
 8009440:	3301      	adds	r3, #1
 8009442:	f8c9 3000 	str.w	r3, [r9]
 8009446:	6823      	ldr	r3, [r4, #0]
 8009448:	0699      	lsls	r1, r3, #26
 800944a:	bf42      	ittt	mi
 800944c:	f8d9 3000 	ldrmi.w	r3, [r9]
 8009450:	3302      	addmi	r3, #2
 8009452:	f8c9 3000 	strmi.w	r3, [r9]
 8009456:	6825      	ldr	r5, [r4, #0]
 8009458:	f015 0506 	ands.w	r5, r5, #6
 800945c:	d107      	bne.n	800946e <_printf_common+0x52>
 800945e:	f104 0a19 	add.w	sl, r4, #25
 8009462:	68e3      	ldr	r3, [r4, #12]
 8009464:	f8d9 2000 	ldr.w	r2, [r9]
 8009468:	1a9b      	subs	r3, r3, r2
 800946a:	42ab      	cmp	r3, r5
 800946c:	dc28      	bgt.n	80094c0 <_printf_common+0xa4>
 800946e:	f894 3043 	ldrb.w	r3, [r4, #67]	; 0x43
 8009472:	6822      	ldr	r2, [r4, #0]
 8009474:	3300      	adds	r3, #0
 8009476:	bf18      	it	ne
 8009478:	2301      	movne	r3, #1
 800947a:	0692      	lsls	r2, r2, #26
 800947c:	d42d      	bmi.n	80094da <_printf_common+0xbe>
 800947e:	f104 0243 	add.w	r2, r4, #67	; 0x43
 8009482:	4639      	mov	r1, r7
 8009484:	4630      	mov	r0, r6
 8009486:	47c0      	blx	r8
 8009488:	3001      	adds	r0, #1
 800948a:	d020      	beq.n	80094ce <_printf_common+0xb2>
 800948c:	6823      	ldr	r3, [r4, #0]
 800948e:	68e5      	ldr	r5, [r4, #12]
 8009490:	f8d9 2000 	ldr.w	r2, [r9]
 8009494:	f003 0306 	and.w	r3, r3, #6
 8009498:	2b04      	cmp	r3, #4
 800949a:	bf08      	it	eq
 800949c:	1aad      	subeq	r5, r5, r2
 800949e:	68a3      	ldr	r3, [r4, #8]
 80094a0:	6922      	ldr	r2, [r4, #16]
 80094a2:	bf0c      	ite	eq
 80094a4:	ea25 75e5 	biceq.w	r5, r5, r5, asr #31
 80094a8:	2500      	movne	r5, #0
 80094aa:	4293      	cmp	r3, r2
 80094ac:	bfc4      	itt	gt
 80094ae:	1a9b      	subgt	r3, r3, r2
 80094b0:	18ed      	addgt	r5, r5, r3
 80094b2:	f04f 0900 	mov.w	r9, #0
 80094b6:	341a      	adds	r4, #26
 80094b8:	454d      	cmp	r5, r9
 80094ba:	d11a      	bne.n	80094f2 <_printf_common+0xd6>
 80094bc:	2000      	movs	r0, #0
 80094be:	e008      	b.n	80094d2 <_printf_common+0xb6>
 80094c0:	2301      	movs	r3, #1
 80094c2:	4652      	mov	r2, sl
 80094c4:	4639      	mov	r1, r7
 80094c6:	4630      	mov	r0, r6
 80094c8:	47c0      	blx	r8
 80094ca:	3001      	adds	r0, #1
 80094cc:	d103      	bne.n	80094d6 <_printf_common+0xba>
 80094ce:	f04f 30ff 	mov.w	r0, #4294967295
 80094d2:	e8bd 87f0 	ldmia.w	sp!, {r4, r5, r6, r7, r8, r9, sl, pc}
 80094d6:	3501      	adds	r5, #1
 80094d8:	e7c3      	b.n	8009462 <_printf_common+0x46>
 80094da:	18e1      	adds	r1, r4, r3
 80094dc:	1c5a      	adds	r2, r3, #1
 80094de:	2030      	movs	r0, #48	; 0x30
 80094e0:	f881 0043 	strb.w	r0, [r1, #67]	; 0x43
 80094e4:	4422      	add	r2, r4
 80094e6:	f894 1045 	ldrb.w	r1, [r4, #69]	; 0x45
 80094ea:	f882 1043 	strb.w	r1, [r2, #67]	; 0x43
 80094ee:	3302      	adds	r3, #2
 80094f0:	e7c5      	b.n	800947e <_printf_common+0x62>
 80094f2:	2301      	movs	r3, #1
 80094f4:	4622      	mov	r2, r4
 80094f6:	4639      	mov	r1, r7
 80094f8:	4630      	mov	r0, r6
 80094fa:	47c0      	blx	r8
 80094fc:	3001      	adds	r0, #1
 80094fe:	d0e6      	beq.n	80094ce <_printf_common+0xb2>
 8009500:	f109 0901 	add.w	r9, r9, #1
 8009504:	e7d8      	b.n	80094b8 <_printf_common+0x9c>
	...

08009508 <_printf_i>:
 8009508:	e92d 43f0 	stmdb	sp!, {r4, r5, r6, r7, r8, r9, lr}
 800950c:	f101 0c43 	add.w	ip, r1, #67	; 0x43
 8009510:	460c      	mov	r4, r1
 8009512:	7e09      	ldrb	r1, [r1, #24]
 8009514:	b085      	sub	sp, #20
 8009516:	296e      	cmp	r1, #110	; 0x6e
 8009518:	4617      	mov	r7, r2
 800951a:	4606      	mov	r6, r0
 800951c:	4698      	mov	r8, r3
 800951e:	9a0c      	ldr	r2, [sp, #48]	; 0x30
 8009520:	f000 80b3 	beq.w	800968a <_printf_i+0x182>
 8009524:	d822      	bhi.n	800956c <_printf_i+0x64>
 8009526:	2963      	cmp	r1, #99	; 0x63
 8009528:	d036      	beq.n	8009598 <_printf_i+0x90>
 800952a:	d80a      	bhi.n	8009542 <_printf_i+0x3a>
 800952c:	2900      	cmp	r1, #0
 800952e:	f000 80b9 	beq.w	80096a4 <_printf_i+0x19c>
 8009532:	2958      	cmp	r1, #88	; 0x58
 8009534:	f000 8083 	beq.w	800963e <_printf_i+0x136>
 8009538:	f104 0542 	add.w	r5, r4, #66	; 0x42
 800953c:	f884 1042 	strb.w	r1, [r4, #66]	; 0x42
 8009540:	e032      	b.n	80095a8 <_printf_i+0xa0>
 8009542:	2964      	cmp	r1, #100	; 0x64
 8009544:	d001      	beq.n	800954a <_printf_i+0x42>
 8009546:	2969      	cmp	r1, #105	; 0x69
 8009548:	d1f6      	bne.n	8009538 <_printf_i+0x30>
 800954a:	6820      	ldr	r0, [r4, #0]
 800954c:	6813      	ldr	r3, [r2, #0]
 800954e:	0605      	lsls	r5, r0, #24
 8009550:	f103 0104 	add.w	r1, r3, #4
 8009554:	d52a      	bpl.n	80095ac <_printf_i+0xa4>
 8009556:	681b      	ldr	r3, [r3, #0]
 8009558:	6011      	str	r1, [r2, #0]
 800955a:	2b00      	cmp	r3, #0
 800955c:	da03      	bge.n	8009566 <_printf_i+0x5e>
 800955e:	222d      	movs	r2, #45	; 0x2d
 8009560:	425b      	negs	r3, r3
 8009562:	f884 2043 	strb.w	r2, [r4, #67]	; 0x43
 8009566:	486f      	ldr	r0, [pc, #444]	; (8009724 <_printf_i+0x21c>)
 8009568:	220a      	movs	r2, #10
 800956a:	e039      	b.n	80095e0 <_printf_i+0xd8>
 800956c:	2973      	cmp	r1, #115	; 0x73
 800956e:	f000 809d 	beq.w	80096ac <_printf_i+0x1a4>
 8009572:	d808      	bhi.n	8009586 <_printf_i+0x7e>
 8009574:	296f      	cmp	r1, #111	; 0x6f
 8009576:	d020      	beq.n	80095ba <_printf_i+0xb2>
 8009578:	2970      	cmp	r1, #112	; 0x70
 800957a:	d1dd      	bne.n	8009538 <_printf_i+0x30>
 800957c:	6823      	ldr	r3, [r4, #0]
 800957e:	f043 0320 	orr.w	r3, r3, #32
 8009582:	6023      	str	r3, [r4, #0]
 8009584:	e003      	b.n	800958e <_printf_i+0x86>
 8009586:	2975      	cmp	r1, #117	; 0x75
 8009588:	d017      	beq.n	80095ba <_printf_i+0xb2>
 800958a:	2978      	cmp	r1, #120	; 0x78
 800958c:	d1d4      	bne.n	8009538 <_printf_i+0x30>
 800958e:	2378      	movs	r3, #120	; 0x78
 8009590:	f884 3045 	strb.w	r3, [r4, #69]	; 0x45
 8009594:	4864      	ldr	r0, [pc, #400]	; (8009728 <_printf_i+0x220>)
 8009596:	e055      	b.n	8009644 <_printf_i+0x13c>
 8009598:	6813      	ldr	r3, [r2, #0]
 800959a:	1d19      	adds	r1, r3, #4
 800959c:	681b      	ldr	r3, [r3, #0]
 800959e:	6011      	str	r1, [r2, #0]
 80095a0:	f104 0542 	add.w	r5, r4, #66	; 0x42
 80095a4:	f884 3042 	strb.w	r3, [r4, #66]	; 0x42
 80095a8:	2301      	movs	r3, #1
 80095aa:	e08c      	b.n	80096c6 <_printf_i+0x1be>
 80095ac:	681b      	ldr	r3, [r3, #0]
 80095ae:	6011      	str	r1, [r2, #0]
 80095b0:	f010 0f40 	tst.w	r0, #64	; 0x40
 80095b4:	bf18      	it	ne
 80095b6:	b21b      	sxthne	r3, r3
 80095b8:	e7cf      	b.n	800955a <_printf_i+0x52>
 80095ba:	6813      	ldr	r3, [r2, #0]
 80095bc:	6825      	ldr	r5, [r4, #0]
 80095be:	1d18      	adds	r0, r3, #4
 80095c0:	6010      	str	r0, [r2, #0]
 80095c2:	0628      	lsls	r0, r5, #24
 80095c4:	d501      	bpl.n	80095ca <_printf_i+0xc2>
 80095c6:	681b      	ldr	r3, [r3, #0]
 80095c8:	e002      	b.n	80095d0 <_printf_i+0xc8>
 80095ca:	0668      	lsls	r0, r5, #25
 80095cc:	d5fb      	bpl.n	80095c6 <_printf_i+0xbe>
 80095ce:	881b      	ldrh	r3, [r3, #0]
 80095d0:	4854      	ldr	r0, [pc, #336]	; (8009724 <_printf_i+0x21c>)
 80095d2:	296f      	cmp	r1, #111	; 0x6f
 80095d4:	bf14      	ite	ne
 80095d6:	220a      	movne	r2, #10
 80095d8:	2208      	moveq	r2, #8
 80095da:	2100      	movs	r1, #0
 80095dc:	f884 1043 	strb.w	r1, [r4, #67]	; 0x43
 80095e0:	6865      	ldr	r5, [r4, #4]
 80095e2:	60a5      	str	r5, [r4, #8]
 80095e4:	2d00      	cmp	r5, #0
 80095e6:	f2c0 8095 	blt.w	8009714 <_printf_i+0x20c>
 80095ea:	6821      	ldr	r1, [r4, #0]
 80095ec:	f021 0104 	bic.w	r1, r1, #4
 80095f0:	6021      	str	r1, [r4, #0]
 80095f2:	2b00      	cmp	r3, #0
 80095f4:	d13d      	bne.n	8009672 <_printf_i+0x16a>
 80095f6:	2d00      	cmp	r5, #0
 80095f8:	f040 808e 	bne.w	8009718 <_printf_i+0x210>
 80095fc:	4665      	mov	r5, ip
 80095fe:	2a08      	cmp	r2, #8
 8009600:	d10b      	bne.n	800961a <_printf_i+0x112>
 8009602:	6823      	ldr	r3, [r4, #0]
 8009604:	07db      	lsls	r3, r3, #31
 8009606:	d508      	bpl.n	800961a <_printf_i+0x112>
 8009608:	6923      	ldr	r3, [r4, #16]
 800960a:	6862      	ldr	r2, [r4, #4]
 800960c:	429a      	cmp	r2, r3
 800960e:	bfde      	ittt	le
 8009610:	2330      	movle	r3, #48	; 0x30
 8009612:	f805 3c01 	strble.w	r3, [r5, #-1]
 8009616:	f105 35ff 	addle.w	r5, r5, #4294967295
 800961a:	ebac 0305 	sub.w	r3, ip, r5
 800961e:	6123      	str	r3, [r4, #16]
 8009620:	f8cd 8000 	str.w	r8, [sp]
 8009624:	463b      	mov	r3, r7
 8009626:	aa03      	add	r2, sp, #12
 8009628:	4621      	mov	r1, r4
 800962a:	4630      	mov	r0, r6
 800962c:	f7ff fef6 	bl	800941c <_printf_common>
 8009630:	3001      	adds	r0, #1
 8009632:	d14d      	bne.n	80096d0 <_printf_i+0x1c8>
 8009634:	f04f 30ff 	mov.w	r0, #4294967295
 8009638:	b005      	add	sp, #20
 800963a:	e8bd 83f0 	ldmia.w	sp!, {r4, r5, r6, r7, r8, r9, pc}
 800963e:	4839      	ldr	r0, [pc, #228]	; (8009724 <_printf_i+0x21c>)
 8009640:	f884 1045 	strb.w	r1, [r4, #69]	; 0x45
 8009644:	6813      	ldr	r3, [r2, #0]
 8009646:	6821      	ldr	r1, [r4, #0]
 8009648:	1d1d      	adds	r5, r3, #4
 800964a:	681b      	ldr	r3, [r3, #0]
 800964c:	6015      	str	r5, [r2, #0]
 800964e:	060a      	lsls	r2, r1, #24
 8009650:	d50b      	bpl.n	800966a <_printf_i+0x162>
 8009652:	07ca      	lsls	r2, r1, #31
 8009654:	bf44      	itt	mi
 8009656:	f041 0120 	orrmi.w	r1, r1, #32
 800965a:	6021      	strmi	r1, [r4, #0]
 800965c:	b91b      	cbnz	r3, 8009666 <_printf_i+0x15e>
 800965e:	6822      	ldr	r2, [r4, #0]
 8009660:	f022 0220 	bic.w	r2, r2, #32
 8009664:	6022      	str	r2, [r4, #0]
 8009666:	2210      	movs	r2, #16
 8009668:	e7b7      	b.n	80095da <_printf_i+0xd2>
 800966a:	064d      	lsls	r5, r1, #25
 800966c:	bf48      	it	mi
 800966e:	b29b      	uxthmi	r3, r3
 8009670:	e7ef      	b.n	8009652 <_printf_i+0x14a>
 8009672:	4665      	mov	r5, ip
 8009674:	fbb3 f1f2 	udiv	r1, r3, r2
 8009678:	fb02 3311 	mls	r3, r2, r1, r3
 800967c:	5cc3      	ldrb	r3, [r0, r3]
 800967e:	f805 3d01 	strb.w	r3, [r5, #-1]!
 8009682:	460b      	mov	r3, r1
 8009684:	2900      	cmp	r1, #0
 8009686:	d1f5      	bne.n	8009674 <_printf_i+0x16c>
 8009688:	e7b9      	b.n	80095fe <_printf_i+0xf6>
 800968a:	6813      	ldr	r3, [r2, #0]
 800968c:	6825      	ldr	r5, [r4, #0]
 800968e:	6961      	ldr	r1, [r4, #20]
 8009690:	1d18      	adds	r0, r3, #4
 8009692:	6010      	str	r0, [r2, #0]
 8009694:	0628      	lsls	r0, r5, #24
 8009696:	681b      	ldr	r3, [r3, #0]
 8009698:	d501      	bpl.n	800969e <_printf_i+0x196>
 800969a:	6019      	str	r1, [r3, #0]
 800969c:	e002      	b.n	80096a4 <_printf_i+0x19c>
 800969e:	066a      	lsls	r2, r5, #25
 80096a0:	d5fb      	bpl.n	800969a <_printf_i+0x192>
 80096a2:	8019      	strh	r1, [r3, #0]
 80096a4:	2300      	movs	r3, #0
 80096a6:	6123      	str	r3, [r4, #16]
 80096a8:	4665      	mov	r5, ip
 80096aa:	e7b9      	b.n	8009620 <_printf_i+0x118>
 80096ac:	6813      	ldr	r3, [r2, #0]
 80096ae:	1d19      	adds	r1, r3, #4
 80096b0:	6011      	str	r1, [r2, #0]
 80096b2:	681d      	ldr	r5, [r3, #0]
 80096b4:	6862      	ldr	r2, [r4, #4]
 80096b6:	2100      	movs	r1, #0
 80096b8:	4628      	mov	r0, r5
 80096ba:	f7f6 fd99 	bl	80001f0 <memchr>
 80096be:	b108      	cbz	r0, 80096c4 <_printf_i+0x1bc>
 80096c0:	1b40      	subs	r0, r0, r5
 80096c2:	6060      	str	r0, [r4, #4]
 80096c4:	6863      	ldr	r3, [r4, #4]
 80096c6:	6123      	str	r3, [r4, #16]
 80096c8:	2300      	movs	r3, #0
 80096ca:	f884 3043 	strb.w	r3, [r4, #67]	; 0x43
 80096ce:	e7a7      	b.n	8009620 <_printf_i+0x118>
 80096d0:	6923      	ldr	r3, [r4, #16]
 80096d2:	462a      	mov	r2, r5
 80096d4:	4639      	mov	r1, r7
 80096d6:	4630      	mov	r0, r6
 80096d8:	47c0      	blx	r8
 80096da:	3001      	adds	r0, #1
 80096dc:	d0aa      	beq.n	8009634 <_printf_i+0x12c>
 80096de:	6823      	ldr	r3, [r4, #0]
 80096e0:	079b      	lsls	r3, r3, #30
 80096e2:	d413      	bmi.n	800970c <_printf_i+0x204>
 80096e4:	68e0      	ldr	r0, [r4, #12]
 80096e6:	9b03      	ldr	r3, [sp, #12]
 80096e8:	4298      	cmp	r0, r3
 80096ea:	bfb8      	it	lt
 80096ec:	4618      	movlt	r0, r3
 80096ee:	e7a3      	b.n	8009638 <_printf_i+0x130>
 80096f0:	2301      	movs	r3, #1
 80096f2:	464a      	mov	r2, r9
 80096f4:	4639      	mov	r1, r7
 80096f6:	4630      	mov	r0, r6
 80096f8:	47c0      	blx	r8
 80096fa:	3001      	adds	r0, #1
 80096fc:	d09a      	beq.n	8009634 <_printf_i+0x12c>
 80096fe:	3501      	adds	r5, #1
 8009700:	68e3      	ldr	r3, [r4, #12]
 8009702:	9a03      	ldr	r2, [sp, #12]
 8009704:	1a9b      	subs	r3, r3, r2
 8009706:	42ab      	cmp	r3, r5
 8009708:	dcf2      	bgt.n	80096f0 <_printf_i+0x1e8>
 800970a:	e7eb      	b.n	80096e4 <_printf_i+0x1dc>
 800970c:	2500      	movs	r5, #0
 800970e:	f104 0919 	add.w	r9, r4, #25
 8009712:	e7f5      	b.n	8009700 <_printf_i+0x1f8>
 8009714:	2b00      	cmp	r3, #0
 8009716:	d1ac      	bne.n	8009672 <_printf_i+0x16a>
 8009718:	7803      	ldrb	r3, [r0, #0]
 800971a:	f884 3042 	strb.w	r3, [r4, #66]	; 0x42
 800971e:	f104 0542 	add.w	r5, r4, #66	; 0x42
 8009722:	e76c      	b.n	80095fe <_printf_i+0xf6>
 8009724:	0800b9c0 	.word	0x0800b9c0
 8009728:	0800b9d1 	.word	0x0800b9d1

0800972c <cleanup_glue>:
 800972c:	b538      	push	{r3, r4, r5, lr}
 800972e:	460c      	mov	r4, r1
 8009730:	6809      	ldr	r1, [r1, #0]
 8009732:	4605      	mov	r5, r0
 8009734:	b109      	cbz	r1, 800973a <cleanup_glue+0xe>
 8009736:	f7ff fff9 	bl	800972c <cleanup_glue>
 800973a:	4621      	mov	r1, r4
 800973c:	4628      	mov	r0, r5
 800973e:	e8bd 4038 	ldmia.w	sp!, {r3, r4, r5, lr}
 8009742:	f7ff baef 	b.w	8008d24 <_free_r>
	...

08009748 <_reclaim_reent>:
 8009748:	4b2c      	ldr	r3, [pc, #176]	; (80097fc <_reclaim_reent+0xb4>)
 800974a:	681b      	ldr	r3, [r3, #0]
 800974c:	4283      	cmp	r3, r0
 800974e:	b570      	push	{r4, r5, r6, lr}
 8009750:	4604      	mov	r4, r0
 8009752:	d051      	beq.n	80097f8 <_reclaim_reent+0xb0>
 8009754:	6a43      	ldr	r3, [r0, #36]	; 0x24
 8009756:	b143      	cbz	r3, 800976a <_reclaim_reent+0x22>
 8009758:	68db      	ldr	r3, [r3, #12]
 800975a:	2b00      	cmp	r3, #0
 800975c:	d14a      	bne.n	80097f4 <_reclaim_reent+0xac>
 800975e:	6a63      	ldr	r3, [r4, #36]	; 0x24
 8009760:	6819      	ldr	r1, [r3, #0]
 8009762:	b111      	cbz	r1, 800976a <_reclaim_reent+0x22>
 8009764:	4620      	mov	r0, r4
 8009766:	f7ff fadd 	bl	8008d24 <_free_r>
 800976a:	6961      	ldr	r1, [r4, #20]
 800976c:	b111      	cbz	r1, 8009774 <_reclaim_reent+0x2c>
 800976e:	4620      	mov	r0, r4
 8009770:	f7ff fad8 	bl	8008d24 <_free_r>
 8009774:	6a61      	ldr	r1, [r4, #36]	; 0x24
 8009776:	b111      	cbz	r1, 800977e <_reclaim_reent+0x36>
 8009778:	4620      	mov	r0, r4
 800977a:	f7ff fad3 	bl	8008d24 <_free_r>
 800977e:	6ba1      	ldr	r1, [r4, #56]	; 0x38
 8009780:	b111      	cbz	r1, 8009788 <_reclaim_reent+0x40>
 8009782:	4620      	mov	r0, r4
 8009784:	f7ff face 	bl	8008d24 <_free_r>
 8009788:	6be1      	ldr	r1, [r4, #60]	; 0x3c
 800978a:	b111      	cbz	r1, 8009792 <_reclaim_reent+0x4a>
 800978c:	4620      	mov	r0, r4
 800978e:	f7ff fac9 	bl	8008d24 <_free_r>
 8009792:	6c21      	ldr	r1, [r4, #64]	; 0x40
 8009794:	b111      	cbz	r1, 800979c <_reclaim_reent+0x54>
 8009796:	4620      	mov	r0, r4
 8009798:	f7ff fac4 	bl	8008d24 <_free_r>
 800979c:	6de1      	ldr	r1, [r4, #92]	; 0x5c
 800979e:	b111      	cbz	r1, 80097a6 <_reclaim_reent+0x5e>
 80097a0:	4620      	mov	r0, r4
 80097a2:	f7ff fabf 	bl	8008d24 <_free_r>
 80097a6:	6da1      	ldr	r1, [r4, #88]	; 0x58
 80097a8:	b111      	cbz	r1, 80097b0 <_reclaim_reent+0x68>
 80097aa:	4620      	mov	r0, r4
 80097ac:	f7ff faba 	bl	8008d24 <_free_r>
 80097b0:	6b61      	ldr	r1, [r4, #52]	; 0x34
 80097b2:	b111      	cbz	r1, 80097ba <_reclaim_reent+0x72>
 80097b4:	4620      	mov	r0, r4
 80097b6:	f7ff fab5 	bl	8008d24 <_free_r>
 80097ba:	69a3      	ldr	r3, [r4, #24]
 80097bc:	b1e3      	cbz	r3, 80097f8 <_reclaim_reent+0xb0>
 80097be:	6aa3      	ldr	r3, [r4, #40]	; 0x28
 80097c0:	4620      	mov	r0, r4
 80097c2:	4798      	blx	r3
 80097c4:	6ca1      	ldr	r1, [r4, #72]	; 0x48
 80097c6:	b1b9      	cbz	r1, 80097f8 <_reclaim_reent+0xb0>
 80097c8:	4620      	mov	r0, r4
 80097ca:	e8bd 4070 	ldmia.w	sp!, {r4, r5, r6, lr}
 80097ce:	f7ff bfad 	b.w	800972c <cleanup_glue>
 80097d2:	5949      	ldr	r1, [r1, r5]
 80097d4:	b941      	cbnz	r1, 80097e8 <_reclaim_reent+0xa0>
 80097d6:	3504      	adds	r5, #4
 80097d8:	6a63      	ldr	r3, [r4, #36]	; 0x24
 80097da:	2d80      	cmp	r5, #128	; 0x80
 80097dc:	68d9      	ldr	r1, [r3, #12]
 80097de:	d1f8      	bne.n	80097d2 <_reclaim_reent+0x8a>
 80097e0:	4620      	mov	r0, r4
 80097e2:	f7ff fa9f 	bl	8008d24 <_free_r>
 80097e6:	e7ba      	b.n	800975e <_reclaim_reent+0x16>
 80097e8:	680e      	ldr	r6, [r1, #0]
 80097ea:	4620      	mov	r0, r4
 80097ec:	f7ff fa9a 	bl	8008d24 <_free_r>
 80097f0:	4631      	mov	r1, r6
 80097f2:	e7ef      	b.n	80097d4 <_reclaim_reent+0x8c>
 80097f4:	2500      	movs	r5, #0
 80097f6:	e7ef      	b.n	80097d8 <_reclaim_reent+0x90>
 80097f8:	bd70      	pop	{r4, r5, r6, pc}
 80097fa:	bf00      	nop
 80097fc:	20000094 	.word	0x20000094

08009800 <siprintf>:
 8009800:	b40e      	push	{r1, r2, r3}
 8009802:	b500      	push	{lr}
 8009804:	b09c      	sub	sp, #112	; 0x70
 8009806:	ab1d      	add	r3, sp, #116	; 0x74
 8009808:	9002      	str	r0, [sp, #8]
 800980a:	9006      	str	r0, [sp, #24]
 800980c:	f06f 4100 	mvn.w	r1, #2147483648	; 0x80000000
 8009810:	4809      	ldr	r0, [pc, #36]	; (8009838 <siprintf+0x38>)
 8009812:	9107      	str	r1, [sp, #28]
 8009814:	9104      	str	r1, [sp, #16]
 8009816:	4909      	ldr	r1, [pc, #36]	; (800983c <siprintf+0x3c>)
 8009818:	f853 2b04 	ldr.w	r2, [r3], #4
 800981c:	9105      	str	r1, [sp, #20]
 800981e:	6800      	ldr	r0, [r0, #0]
 8009820:	9301      	str	r3, [sp, #4]
 8009822:	a902      	add	r1, sp, #8
 8009824:	f001 fac8 	bl	800adb8 <_svfiprintf_r>
 8009828:	9b02      	ldr	r3, [sp, #8]
 800982a:	2200      	movs	r2, #0
 800982c:	701a      	strb	r2, [r3, #0]
 800982e:	b01c      	add	sp, #112	; 0x70
 8009830:	f85d eb04 	ldr.w	lr, [sp], #4
 8009834:	b003      	add	sp, #12
 8009836:	4770      	bx	lr
 8009838:	20000094 	.word	0x20000094
 800983c:	ffff0208 	.word	0xffff0208

08009840 <strncmp>:
 8009840:	b510      	push	{r4, lr}
 8009842:	b16a      	cbz	r2, 8009860 <strncmp+0x20>
 8009844:	3901      	subs	r1, #1
 8009846:	1884      	adds	r4, r0, r2
 8009848:	f810 3b01 	ldrb.w	r3, [r0], #1
 800984c:	f811 2f01 	ldrb.w	r2, [r1, #1]!
 8009850:	4293      	cmp	r3, r2
 8009852:	d103      	bne.n	800985c <strncmp+0x1c>
 8009854:	42a0      	cmp	r0, r4
 8009856:	d001      	beq.n	800985c <strncmp+0x1c>
 8009858:	2b00      	cmp	r3, #0
 800985a:	d1f5      	bne.n	8009848 <strncmp+0x8>
 800985c:	1a98      	subs	r0, r3, r2
 800985e:	bd10      	pop	{r4, pc}
 8009860:	4610      	mov	r0, r2
 8009862:	e7fc      	b.n	800985e <strncmp+0x1e>

08009864 <strncpy>:
 8009864:	b570      	push	{r4, r5, r6, lr}
 8009866:	3901      	subs	r1, #1
 8009868:	4604      	mov	r4, r0
 800986a:	b902      	cbnz	r2, 800986e <strncpy+0xa>
 800986c:	bd70      	pop	{r4, r5, r6, pc}
 800986e:	4623      	mov	r3, r4
 8009870:	f811 5f01 	ldrb.w	r5, [r1, #1]!
 8009874:	f803 5b01 	strb.w	r5, [r3], #1
 8009878:	1e56      	subs	r6, r2, #1
 800987a:	b92d      	cbnz	r5, 8009888 <strncpy+0x24>
 800987c:	4414      	add	r4, r2
 800987e:	42a3      	cmp	r3, r4
 8009880:	d0f4      	beq.n	800986c <strncpy+0x8>
 8009882:	f803 5b01 	strb.w	r5, [r3], #1
 8009886:	e7fa      	b.n	800987e <strncpy+0x1a>
 8009888:	461c      	mov	r4, r3
 800988a:	4632      	mov	r2, r6
 800988c:	e7ed      	b.n	800986a <strncpy+0x6>
	...

08009890 <strtok>:
 8009890:	4b13      	ldr	r3, [pc, #76]	; (80098e0 <strtok+0x50>)
 8009892:	e92d 41f0 	stmdb	sp!, {r4, r5, r6, r7, r8, lr}
 8009896:	681d      	ldr	r5, [r3, #0]
 8009898:	6dac      	ldr	r4, [r5, #88]	; 0x58
 800989a:	4606      	mov	r6, r0
 800989c:	460f      	mov	r7, r1
 800989e:	b9b4      	cbnz	r4, 80098ce <strtok+0x3e>
 80098a0:	2050      	movs	r0, #80	; 0x50
 80098a2:	f7ff fa1b 	bl	8008cdc <malloc>
 80098a6:	65a8      	str	r0, [r5, #88]	; 0x58
 80098a8:	e9c0 4400 	strd	r4, r4, [r0]
 80098ac:	e9c0 4402 	strd	r4, r4, [r0, #8]
 80098b0:	e9c0 4404 	strd	r4, r4, [r0, #16]
 80098b4:	e9c0 440a 	strd	r4, r4, [r0, #40]	; 0x28
 80098b8:	e9c0 440c 	strd	r4, r4, [r0, #48]	; 0x30
 80098bc:	e9c0 440e 	strd	r4, r4, [r0, #56]	; 0x38
 80098c0:	e9c0 4410 	strd	r4, r4, [r0, #64]	; 0x40
 80098c4:	e9c0 4412 	strd	r4, r4, [r0, #72]	; 0x48
 80098c8:	6184      	str	r4, [r0, #24]
 80098ca:	7704      	strb	r4, [r0, #28]
 80098cc:	6244      	str	r4, [r0, #36]	; 0x24
 80098ce:	6daa      	ldr	r2, [r5, #88]	; 0x58
 80098d0:	4639      	mov	r1, r7
 80098d2:	4630      	mov	r0, r6
 80098d4:	2301      	movs	r3, #1
 80098d6:	e8bd 41f0 	ldmia.w	sp!, {r4, r5, r6, r7, r8, lr}
 80098da:	f000 b803 	b.w	80098e4 <__strtok_r>
 80098de:	bf00      	nop
 80098e0:	20000094 	.word	0x20000094

080098e4 <__strtok_r>:
 80098e4:	b5f0      	push	{r4, r5, r6, r7, lr}
 80098e6:	b918      	cbnz	r0, 80098f0 <__strtok_r+0xc>
 80098e8:	6810      	ldr	r0, [r2, #0]
 80098ea:	b908      	cbnz	r0, 80098f0 <__strtok_r+0xc>
 80098ec:	bdf0      	pop	{r4, r5, r6, r7, pc}
 80098ee:	4620      	mov	r0, r4
 80098f0:	4604      	mov	r4, r0
 80098f2:	460f      	mov	r7, r1
 80098f4:	f814 5b01 	ldrb.w	r5, [r4], #1
 80098f8:	f817 6b01 	ldrb.w	r6, [r7], #1
 80098fc:	b91e      	cbnz	r6, 8009906 <__strtok_r+0x22>
 80098fe:	b96d      	cbnz	r5, 800991c <__strtok_r+0x38>
 8009900:	6015      	str	r5, [r2, #0]
 8009902:	4628      	mov	r0, r5
 8009904:	e7f2      	b.n	80098ec <__strtok_r+0x8>
 8009906:	42b5      	cmp	r5, r6
 8009908:	d1f6      	bne.n	80098f8 <__strtok_r+0x14>
 800990a:	2b00      	cmp	r3, #0
 800990c:	d1ef      	bne.n	80098ee <__strtok_r+0xa>
 800990e:	6014      	str	r4, [r2, #0]
 8009910:	7003      	strb	r3, [r0, #0]
 8009912:	e7eb      	b.n	80098ec <__strtok_r+0x8>
 8009914:	462b      	mov	r3, r5
 8009916:	e00d      	b.n	8009934 <__strtok_r+0x50>
 8009918:	b926      	cbnz	r6, 8009924 <__strtok_r+0x40>
 800991a:	461c      	mov	r4, r3
 800991c:	4623      	mov	r3, r4
 800991e:	460f      	mov	r7, r1
 8009920:	f813 5b01 	ldrb.w	r5, [r3], #1
 8009924:	f817 6b01 	ldrb.w	r6, [r7], #1
 8009928:	42b5      	cmp	r5, r6
 800992a:	d1f5      	bne.n	8009918 <__strtok_r+0x34>
 800992c:	2d00      	cmp	r5, #0
 800992e:	d0f1      	beq.n	8009914 <__strtok_r+0x30>
 8009930:	2100      	movs	r1, #0
 8009932:	7021      	strb	r1, [r4, #0]
 8009934:	6013      	str	r3, [r2, #0]
 8009936:	e7d9      	b.n	80098ec <__strtok_r+0x8>

08009938 <_strtol_l.isra.0>:
 8009938:	e92d 47f0 	stmdb	sp!, {r4, r5, r6, r7, r8, r9, sl, lr}
 800993c:	4680      	mov	r8, r0
 800993e:	4689      	mov	r9, r1
 8009940:	4692      	mov	sl, r2
 8009942:	461e      	mov	r6, r3
 8009944:	460f      	mov	r7, r1
 8009946:	463d      	mov	r5, r7
 8009948:	9808      	ldr	r0, [sp, #32]
 800994a:	f815 4b01 	ldrb.w	r4, [r5], #1
 800994e:	f000 fecb 	bl	800a6e8 <__locale_ctype_ptr_l>
 8009952:	4420      	add	r0, r4
 8009954:	7843      	ldrb	r3, [r0, #1]
 8009956:	f013 0308 	ands.w	r3, r3, #8
 800995a:	d132      	bne.n	80099c2 <_strtol_l.isra.0+0x8a>
 800995c:	2c2d      	cmp	r4, #45	; 0x2d
 800995e:	d132      	bne.n	80099c6 <_strtol_l.isra.0+0x8e>
 8009960:	787c      	ldrb	r4, [r7, #1]
 8009962:	1cbd      	adds	r5, r7, #2
 8009964:	2201      	movs	r2, #1
 8009966:	2e00      	cmp	r6, #0
 8009968:	d05d      	beq.n	8009a26 <_strtol_l.isra.0+0xee>
 800996a:	2e10      	cmp	r6, #16
 800996c:	d109      	bne.n	8009982 <_strtol_l.isra.0+0x4a>
 800996e:	2c30      	cmp	r4, #48	; 0x30
 8009970:	d107      	bne.n	8009982 <_strtol_l.isra.0+0x4a>
 8009972:	782b      	ldrb	r3, [r5, #0]
 8009974:	f003 03df 	and.w	r3, r3, #223	; 0xdf
 8009978:	2b58      	cmp	r3, #88	; 0x58
 800997a:	d14f      	bne.n	8009a1c <_strtol_l.isra.0+0xe4>
 800997c:	786c      	ldrb	r4, [r5, #1]
 800997e:	2610      	movs	r6, #16
 8009980:	3502      	adds	r5, #2
 8009982:	2a00      	cmp	r2, #0
 8009984:	bf14      	ite	ne
 8009986:	f04f 4100 	movne.w	r1, #2147483648	; 0x80000000
 800998a:	f06f 4100 	mvneq.w	r1, #2147483648	; 0x80000000
 800998e:	2700      	movs	r7, #0
 8009990:	fbb1 fcf6 	udiv	ip, r1, r6
 8009994:	4638      	mov	r0, r7
 8009996:	fb06 1e1c 	mls	lr, r6, ip, r1
 800999a:	f1a4 0330 	sub.w	r3, r4, #48	; 0x30
 800999e:	2b09      	cmp	r3, #9
 80099a0:	d817      	bhi.n	80099d2 <_strtol_l.isra.0+0x9a>
 80099a2:	461c      	mov	r4, r3
 80099a4:	42a6      	cmp	r6, r4
 80099a6:	dd23      	ble.n	80099f0 <_strtol_l.isra.0+0xb8>
 80099a8:	1c7b      	adds	r3, r7, #1
 80099aa:	d007      	beq.n	80099bc <_strtol_l.isra.0+0x84>
 80099ac:	4584      	cmp	ip, r0
 80099ae:	d31c      	bcc.n	80099ea <_strtol_l.isra.0+0xb2>
 80099b0:	d101      	bne.n	80099b6 <_strtol_l.isra.0+0x7e>
 80099b2:	45a6      	cmp	lr, r4
 80099b4:	db19      	blt.n	80099ea <_strtol_l.isra.0+0xb2>
 80099b6:	fb00 4006 	mla	r0, r0, r6, r4
 80099ba:	2701      	movs	r7, #1
 80099bc:	f815 4b01 	ldrb.w	r4, [r5], #1
 80099c0:	e7eb      	b.n	800999a <_strtol_l.isra.0+0x62>
 80099c2:	462f      	mov	r7, r5
 80099c4:	e7bf      	b.n	8009946 <_strtol_l.isra.0+0xe>
 80099c6:	2c2b      	cmp	r4, #43	; 0x2b
 80099c8:	bf04      	itt	eq
 80099ca:	1cbd      	addeq	r5, r7, #2
 80099cc:	787c      	ldrbeq	r4, [r7, #1]
 80099ce:	461a      	mov	r2, r3
 80099d0:	e7c9      	b.n	8009966 <_strtol_l.isra.0+0x2e>
 80099d2:	f1a4 0341 	sub.w	r3, r4, #65	; 0x41
 80099d6:	2b19      	cmp	r3, #25
 80099d8:	d801      	bhi.n	80099de <_strtol_l.isra.0+0xa6>
 80099da:	3c37      	subs	r4, #55	; 0x37
 80099dc:	e7e2      	b.n	80099a4 <_strtol_l.isra.0+0x6c>
 80099de:	f1a4 0361 	sub.w	r3, r4, #97	; 0x61
 80099e2:	2b19      	cmp	r3, #25
 80099e4:	d804      	bhi.n	80099f0 <_strtol_l.isra.0+0xb8>
 80099e6:	3c57      	subs	r4, #87	; 0x57
 80099e8:	e7dc      	b.n	80099a4 <_strtol_l.isra.0+0x6c>
 80099ea:	f04f 37ff 	mov.w	r7, #4294967295
 80099ee:	e7e5      	b.n	80099bc <_strtol_l.isra.0+0x84>
 80099f0:	1c7b      	adds	r3, r7, #1
 80099f2:	d108      	bne.n	8009a06 <_strtol_l.isra.0+0xce>
 80099f4:	2322      	movs	r3, #34	; 0x22
 80099f6:	f8c8 3000 	str.w	r3, [r8]
 80099fa:	4608      	mov	r0, r1
 80099fc:	f1ba 0f00 	cmp.w	sl, #0
 8009a00:	d107      	bne.n	8009a12 <_strtol_l.isra.0+0xda>
 8009a02:	e8bd 87f0 	ldmia.w	sp!, {r4, r5, r6, r7, r8, r9, sl, pc}
 8009a06:	b102      	cbz	r2, 8009a0a <_strtol_l.isra.0+0xd2>
 8009a08:	4240      	negs	r0, r0
 8009a0a:	f1ba 0f00 	cmp.w	sl, #0
 8009a0e:	d0f8      	beq.n	8009a02 <_strtol_l.isra.0+0xca>
 8009a10:	b10f      	cbz	r7, 8009a16 <_strtol_l.isra.0+0xde>
 8009a12:	f105 39ff 	add.w	r9, r5, #4294967295
 8009a16:	f8ca 9000 	str.w	r9, [sl]
 8009a1a:	e7f2      	b.n	8009a02 <_strtol_l.isra.0+0xca>
 8009a1c:	2430      	movs	r4, #48	; 0x30
 8009a1e:	2e00      	cmp	r6, #0
 8009a20:	d1af      	bne.n	8009982 <_strtol_l.isra.0+0x4a>
 8009a22:	2608      	movs	r6, #8
 8009a24:	e7ad      	b.n	8009982 <_strtol_l.isra.0+0x4a>
 8009a26:	2c30      	cmp	r4, #48	; 0x30
 8009a28:	d0a3      	beq.n	8009972 <_strtol_l.isra.0+0x3a>
 8009a2a:	260a      	movs	r6, #10
 8009a2c:	e7a9      	b.n	8009982 <_strtol_l.isra.0+0x4a>
	...

08009a30 <strtol>:
 8009a30:	4b08      	ldr	r3, [pc, #32]	; (8009a54 <strtol+0x24>)
 8009a32:	b537      	push	{r0, r1, r2, r4, r5, lr}
 8009a34:	681c      	ldr	r4, [r3, #0]
 8009a36:	4d08      	ldr	r5, [pc, #32]	; (8009a58 <strtol+0x28>)
 8009a38:	6a23      	ldr	r3, [r4, #32]
 8009a3a:	2b00      	cmp	r3, #0
 8009a3c:	bf08      	it	eq
 8009a3e:	462b      	moveq	r3, r5
 8009a40:	9300      	str	r3, [sp, #0]
 8009a42:	4613      	mov	r3, r2
 8009a44:	460a      	mov	r2, r1
 8009a46:	4601      	mov	r1, r0
 8009a48:	4620      	mov	r0, r4
 8009a4a:	f7ff ff75 	bl	8009938 <_strtol_l.isra.0>
 8009a4e:	b003      	add	sp, #12
 8009a50:	bd30      	pop	{r4, r5, pc}
 8009a52:	bf00      	nop
 8009a54:	20000094 	.word	0x20000094
 8009a58:	200000f8 	.word	0x200000f8

08009a5c <quorem>:
 8009a5c:	e92d 4ff7 	stmdb	sp!, {r0, r1, r2, r4, r5, r6, r7, r8, r9, sl, fp, lr}
 8009a60:	6903      	ldr	r3, [r0, #16]
 8009a62:	690c      	ldr	r4, [r1, #16]
 8009a64:	42a3      	cmp	r3, r4
 8009a66:	4680      	mov	r8, r0
 8009a68:	f2c0 8082 	blt.w	8009b70 <quorem+0x114>
 8009a6c:	3c01      	subs	r4, #1
 8009a6e:	f101 0714 	add.w	r7, r1, #20
 8009a72:	ea4f 0c84 	mov.w	ip, r4, lsl #2
 8009a76:	f100 0614 	add.w	r6, r0, #20
 8009a7a:	f857 5024 	ldr.w	r5, [r7, r4, lsl #2]
 8009a7e:	f856 0024 	ldr.w	r0, [r6, r4, lsl #2]
 8009a82:	eb06 030c 	add.w	r3, r6, ip
 8009a86:	3501      	adds	r5, #1
 8009a88:	eb07 090c 	add.w	r9, r7, ip
 8009a8c:	9301      	str	r3, [sp, #4]
 8009a8e:	fbb0 f5f5 	udiv	r5, r0, r5
 8009a92:	b395      	cbz	r5, 8009afa <quorem+0x9e>
 8009a94:	f04f 0a00 	mov.w	sl, #0
 8009a98:	4638      	mov	r0, r7
 8009a9a:	46b6      	mov	lr, r6
 8009a9c:	46d3      	mov	fp, sl
 8009a9e:	f850 2b04 	ldr.w	r2, [r0], #4
 8009aa2:	b293      	uxth	r3, r2
 8009aa4:	fb05 a303 	mla	r3, r5, r3, sl
 8009aa8:	ea4f 4a13 	mov.w	sl, r3, lsr #16
 8009aac:	b29b      	uxth	r3, r3
 8009aae:	ebab 0303 	sub.w	r3, fp, r3
 8009ab2:	0c12      	lsrs	r2, r2, #16
 8009ab4:	f8de b000 	ldr.w	fp, [lr]
 8009ab8:	fb05 a202 	mla	r2, r5, r2, sl
 8009abc:	fa13 f38b 	uxtah	r3, r3, fp
 8009ac0:	ea4f 4a12 	mov.w	sl, r2, lsr #16
 8009ac4:	fa1f fb82 	uxth.w	fp, r2
 8009ac8:	f8de 2000 	ldr.w	r2, [lr]
 8009acc:	ebcb 4212 	rsb	r2, fp, r2, lsr #16
 8009ad0:	eb02 4223 	add.w	r2, r2, r3, asr #16
 8009ad4:	b29b      	uxth	r3, r3
 8009ad6:	ea43 4302 	orr.w	r3, r3, r2, lsl #16
 8009ada:	4581      	cmp	r9, r0
 8009adc:	ea4f 4b22 	mov.w	fp, r2, asr #16
 8009ae0:	f84e 3b04 	str.w	r3, [lr], #4
 8009ae4:	d2db      	bcs.n	8009a9e <quorem+0x42>
 8009ae6:	f856 300c 	ldr.w	r3, [r6, ip]
 8009aea:	b933      	cbnz	r3, 8009afa <quorem+0x9e>
 8009aec:	9b01      	ldr	r3, [sp, #4]
 8009aee:	3b04      	subs	r3, #4
 8009af0:	429e      	cmp	r6, r3
 8009af2:	461a      	mov	r2, r3
 8009af4:	d330      	bcc.n	8009b58 <quorem+0xfc>
 8009af6:	f8c8 4010 	str.w	r4, [r8, #16]
 8009afa:	4640      	mov	r0, r8
 8009afc:	f001 f82e 	bl	800ab5c <__mcmp>
 8009b00:	2800      	cmp	r0, #0
 8009b02:	db25      	blt.n	8009b50 <quorem+0xf4>
 8009b04:	3501      	adds	r5, #1
 8009b06:	4630      	mov	r0, r6
 8009b08:	f04f 0c00 	mov.w	ip, #0
 8009b0c:	f857 2b04 	ldr.w	r2, [r7], #4
 8009b10:	f8d0 e000 	ldr.w	lr, [r0]
 8009b14:	b293      	uxth	r3, r2
 8009b16:	ebac 0303 	sub.w	r3, ip, r3
 8009b1a:	0c12      	lsrs	r2, r2, #16
 8009b1c:	fa13 f38e 	uxtah	r3, r3, lr
 8009b20:	ebc2 421e 	rsb	r2, r2, lr, lsr #16
 8009b24:	eb02 4223 	add.w	r2, r2, r3, asr #16
 8009b28:	b29b      	uxth	r3, r3
 8009b2a:	ea43 4302 	orr.w	r3, r3, r2, lsl #16
 8009b2e:	45b9      	cmp	r9, r7
 8009b30:	ea4f 4c22 	mov.w	ip, r2, asr #16
 8009b34:	f840 3b04 	str.w	r3, [r0], #4
 8009b38:	d2e8      	bcs.n	8009b0c <quorem+0xb0>
 8009b3a:	f856 2024 	ldr.w	r2, [r6, r4, lsl #2]
 8009b3e:	eb06 0384 	add.w	r3, r6, r4, lsl #2
 8009b42:	b92a      	cbnz	r2, 8009b50 <quorem+0xf4>
 8009b44:	3b04      	subs	r3, #4
 8009b46:	429e      	cmp	r6, r3
 8009b48:	461a      	mov	r2, r3
 8009b4a:	d30b      	bcc.n	8009b64 <quorem+0x108>
 8009b4c:	f8c8 4010 	str.w	r4, [r8, #16]
 8009b50:	4628      	mov	r0, r5
 8009b52:	b003      	add	sp, #12
 8009b54:	e8bd 8ff0 	ldmia.w	sp!, {r4, r5, r6, r7, r8, r9, sl, fp, pc}
 8009b58:	6812      	ldr	r2, [r2, #0]
 8009b5a:	3b04      	subs	r3, #4
 8009b5c:	2a00      	cmp	r2, #0
 8009b5e:	d1ca      	bne.n	8009af6 <quorem+0x9a>
 8009b60:	3c01      	subs	r4, #1
 8009b62:	e7c5      	b.n	8009af0 <quorem+0x94>
 8009b64:	6812      	ldr	r2, [r2, #0]
 8009b66:	3b04      	subs	r3, #4
 8009b68:	2a00      	cmp	r2, #0
 8009b6a:	d1ef      	bne.n	8009b4c <quorem+0xf0>
 8009b6c:	3c01      	subs	r4, #1
 8009b6e:	e7ea      	b.n	8009b46 <quorem+0xea>
 8009b70:	2000      	movs	r0, #0
 8009b72:	e7ee      	b.n	8009b52 <quorem+0xf6>
 8009b74:	0000      	movs	r0, r0
	...

08009b78 <_dtoa_r>:
 8009b78:	e92d 4ff0 	stmdb	sp!, {r4, r5, r6, r7, r8, r9, sl, fp, lr}
 8009b7c:	ec57 6b10 	vmov	r6, r7, d0
 8009b80:	b097      	sub	sp, #92	; 0x5c
 8009b82:	6a45      	ldr	r5, [r0, #36]	; 0x24
 8009b84:	9106      	str	r1, [sp, #24]
 8009b86:	4604      	mov	r4, r0
 8009b88:	920b      	str	r2, [sp, #44]	; 0x2c
 8009b8a:	9312      	str	r3, [sp, #72]	; 0x48
 8009b8c:	f8dd 8080 	ldr.w	r8, [sp, #128]	; 0x80
 8009b90:	e9cd 6700 	strd	r6, r7, [sp]
 8009b94:	b93d      	cbnz	r5, 8009ba6 <_dtoa_r+0x2e>
 8009b96:	2010      	movs	r0, #16
 8009b98:	f7ff f8a0 	bl	8008cdc <malloc>
 8009b9c:	6260      	str	r0, [r4, #36]	; 0x24
 8009b9e:	e9c0 5501 	strd	r5, r5, [r0, #4]
 8009ba2:	6005      	str	r5, [r0, #0]
 8009ba4:	60c5      	str	r5, [r0, #12]
 8009ba6:	6a63      	ldr	r3, [r4, #36]	; 0x24
 8009ba8:	6819      	ldr	r1, [r3, #0]
 8009baa:	b151      	cbz	r1, 8009bc2 <_dtoa_r+0x4a>
 8009bac:	685a      	ldr	r2, [r3, #4]
 8009bae:	604a      	str	r2, [r1, #4]
 8009bb0:	2301      	movs	r3, #1
 8009bb2:	4093      	lsls	r3, r2
 8009bb4:	608b      	str	r3, [r1, #8]
 8009bb6:	4620      	mov	r0, r4
 8009bb8:	f000 fdee 	bl	800a798 <_Bfree>
 8009bbc:	6a63      	ldr	r3, [r4, #36]	; 0x24
 8009bbe:	2200      	movs	r2, #0
 8009bc0:	601a      	str	r2, [r3, #0]
 8009bc2:	1e3b      	subs	r3, r7, #0
 8009bc4:	bfbb      	ittet	lt
 8009bc6:	f023 4300 	biclt.w	r3, r3, #2147483648	; 0x80000000
 8009bca:	9301      	strlt	r3, [sp, #4]
 8009bcc:	2300      	movge	r3, #0
 8009bce:	2201      	movlt	r2, #1
 8009bd0:	bfac      	ite	ge
 8009bd2:	f8c8 3000 	strge.w	r3, [r8]
 8009bd6:	f8c8 2000 	strlt.w	r2, [r8]
 8009bda:	4baf      	ldr	r3, [pc, #700]	; (8009e98 <_dtoa_r+0x320>)
 8009bdc:	f8dd 8004 	ldr.w	r8, [sp, #4]
 8009be0:	ea33 0308 	bics.w	r3, r3, r8
 8009be4:	d114      	bne.n	8009c10 <_dtoa_r+0x98>
 8009be6:	9a12      	ldr	r2, [sp, #72]	; 0x48
 8009be8:	f242 730f 	movw	r3, #9999	; 0x270f
 8009bec:	6013      	str	r3, [r2, #0]
 8009bee:	9b00      	ldr	r3, [sp, #0]
 8009bf0:	b923      	cbnz	r3, 8009bfc <_dtoa_r+0x84>
 8009bf2:	f3c8 0013 	ubfx	r0, r8, #0, #20
 8009bf6:	2800      	cmp	r0, #0
 8009bf8:	f000 8542 	beq.w	800a680 <_dtoa_r+0xb08>
 8009bfc:	9b21      	ldr	r3, [sp, #132]	; 0x84
 8009bfe:	f8df b2ac 	ldr.w	fp, [pc, #684]	; 8009eac <_dtoa_r+0x334>
 8009c02:	2b00      	cmp	r3, #0
 8009c04:	f000 8544 	beq.w	800a690 <_dtoa_r+0xb18>
 8009c08:	f10b 0303 	add.w	r3, fp, #3
 8009c0c:	f000 bd3e 	b.w	800a68c <_dtoa_r+0xb14>
 8009c10:	e9dd 6700 	ldrd	r6, r7, [sp]
 8009c14:	2200      	movs	r2, #0
 8009c16:	2300      	movs	r3, #0
 8009c18:	4630      	mov	r0, r6
 8009c1a:	4639      	mov	r1, r7
 8009c1c:	f7f6 ff5c 	bl	8000ad8 <__aeabi_dcmpeq>
 8009c20:	4681      	mov	r9, r0
 8009c22:	b168      	cbz	r0, 8009c40 <_dtoa_r+0xc8>
 8009c24:	9a12      	ldr	r2, [sp, #72]	; 0x48
 8009c26:	2301      	movs	r3, #1
 8009c28:	6013      	str	r3, [r2, #0]
 8009c2a:	9b21      	ldr	r3, [sp, #132]	; 0x84
 8009c2c:	2b00      	cmp	r3, #0
 8009c2e:	f000 8524 	beq.w	800a67a <_dtoa_r+0xb02>
 8009c32:	4b9a      	ldr	r3, [pc, #616]	; (8009e9c <_dtoa_r+0x324>)
 8009c34:	9a21      	ldr	r2, [sp, #132]	; 0x84
 8009c36:	f103 3bff 	add.w	fp, r3, #4294967295
 8009c3a:	6013      	str	r3, [r2, #0]
 8009c3c:	f000 bd28 	b.w	800a690 <_dtoa_r+0xb18>
 8009c40:	aa14      	add	r2, sp, #80	; 0x50
 8009c42:	a915      	add	r1, sp, #84	; 0x54
 8009c44:	ec47 6b10 	vmov	d0, r6, r7
 8009c48:	4620      	mov	r0, r4
 8009c4a:	f000 fffe 	bl	800ac4a <__d2b>
 8009c4e:	f3c8 550a 	ubfx	r5, r8, #20, #11
 8009c52:	9004      	str	r0, [sp, #16]
 8009c54:	2d00      	cmp	r5, #0
 8009c56:	d07c      	beq.n	8009d52 <_dtoa_r+0x1da>
 8009c58:	f3c7 0313 	ubfx	r3, r7, #0, #20
 8009c5c:	f043 5b7f 	orr.w	fp, r3, #1069547520	; 0x3fc00000
 8009c60:	46b2      	mov	sl, r6
 8009c62:	f44b 1b40 	orr.w	fp, fp, #3145728	; 0x300000
 8009c66:	f2a5 35ff 	subw	r5, r5, #1023	; 0x3ff
 8009c6a:	f8cd 904c 	str.w	r9, [sp, #76]	; 0x4c
 8009c6e:	2200      	movs	r2, #0
 8009c70:	4b8b      	ldr	r3, [pc, #556]	; (8009ea0 <_dtoa_r+0x328>)
 8009c72:	4650      	mov	r0, sl
 8009c74:	4659      	mov	r1, fp
 8009c76:	f7f6 fb0f 	bl	8000298 <__aeabi_dsub>
 8009c7a:	a381      	add	r3, pc, #516	; (adr r3, 8009e80 <_dtoa_r+0x308>)
 8009c7c:	e9d3 2300 	ldrd	r2, r3, [r3]
 8009c80:	f7f6 fcc2 	bl	8000608 <__aeabi_dmul>
 8009c84:	a380      	add	r3, pc, #512	; (adr r3, 8009e88 <_dtoa_r+0x310>)
 8009c86:	e9d3 2300 	ldrd	r2, r3, [r3]
 8009c8a:	f7f6 fb07 	bl	800029c <__adddf3>
 8009c8e:	4606      	mov	r6, r0
 8009c90:	4628      	mov	r0, r5
 8009c92:	460f      	mov	r7, r1
 8009c94:	f7f6 fc4e 	bl	8000534 <__aeabi_i2d>
 8009c98:	a37d      	add	r3, pc, #500	; (adr r3, 8009e90 <_dtoa_r+0x318>)
 8009c9a:	e9d3 2300 	ldrd	r2, r3, [r3]
 8009c9e:	f7f6 fcb3 	bl	8000608 <__aeabi_dmul>
 8009ca2:	4602      	mov	r2, r0
 8009ca4:	460b      	mov	r3, r1
 8009ca6:	4630      	mov	r0, r6
 8009ca8:	4639      	mov	r1, r7
 8009caa:	f7f6 faf7 	bl	800029c <__adddf3>
 8009cae:	4606      	mov	r6, r0
 8009cb0:	460f      	mov	r7, r1
 8009cb2:	f7f6 ff59 	bl	8000b68 <__aeabi_d2iz>
 8009cb6:	2200      	movs	r2, #0
 8009cb8:	4682      	mov	sl, r0
 8009cba:	2300      	movs	r3, #0
 8009cbc:	4630      	mov	r0, r6
 8009cbe:	4639      	mov	r1, r7
 8009cc0:	f7f6 ff14 	bl	8000aec <__aeabi_dcmplt>
 8009cc4:	b148      	cbz	r0, 8009cda <_dtoa_r+0x162>
 8009cc6:	4650      	mov	r0, sl
 8009cc8:	f7f6 fc34 	bl	8000534 <__aeabi_i2d>
 8009ccc:	4632      	mov	r2, r6
 8009cce:	463b      	mov	r3, r7
 8009cd0:	f7f6 ff02 	bl	8000ad8 <__aeabi_dcmpeq>
 8009cd4:	b908      	cbnz	r0, 8009cda <_dtoa_r+0x162>
 8009cd6:	f10a 3aff 	add.w	sl, sl, #4294967295
 8009cda:	f1ba 0f16 	cmp.w	sl, #22
 8009cde:	d859      	bhi.n	8009d94 <_dtoa_r+0x21c>
 8009ce0:	4970      	ldr	r1, [pc, #448]	; (8009ea4 <_dtoa_r+0x32c>)
 8009ce2:	eb01 01ca 	add.w	r1, r1, sl, lsl #3
 8009ce6:	e9dd 2300 	ldrd	r2, r3, [sp]
 8009cea:	e9d1 0100 	ldrd	r0, r1, [r1]
 8009cee:	f7f6 ff1b 	bl	8000b28 <__aeabi_dcmpgt>
 8009cf2:	2800      	cmp	r0, #0
 8009cf4:	d050      	beq.n	8009d98 <_dtoa_r+0x220>
 8009cf6:	f10a 3aff 	add.w	sl, sl, #4294967295
 8009cfa:	2300      	movs	r3, #0
 8009cfc:	930f      	str	r3, [sp, #60]	; 0x3c
 8009cfe:	9b14      	ldr	r3, [sp, #80]	; 0x50
 8009d00:	1b5d      	subs	r5, r3, r5
 8009d02:	f1b5 0801 	subs.w	r8, r5, #1
 8009d06:	bf49      	itett	mi
 8009d08:	f1c5 0301 	rsbmi	r3, r5, #1
 8009d0c:	2300      	movpl	r3, #0
 8009d0e:	9305      	strmi	r3, [sp, #20]
 8009d10:	f04f 0800 	movmi.w	r8, #0
 8009d14:	bf58      	it	pl
 8009d16:	9305      	strpl	r3, [sp, #20]
 8009d18:	f1ba 0f00 	cmp.w	sl, #0
 8009d1c:	db3e      	blt.n	8009d9c <_dtoa_r+0x224>
 8009d1e:	2300      	movs	r3, #0
 8009d20:	44d0      	add	r8, sl
 8009d22:	f8cd a038 	str.w	sl, [sp, #56]	; 0x38
 8009d26:	9307      	str	r3, [sp, #28]
 8009d28:	9b06      	ldr	r3, [sp, #24]
 8009d2a:	2b09      	cmp	r3, #9
 8009d2c:	f200 8090 	bhi.w	8009e50 <_dtoa_r+0x2d8>
 8009d30:	2b05      	cmp	r3, #5
 8009d32:	bfc4      	itt	gt
 8009d34:	3b04      	subgt	r3, #4
 8009d36:	9306      	strgt	r3, [sp, #24]
 8009d38:	9b06      	ldr	r3, [sp, #24]
 8009d3a:	f1a3 0302 	sub.w	r3, r3, #2
 8009d3e:	bfcc      	ite	gt
 8009d40:	2500      	movgt	r5, #0
 8009d42:	2501      	movle	r5, #1
 8009d44:	2b03      	cmp	r3, #3
 8009d46:	f200 808f 	bhi.w	8009e68 <_dtoa_r+0x2f0>
 8009d4a:	e8df f003 	tbb	[pc, r3]
 8009d4e:	7f7d      	.short	0x7f7d
 8009d50:	7131      	.short	0x7131
 8009d52:	e9dd 5314 	ldrd	r5, r3, [sp, #80]	; 0x50
 8009d56:	441d      	add	r5, r3
 8009d58:	f205 4032 	addw	r0, r5, #1074	; 0x432
 8009d5c:	2820      	cmp	r0, #32
 8009d5e:	dd13      	ble.n	8009d88 <_dtoa_r+0x210>
 8009d60:	f1c0 0040 	rsb	r0, r0, #64	; 0x40
 8009d64:	9b00      	ldr	r3, [sp, #0]
 8009d66:	fa08 f800 	lsl.w	r8, r8, r0
 8009d6a:	f205 4012 	addw	r0, r5, #1042	; 0x412
 8009d6e:	fa23 f000 	lsr.w	r0, r3, r0
 8009d72:	ea48 0000 	orr.w	r0, r8, r0
 8009d76:	f7f6 fbcd 	bl	8000514 <__aeabi_ui2d>
 8009d7a:	2301      	movs	r3, #1
 8009d7c:	4682      	mov	sl, r0
 8009d7e:	f1a1 7bf8 	sub.w	fp, r1, #32505856	; 0x1f00000
 8009d82:	3d01      	subs	r5, #1
 8009d84:	9313      	str	r3, [sp, #76]	; 0x4c
 8009d86:	e772      	b.n	8009c6e <_dtoa_r+0xf6>
 8009d88:	9b00      	ldr	r3, [sp, #0]
 8009d8a:	f1c0 0020 	rsb	r0, r0, #32
 8009d8e:	fa03 f000 	lsl.w	r0, r3, r0
 8009d92:	e7f0      	b.n	8009d76 <_dtoa_r+0x1fe>
 8009d94:	2301      	movs	r3, #1
 8009d96:	e7b1      	b.n	8009cfc <_dtoa_r+0x184>
 8009d98:	900f      	str	r0, [sp, #60]	; 0x3c
 8009d9a:	e7b0      	b.n	8009cfe <_dtoa_r+0x186>
 8009d9c:	9b05      	ldr	r3, [sp, #20]
 8009d9e:	eba3 030a 	sub.w	r3, r3, sl
 8009da2:	9305      	str	r3, [sp, #20]
 8009da4:	f1ca 0300 	rsb	r3, sl, #0
 8009da8:	9307      	str	r3, [sp, #28]
 8009daa:	2300      	movs	r3, #0
 8009dac:	930e      	str	r3, [sp, #56]	; 0x38
 8009dae:	e7bb      	b.n	8009d28 <_dtoa_r+0x1b0>
 8009db0:	2301      	movs	r3, #1
 8009db2:	930a      	str	r3, [sp, #40]	; 0x28
 8009db4:	9b0b      	ldr	r3, [sp, #44]	; 0x2c
 8009db6:	2b00      	cmp	r3, #0
 8009db8:	dd59      	ble.n	8009e6e <_dtoa_r+0x2f6>
 8009dba:	9302      	str	r3, [sp, #8]
 8009dbc:	4699      	mov	r9, r3
 8009dbe:	6a66      	ldr	r6, [r4, #36]	; 0x24
 8009dc0:	2200      	movs	r2, #0
 8009dc2:	6072      	str	r2, [r6, #4]
 8009dc4:	2204      	movs	r2, #4
 8009dc6:	f102 0014 	add.w	r0, r2, #20
 8009dca:	4298      	cmp	r0, r3
 8009dcc:	6871      	ldr	r1, [r6, #4]
 8009dce:	d953      	bls.n	8009e78 <_dtoa_r+0x300>
 8009dd0:	4620      	mov	r0, r4
 8009dd2:	f000 fcad 	bl	800a730 <_Balloc>
 8009dd6:	6a63      	ldr	r3, [r4, #36]	; 0x24
 8009dd8:	6030      	str	r0, [r6, #0]
 8009dda:	f1b9 0f0e 	cmp.w	r9, #14
 8009dde:	f8d3 b000 	ldr.w	fp, [r3]
 8009de2:	f200 80e6 	bhi.w	8009fb2 <_dtoa_r+0x43a>
 8009de6:	2d00      	cmp	r5, #0
 8009de8:	f000 80e3 	beq.w	8009fb2 <_dtoa_r+0x43a>
 8009dec:	ed9d 7b00 	vldr	d7, [sp]
 8009df0:	f1ba 0f00 	cmp.w	sl, #0
 8009df4:	ed8d 7b10 	vstr	d7, [sp, #64]	; 0x40
 8009df8:	dd74      	ble.n	8009ee4 <_dtoa_r+0x36c>
 8009dfa:	4a2a      	ldr	r2, [pc, #168]	; (8009ea4 <_dtoa_r+0x32c>)
 8009dfc:	f00a 030f 	and.w	r3, sl, #15
 8009e00:	eb02 03c3 	add.w	r3, r2, r3, lsl #3
 8009e04:	ed93 7b00 	vldr	d7, [r3]
 8009e08:	ea4f 162a 	mov.w	r6, sl, asr #4
 8009e0c:	06f0      	lsls	r0, r6, #27
 8009e0e:	ed8d 7b08 	vstr	d7, [sp, #32]
 8009e12:	d565      	bpl.n	8009ee0 <_dtoa_r+0x368>
 8009e14:	4b24      	ldr	r3, [pc, #144]	; (8009ea8 <_dtoa_r+0x330>)
 8009e16:	e9dd 0110 	ldrd	r0, r1, [sp, #64]	; 0x40
 8009e1a:	e9d3 2308 	ldrd	r2, r3, [r3, #32]
 8009e1e:	f7f6 fd1d 	bl	800085c <__aeabi_ddiv>
 8009e22:	e9cd 0100 	strd	r0, r1, [sp]
 8009e26:	f006 060f 	and.w	r6, r6, #15
 8009e2a:	2503      	movs	r5, #3
 8009e2c:	4f1e      	ldr	r7, [pc, #120]	; (8009ea8 <_dtoa_r+0x330>)
 8009e2e:	e04c      	b.n	8009eca <_dtoa_r+0x352>
 8009e30:	2301      	movs	r3, #1
 8009e32:	930a      	str	r3, [sp, #40]	; 0x28
 8009e34:	9b0b      	ldr	r3, [sp, #44]	; 0x2c
 8009e36:	4453      	add	r3, sl
 8009e38:	f103 0901 	add.w	r9, r3, #1
 8009e3c:	9302      	str	r3, [sp, #8]
 8009e3e:	464b      	mov	r3, r9
 8009e40:	2b01      	cmp	r3, #1
 8009e42:	bfb8      	it	lt
 8009e44:	2301      	movlt	r3, #1
 8009e46:	e7ba      	b.n	8009dbe <_dtoa_r+0x246>
 8009e48:	2300      	movs	r3, #0
 8009e4a:	e7b2      	b.n	8009db2 <_dtoa_r+0x23a>
 8009e4c:	2300      	movs	r3, #0
 8009e4e:	e7f0      	b.n	8009e32 <_dtoa_r+0x2ba>
 8009e50:	2501      	movs	r5, #1
 8009e52:	2300      	movs	r3, #0
 8009e54:	9306      	str	r3, [sp, #24]
 8009e56:	950a      	str	r5, [sp, #40]	; 0x28
 8009e58:	f04f 33ff 	mov.w	r3, #4294967295
 8009e5c:	9302      	str	r3, [sp, #8]
 8009e5e:	4699      	mov	r9, r3
 8009e60:	2200      	movs	r2, #0
 8009e62:	2312      	movs	r3, #18
 8009e64:	920b      	str	r2, [sp, #44]	; 0x2c
 8009e66:	e7aa      	b.n	8009dbe <_dtoa_r+0x246>
 8009e68:	2301      	movs	r3, #1
 8009e6a:	930a      	str	r3, [sp, #40]	; 0x28
 8009e6c:	e7f4      	b.n	8009e58 <_dtoa_r+0x2e0>
 8009e6e:	2301      	movs	r3, #1
 8009e70:	9302      	str	r3, [sp, #8]
 8009e72:	4699      	mov	r9, r3
 8009e74:	461a      	mov	r2, r3
 8009e76:	e7f5      	b.n	8009e64 <_dtoa_r+0x2ec>
 8009e78:	3101      	adds	r1, #1
 8009e7a:	6071      	str	r1, [r6, #4]
 8009e7c:	0052      	lsls	r2, r2, #1
 8009e7e:	e7a2      	b.n	8009dc6 <_dtoa_r+0x24e>
 8009e80:	636f4361 	.word	0x636f4361
 8009e84:	3fd287a7 	.word	0x3fd287a7
 8009e88:	8b60c8b3 	.word	0x8b60c8b3
 8009e8c:	3fc68a28 	.word	0x3fc68a28
 8009e90:	509f79fb 	.word	0x509f79fb
 8009e94:	3fd34413 	.word	0x3fd34413
 8009e98:	7ff00000 	.word	0x7ff00000
 8009e9c:	0800b5a8 	.word	0x0800b5a8
 8009ea0:	3ff80000 	.word	0x3ff80000
 8009ea4:	0800ba28 	.word	0x0800ba28
 8009ea8:	0800ba00 	.word	0x0800ba00
 8009eac:	0800b9eb 	.word	0x0800b9eb
 8009eb0:	07f1      	lsls	r1, r6, #31
 8009eb2:	d508      	bpl.n	8009ec6 <_dtoa_r+0x34e>
 8009eb4:	e9dd 0108 	ldrd	r0, r1, [sp, #32]
 8009eb8:	e9d7 2300 	ldrd	r2, r3, [r7]
 8009ebc:	f7f6 fba4 	bl	8000608 <__aeabi_dmul>
 8009ec0:	e9cd 0108 	strd	r0, r1, [sp, #32]
 8009ec4:	3501      	adds	r5, #1
 8009ec6:	1076      	asrs	r6, r6, #1
 8009ec8:	3708      	adds	r7, #8
 8009eca:	2e00      	cmp	r6, #0
 8009ecc:	d1f0      	bne.n	8009eb0 <_dtoa_r+0x338>
 8009ece:	e9dd 2308 	ldrd	r2, r3, [sp, #32]
 8009ed2:	e9dd 0100 	ldrd	r0, r1, [sp]
 8009ed6:	f7f6 fcc1 	bl	800085c <__aeabi_ddiv>
 8009eda:	e9cd 0100 	strd	r0, r1, [sp]
 8009ede:	e01a      	b.n	8009f16 <_dtoa_r+0x39e>
 8009ee0:	2502      	movs	r5, #2
 8009ee2:	e7a3      	b.n	8009e2c <_dtoa_r+0x2b4>
 8009ee4:	f000 80a0 	beq.w	800a028 <_dtoa_r+0x4b0>
 8009ee8:	f1ca 0600 	rsb	r6, sl, #0
 8009eec:	4b9f      	ldr	r3, [pc, #636]	; (800a16c <_dtoa_r+0x5f4>)
 8009eee:	4fa0      	ldr	r7, [pc, #640]	; (800a170 <_dtoa_r+0x5f8>)
 8009ef0:	f006 020f 	and.w	r2, r6, #15
 8009ef4:	eb03 03c2 	add.w	r3, r3, r2, lsl #3
 8009ef8:	e9d3 2300 	ldrd	r2, r3, [r3]
 8009efc:	e9dd 0110 	ldrd	r0, r1, [sp, #64]	; 0x40
 8009f00:	f7f6 fb82 	bl	8000608 <__aeabi_dmul>
 8009f04:	e9cd 0100 	strd	r0, r1, [sp]
 8009f08:	1136      	asrs	r6, r6, #4
 8009f0a:	2300      	movs	r3, #0
 8009f0c:	2502      	movs	r5, #2
 8009f0e:	2e00      	cmp	r6, #0
 8009f10:	d17f      	bne.n	800a012 <_dtoa_r+0x49a>
 8009f12:	2b00      	cmp	r3, #0
 8009f14:	d1e1      	bne.n	8009eda <_dtoa_r+0x362>
 8009f16:	9b0f      	ldr	r3, [sp, #60]	; 0x3c
 8009f18:	2b00      	cmp	r3, #0
 8009f1a:	f000 8087 	beq.w	800a02c <_dtoa_r+0x4b4>
 8009f1e:	e9dd 6700 	ldrd	r6, r7, [sp]
 8009f22:	2200      	movs	r2, #0
 8009f24:	4b93      	ldr	r3, [pc, #588]	; (800a174 <_dtoa_r+0x5fc>)
 8009f26:	4630      	mov	r0, r6
 8009f28:	4639      	mov	r1, r7
 8009f2a:	f7f6 fddf 	bl	8000aec <__aeabi_dcmplt>
 8009f2e:	2800      	cmp	r0, #0
 8009f30:	d07c      	beq.n	800a02c <_dtoa_r+0x4b4>
 8009f32:	f1b9 0f00 	cmp.w	r9, #0
 8009f36:	d079      	beq.n	800a02c <_dtoa_r+0x4b4>
 8009f38:	9b02      	ldr	r3, [sp, #8]
 8009f3a:	2b00      	cmp	r3, #0
 8009f3c:	dd35      	ble.n	8009faa <_dtoa_r+0x432>
 8009f3e:	f10a 33ff 	add.w	r3, sl, #4294967295
 8009f42:	9308      	str	r3, [sp, #32]
 8009f44:	4639      	mov	r1, r7
 8009f46:	2200      	movs	r2, #0
 8009f48:	4b8b      	ldr	r3, [pc, #556]	; (800a178 <_dtoa_r+0x600>)
 8009f4a:	4630      	mov	r0, r6
 8009f4c:	f7f6 fb5c 	bl	8000608 <__aeabi_dmul>
 8009f50:	e9cd 0100 	strd	r0, r1, [sp]
 8009f54:	9f02      	ldr	r7, [sp, #8]
 8009f56:	3501      	adds	r5, #1
 8009f58:	4628      	mov	r0, r5
 8009f5a:	f7f6 faeb 	bl	8000534 <__aeabi_i2d>
 8009f5e:	e9dd 2300 	ldrd	r2, r3, [sp]
 8009f62:	f7f6 fb51 	bl	8000608 <__aeabi_dmul>
 8009f66:	2200      	movs	r2, #0
 8009f68:	4b84      	ldr	r3, [pc, #528]	; (800a17c <_dtoa_r+0x604>)
 8009f6a:	f7f6 f997 	bl	800029c <__adddf3>
 8009f6e:	4605      	mov	r5, r0
 8009f70:	f1a1 7650 	sub.w	r6, r1, #54525952	; 0x3400000
 8009f74:	2f00      	cmp	r7, #0
 8009f76:	d15d      	bne.n	800a034 <_dtoa_r+0x4bc>
 8009f78:	2200      	movs	r2, #0
 8009f7a:	4b81      	ldr	r3, [pc, #516]	; (800a180 <_dtoa_r+0x608>)
 8009f7c:	e9dd 0100 	ldrd	r0, r1, [sp]
 8009f80:	f7f6 f98a 	bl	8000298 <__aeabi_dsub>
 8009f84:	462a      	mov	r2, r5
 8009f86:	4633      	mov	r3, r6
 8009f88:	e9cd 0100 	strd	r0, r1, [sp]
 8009f8c:	f7f6 fdcc 	bl	8000b28 <__aeabi_dcmpgt>
 8009f90:	2800      	cmp	r0, #0
 8009f92:	f040 8288 	bne.w	800a4a6 <_dtoa_r+0x92e>
 8009f96:	462a      	mov	r2, r5
 8009f98:	f106 4300 	add.w	r3, r6, #2147483648	; 0x80000000
 8009f9c:	e9dd 0100 	ldrd	r0, r1, [sp]
 8009fa0:	f7f6 fda4 	bl	8000aec <__aeabi_dcmplt>
 8009fa4:	2800      	cmp	r0, #0
 8009fa6:	f040 827c 	bne.w	800a4a2 <_dtoa_r+0x92a>
 8009faa:	e9dd 2310 	ldrd	r2, r3, [sp, #64]	; 0x40
 8009fae:	e9cd 2300 	strd	r2, r3, [sp]
 8009fb2:	9b15      	ldr	r3, [sp, #84]	; 0x54
 8009fb4:	2b00      	cmp	r3, #0
 8009fb6:	f2c0 8150 	blt.w	800a25a <_dtoa_r+0x6e2>
 8009fba:	f1ba 0f0e 	cmp.w	sl, #14
 8009fbe:	f300 814c 	bgt.w	800a25a <_dtoa_r+0x6e2>
 8009fc2:	4b6a      	ldr	r3, [pc, #424]	; (800a16c <_dtoa_r+0x5f4>)
 8009fc4:	eb03 03ca 	add.w	r3, r3, sl, lsl #3
 8009fc8:	ed93 7b00 	vldr	d7, [r3]
 8009fcc:	9b0b      	ldr	r3, [sp, #44]	; 0x2c
 8009fce:	2b00      	cmp	r3, #0
 8009fd0:	ed8d 7b02 	vstr	d7, [sp, #8]
 8009fd4:	f280 80d8 	bge.w	800a188 <_dtoa_r+0x610>
 8009fd8:	f1b9 0f00 	cmp.w	r9, #0
 8009fdc:	f300 80d4 	bgt.w	800a188 <_dtoa_r+0x610>
 8009fe0:	f040 825e 	bne.w	800a4a0 <_dtoa_r+0x928>
 8009fe4:	2200      	movs	r2, #0
 8009fe6:	4b66      	ldr	r3, [pc, #408]	; (800a180 <_dtoa_r+0x608>)
 8009fe8:	ec51 0b17 	vmov	r0, r1, d7
 8009fec:	f7f6 fb0c 	bl	8000608 <__aeabi_dmul>
 8009ff0:	e9dd 2300 	ldrd	r2, r3, [sp]
 8009ff4:	f7f6 fd8e 	bl	8000b14 <__aeabi_dcmpge>
 8009ff8:	464f      	mov	r7, r9
 8009ffa:	464e      	mov	r6, r9
 8009ffc:	2800      	cmp	r0, #0
 8009ffe:	f040 8234 	bne.w	800a46a <_dtoa_r+0x8f2>
 800a002:	2331      	movs	r3, #49	; 0x31
 800a004:	f10b 0501 	add.w	r5, fp, #1
 800a008:	f88b 3000 	strb.w	r3, [fp]
 800a00c:	f10a 0a01 	add.w	sl, sl, #1
 800a010:	e22f      	b.n	800a472 <_dtoa_r+0x8fa>
 800a012:	07f2      	lsls	r2, r6, #31
 800a014:	d505      	bpl.n	800a022 <_dtoa_r+0x4aa>
 800a016:	e9d7 2300 	ldrd	r2, r3, [r7]
 800a01a:	f7f6 faf5 	bl	8000608 <__aeabi_dmul>
 800a01e:	3501      	adds	r5, #1
 800a020:	2301      	movs	r3, #1
 800a022:	1076      	asrs	r6, r6, #1
 800a024:	3708      	adds	r7, #8
 800a026:	e772      	b.n	8009f0e <_dtoa_r+0x396>
 800a028:	2502      	movs	r5, #2
 800a02a:	e774      	b.n	8009f16 <_dtoa_r+0x39e>
 800a02c:	f8cd a020 	str.w	sl, [sp, #32]
 800a030:	464f      	mov	r7, r9
 800a032:	e791      	b.n	8009f58 <_dtoa_r+0x3e0>
 800a034:	4b4d      	ldr	r3, [pc, #308]	; (800a16c <_dtoa_r+0x5f4>)
 800a036:	eb03 03c7 	add.w	r3, r3, r7, lsl #3
 800a03a:	e953 0102 	ldrd	r0, r1, [r3, #-8]
 800a03e:	9b0a      	ldr	r3, [sp, #40]	; 0x28
 800a040:	2b00      	cmp	r3, #0
 800a042:	d047      	beq.n	800a0d4 <_dtoa_r+0x55c>
 800a044:	4602      	mov	r2, r0
 800a046:	460b      	mov	r3, r1
 800a048:	2000      	movs	r0, #0
 800a04a:	494e      	ldr	r1, [pc, #312]	; (800a184 <_dtoa_r+0x60c>)
 800a04c:	f7f6 fc06 	bl	800085c <__aeabi_ddiv>
 800a050:	462a      	mov	r2, r5
 800a052:	4633      	mov	r3, r6
 800a054:	f7f6 f920 	bl	8000298 <__aeabi_dsub>
 800a058:	e9cd 010c 	strd	r0, r1, [sp, #48]	; 0x30
 800a05c:	465d      	mov	r5, fp
 800a05e:	e9dd 0100 	ldrd	r0, r1, [sp]
 800a062:	f7f6 fd81 	bl	8000b68 <__aeabi_d2iz>
 800a066:	4606      	mov	r6, r0
 800a068:	f7f6 fa64 	bl	8000534 <__aeabi_i2d>
 800a06c:	4602      	mov	r2, r0
 800a06e:	460b      	mov	r3, r1
 800a070:	e9dd 0100 	ldrd	r0, r1, [sp]
 800a074:	f7f6 f910 	bl	8000298 <__aeabi_dsub>
 800a078:	3630      	adds	r6, #48	; 0x30
 800a07a:	f805 6b01 	strb.w	r6, [r5], #1
 800a07e:	e9dd 230c 	ldrd	r2, r3, [sp, #48]	; 0x30
 800a082:	e9cd 0100 	strd	r0, r1, [sp]
 800a086:	f7f6 fd31 	bl	8000aec <__aeabi_dcmplt>
 800a08a:	2800      	cmp	r0, #0
 800a08c:	d163      	bne.n	800a156 <_dtoa_r+0x5de>
 800a08e:	e9dd 2300 	ldrd	r2, r3, [sp]
 800a092:	2000      	movs	r0, #0
 800a094:	4937      	ldr	r1, [pc, #220]	; (800a174 <_dtoa_r+0x5fc>)
 800a096:	f7f6 f8ff 	bl	8000298 <__aeabi_dsub>
 800a09a:	e9dd 230c 	ldrd	r2, r3, [sp, #48]	; 0x30
 800a09e:	f7f6 fd25 	bl	8000aec <__aeabi_dcmplt>
 800a0a2:	2800      	cmp	r0, #0
 800a0a4:	f040 80b7 	bne.w	800a216 <_dtoa_r+0x69e>
 800a0a8:	eba5 030b 	sub.w	r3, r5, fp
 800a0ac:	429f      	cmp	r7, r3
 800a0ae:	f77f af7c 	ble.w	8009faa <_dtoa_r+0x432>
 800a0b2:	2200      	movs	r2, #0
 800a0b4:	4b30      	ldr	r3, [pc, #192]	; (800a178 <_dtoa_r+0x600>)
 800a0b6:	e9dd 010c 	ldrd	r0, r1, [sp, #48]	; 0x30
 800a0ba:	f7f6 faa5 	bl	8000608 <__aeabi_dmul>
 800a0be:	2200      	movs	r2, #0
 800a0c0:	e9cd 010c 	strd	r0, r1, [sp, #48]	; 0x30
 800a0c4:	4b2c      	ldr	r3, [pc, #176]	; (800a178 <_dtoa_r+0x600>)
 800a0c6:	e9dd 0100 	ldrd	r0, r1, [sp]
 800a0ca:	f7f6 fa9d 	bl	8000608 <__aeabi_dmul>
 800a0ce:	e9cd 0100 	strd	r0, r1, [sp]
 800a0d2:	e7c4      	b.n	800a05e <_dtoa_r+0x4e6>
 800a0d4:	462a      	mov	r2, r5
 800a0d6:	4633      	mov	r3, r6
 800a0d8:	f7f6 fa96 	bl	8000608 <__aeabi_dmul>
 800a0dc:	e9cd 010c 	strd	r0, r1, [sp, #48]	; 0x30
 800a0e0:	eb0b 0507 	add.w	r5, fp, r7
 800a0e4:	465e      	mov	r6, fp
 800a0e6:	e9dd 0100 	ldrd	r0, r1, [sp]
 800a0ea:	f7f6 fd3d 	bl	8000b68 <__aeabi_d2iz>
 800a0ee:	4607      	mov	r7, r0
 800a0f0:	f7f6 fa20 	bl	8000534 <__aeabi_i2d>
 800a0f4:	3730      	adds	r7, #48	; 0x30
 800a0f6:	4602      	mov	r2, r0
 800a0f8:	460b      	mov	r3, r1
 800a0fa:	e9dd 0100 	ldrd	r0, r1, [sp]
 800a0fe:	f7f6 f8cb 	bl	8000298 <__aeabi_dsub>
 800a102:	f806 7b01 	strb.w	r7, [r6], #1
 800a106:	42ae      	cmp	r6, r5
 800a108:	e9cd 0100 	strd	r0, r1, [sp]
 800a10c:	f04f 0200 	mov.w	r2, #0
 800a110:	d126      	bne.n	800a160 <_dtoa_r+0x5e8>
 800a112:	4b1c      	ldr	r3, [pc, #112]	; (800a184 <_dtoa_r+0x60c>)
 800a114:	e9dd 010c 	ldrd	r0, r1, [sp, #48]	; 0x30
 800a118:	f7f6 f8c0 	bl	800029c <__adddf3>
 800a11c:	4602      	mov	r2, r0
 800a11e:	460b      	mov	r3, r1
 800a120:	e9dd 0100 	ldrd	r0, r1, [sp]
 800a124:	f7f6 fd00 	bl	8000b28 <__aeabi_dcmpgt>
 800a128:	2800      	cmp	r0, #0
 800a12a:	d174      	bne.n	800a216 <_dtoa_r+0x69e>
 800a12c:	e9dd 230c 	ldrd	r2, r3, [sp, #48]	; 0x30
 800a130:	2000      	movs	r0, #0
 800a132:	4914      	ldr	r1, [pc, #80]	; (800a184 <_dtoa_r+0x60c>)
 800a134:	f7f6 f8b0 	bl	8000298 <__aeabi_dsub>
 800a138:	4602      	mov	r2, r0
 800a13a:	460b      	mov	r3, r1
 800a13c:	e9dd 0100 	ldrd	r0, r1, [sp]
 800a140:	f7f6 fcd4 	bl	8000aec <__aeabi_dcmplt>
 800a144:	2800      	cmp	r0, #0
 800a146:	f43f af30 	beq.w	8009faa <_dtoa_r+0x432>
 800a14a:	f815 3c01 	ldrb.w	r3, [r5, #-1]
 800a14e:	2b30      	cmp	r3, #48	; 0x30
 800a150:	f105 32ff 	add.w	r2, r5, #4294967295
 800a154:	d002      	beq.n	800a15c <_dtoa_r+0x5e4>
 800a156:	f8dd a020 	ldr.w	sl, [sp, #32]
 800a15a:	e04a      	b.n	800a1f2 <_dtoa_r+0x67a>
 800a15c:	4615      	mov	r5, r2
 800a15e:	e7f4      	b.n	800a14a <_dtoa_r+0x5d2>
 800a160:	4b05      	ldr	r3, [pc, #20]	; (800a178 <_dtoa_r+0x600>)
 800a162:	f7f6 fa51 	bl	8000608 <__aeabi_dmul>
 800a166:	e9cd 0100 	strd	r0, r1, [sp]
 800a16a:	e7bc      	b.n	800a0e6 <_dtoa_r+0x56e>
 800a16c:	0800ba28 	.word	0x0800ba28
 800a170:	0800ba00 	.word	0x0800ba00
 800a174:	3ff00000 	.word	0x3ff00000
 800a178:	40240000 	.word	0x40240000
 800a17c:	401c0000 	.word	0x401c0000
 800a180:	40140000 	.word	0x40140000
 800a184:	3fe00000 	.word	0x3fe00000
 800a188:	e9dd 6700 	ldrd	r6, r7, [sp]
 800a18c:	465d      	mov	r5, fp
 800a18e:	e9dd 2302 	ldrd	r2, r3, [sp, #8]
 800a192:	4630      	mov	r0, r6
 800a194:	4639      	mov	r1, r7
 800a196:	f7f6 fb61 	bl	800085c <__aeabi_ddiv>
 800a19a:	f7f6 fce5 	bl	8000b68 <__aeabi_d2iz>
 800a19e:	4680      	mov	r8, r0
 800a1a0:	f7f6 f9c8 	bl	8000534 <__aeabi_i2d>
 800a1a4:	e9dd 2302 	ldrd	r2, r3, [sp, #8]
 800a1a8:	f7f6 fa2e 	bl	8000608 <__aeabi_dmul>
 800a1ac:	4602      	mov	r2, r0
 800a1ae:	460b      	mov	r3, r1
 800a1b0:	4630      	mov	r0, r6
 800a1b2:	4639      	mov	r1, r7
 800a1b4:	f108 0630 	add.w	r6, r8, #48	; 0x30
 800a1b8:	f7f6 f86e 	bl	8000298 <__aeabi_dsub>
 800a1bc:	f805 6b01 	strb.w	r6, [r5], #1
 800a1c0:	eba5 060b 	sub.w	r6, r5, fp
 800a1c4:	45b1      	cmp	r9, r6
 800a1c6:	4602      	mov	r2, r0
 800a1c8:	460b      	mov	r3, r1
 800a1ca:	d139      	bne.n	800a240 <_dtoa_r+0x6c8>
 800a1cc:	f7f6 f866 	bl	800029c <__adddf3>
 800a1d0:	e9dd 2302 	ldrd	r2, r3, [sp, #8]
 800a1d4:	4606      	mov	r6, r0
 800a1d6:	460f      	mov	r7, r1
 800a1d8:	f7f6 fca6 	bl	8000b28 <__aeabi_dcmpgt>
 800a1dc:	b9c8      	cbnz	r0, 800a212 <_dtoa_r+0x69a>
 800a1de:	e9dd 2302 	ldrd	r2, r3, [sp, #8]
 800a1e2:	4630      	mov	r0, r6
 800a1e4:	4639      	mov	r1, r7
 800a1e6:	f7f6 fc77 	bl	8000ad8 <__aeabi_dcmpeq>
 800a1ea:	b110      	cbz	r0, 800a1f2 <_dtoa_r+0x67a>
 800a1ec:	f018 0f01 	tst.w	r8, #1
 800a1f0:	d10f      	bne.n	800a212 <_dtoa_r+0x69a>
 800a1f2:	9904      	ldr	r1, [sp, #16]
 800a1f4:	4620      	mov	r0, r4
 800a1f6:	f000 facf 	bl	800a798 <_Bfree>
 800a1fa:	2300      	movs	r3, #0
 800a1fc:	9a12      	ldr	r2, [sp, #72]	; 0x48
 800a1fe:	702b      	strb	r3, [r5, #0]
 800a200:	f10a 0301 	add.w	r3, sl, #1
 800a204:	6013      	str	r3, [r2, #0]
 800a206:	9b21      	ldr	r3, [sp, #132]	; 0x84
 800a208:	2b00      	cmp	r3, #0
 800a20a:	f000 8241 	beq.w	800a690 <_dtoa_r+0xb18>
 800a20e:	601d      	str	r5, [r3, #0]
 800a210:	e23e      	b.n	800a690 <_dtoa_r+0xb18>
 800a212:	f8cd a020 	str.w	sl, [sp, #32]
 800a216:	f815 2c01 	ldrb.w	r2, [r5, #-1]
 800a21a:	2a39      	cmp	r2, #57	; 0x39
 800a21c:	f105 33ff 	add.w	r3, r5, #4294967295
 800a220:	d108      	bne.n	800a234 <_dtoa_r+0x6bc>
 800a222:	459b      	cmp	fp, r3
 800a224:	d10a      	bne.n	800a23c <_dtoa_r+0x6c4>
 800a226:	9b08      	ldr	r3, [sp, #32]
 800a228:	3301      	adds	r3, #1
 800a22a:	9308      	str	r3, [sp, #32]
 800a22c:	2330      	movs	r3, #48	; 0x30
 800a22e:	f88b 3000 	strb.w	r3, [fp]
 800a232:	465b      	mov	r3, fp
 800a234:	781a      	ldrb	r2, [r3, #0]
 800a236:	3201      	adds	r2, #1
 800a238:	701a      	strb	r2, [r3, #0]
 800a23a:	e78c      	b.n	800a156 <_dtoa_r+0x5de>
 800a23c:	461d      	mov	r5, r3
 800a23e:	e7ea      	b.n	800a216 <_dtoa_r+0x69e>
 800a240:	2200      	movs	r2, #0
 800a242:	4b9b      	ldr	r3, [pc, #620]	; (800a4b0 <_dtoa_r+0x938>)
 800a244:	f7f6 f9e0 	bl	8000608 <__aeabi_dmul>
 800a248:	2200      	movs	r2, #0
 800a24a:	2300      	movs	r3, #0
 800a24c:	4606      	mov	r6, r0
 800a24e:	460f      	mov	r7, r1
 800a250:	f7f6 fc42 	bl	8000ad8 <__aeabi_dcmpeq>
 800a254:	2800      	cmp	r0, #0
 800a256:	d09a      	beq.n	800a18e <_dtoa_r+0x616>
 800a258:	e7cb      	b.n	800a1f2 <_dtoa_r+0x67a>
 800a25a:	9a0a      	ldr	r2, [sp, #40]	; 0x28
 800a25c:	2a00      	cmp	r2, #0
 800a25e:	f000 808b 	beq.w	800a378 <_dtoa_r+0x800>
 800a262:	9a06      	ldr	r2, [sp, #24]
 800a264:	2a01      	cmp	r2, #1
 800a266:	dc6e      	bgt.n	800a346 <_dtoa_r+0x7ce>
 800a268:	9a13      	ldr	r2, [sp, #76]	; 0x4c
 800a26a:	2a00      	cmp	r2, #0
 800a26c:	d067      	beq.n	800a33e <_dtoa_r+0x7c6>
 800a26e:	f203 4333 	addw	r3, r3, #1075	; 0x433
 800a272:	9f07      	ldr	r7, [sp, #28]
 800a274:	9d05      	ldr	r5, [sp, #20]
 800a276:	9a05      	ldr	r2, [sp, #20]
 800a278:	2101      	movs	r1, #1
 800a27a:	441a      	add	r2, r3
 800a27c:	4620      	mov	r0, r4
 800a27e:	9205      	str	r2, [sp, #20]
 800a280:	4498      	add	r8, r3
 800a282:	f000 fb29 	bl	800a8d8 <__i2b>
 800a286:	4606      	mov	r6, r0
 800a288:	2d00      	cmp	r5, #0
 800a28a:	dd0c      	ble.n	800a2a6 <_dtoa_r+0x72e>
 800a28c:	f1b8 0f00 	cmp.w	r8, #0
 800a290:	dd09      	ble.n	800a2a6 <_dtoa_r+0x72e>
 800a292:	4545      	cmp	r5, r8
 800a294:	9a05      	ldr	r2, [sp, #20]
 800a296:	462b      	mov	r3, r5
 800a298:	bfa8      	it	ge
 800a29a:	4643      	movge	r3, r8
 800a29c:	1ad2      	subs	r2, r2, r3
 800a29e:	9205      	str	r2, [sp, #20]
 800a2a0:	1aed      	subs	r5, r5, r3
 800a2a2:	eba8 0803 	sub.w	r8, r8, r3
 800a2a6:	9b07      	ldr	r3, [sp, #28]
 800a2a8:	b1eb      	cbz	r3, 800a2e6 <_dtoa_r+0x76e>
 800a2aa:	9b0a      	ldr	r3, [sp, #40]	; 0x28
 800a2ac:	2b00      	cmp	r3, #0
 800a2ae:	d067      	beq.n	800a380 <_dtoa_r+0x808>
 800a2b0:	b18f      	cbz	r7, 800a2d6 <_dtoa_r+0x75e>
 800a2b2:	4631      	mov	r1, r6
 800a2b4:	463a      	mov	r2, r7
 800a2b6:	4620      	mov	r0, r4
 800a2b8:	f000 fbae 	bl	800aa18 <__pow5mult>
 800a2bc:	9a04      	ldr	r2, [sp, #16]
 800a2be:	4601      	mov	r1, r0
 800a2c0:	4606      	mov	r6, r0
 800a2c2:	4620      	mov	r0, r4
 800a2c4:	f000 fb11 	bl	800a8ea <__multiply>
 800a2c8:	9904      	ldr	r1, [sp, #16]
 800a2ca:	9008      	str	r0, [sp, #32]
 800a2cc:	4620      	mov	r0, r4
 800a2ce:	f000 fa63 	bl	800a798 <_Bfree>
 800a2d2:	9b08      	ldr	r3, [sp, #32]
 800a2d4:	9304      	str	r3, [sp, #16]
 800a2d6:	9b07      	ldr	r3, [sp, #28]
 800a2d8:	1bda      	subs	r2, r3, r7
 800a2da:	d004      	beq.n	800a2e6 <_dtoa_r+0x76e>
 800a2dc:	9904      	ldr	r1, [sp, #16]
 800a2de:	4620      	mov	r0, r4
 800a2e0:	f000 fb9a 	bl	800aa18 <__pow5mult>
 800a2e4:	9004      	str	r0, [sp, #16]
 800a2e6:	2101      	movs	r1, #1
 800a2e8:	4620      	mov	r0, r4
 800a2ea:	f000 faf5 	bl	800a8d8 <__i2b>
 800a2ee:	9b0e      	ldr	r3, [sp, #56]	; 0x38
 800a2f0:	4607      	mov	r7, r0
 800a2f2:	2b00      	cmp	r3, #0
 800a2f4:	f000 81d0 	beq.w	800a698 <_dtoa_r+0xb20>
 800a2f8:	461a      	mov	r2, r3
 800a2fa:	4601      	mov	r1, r0
 800a2fc:	4620      	mov	r0, r4
 800a2fe:	f000 fb8b 	bl	800aa18 <__pow5mult>
 800a302:	9b06      	ldr	r3, [sp, #24]
 800a304:	2b01      	cmp	r3, #1
 800a306:	4607      	mov	r7, r0
 800a308:	dc40      	bgt.n	800a38c <_dtoa_r+0x814>
 800a30a:	9b00      	ldr	r3, [sp, #0]
 800a30c:	2b00      	cmp	r3, #0
 800a30e:	d139      	bne.n	800a384 <_dtoa_r+0x80c>
 800a310:	9b01      	ldr	r3, [sp, #4]
 800a312:	f3c3 0313 	ubfx	r3, r3, #0, #20
 800a316:	2b00      	cmp	r3, #0
 800a318:	d136      	bne.n	800a388 <_dtoa_r+0x810>
 800a31a:	9b01      	ldr	r3, [sp, #4]
 800a31c:	f023 4300 	bic.w	r3, r3, #2147483648	; 0x80000000
 800a320:	0d1b      	lsrs	r3, r3, #20
 800a322:	051b      	lsls	r3, r3, #20
 800a324:	b12b      	cbz	r3, 800a332 <_dtoa_r+0x7ba>
 800a326:	9b05      	ldr	r3, [sp, #20]
 800a328:	3301      	adds	r3, #1
 800a32a:	9305      	str	r3, [sp, #20]
 800a32c:	f108 0801 	add.w	r8, r8, #1
 800a330:	2301      	movs	r3, #1
 800a332:	9307      	str	r3, [sp, #28]
 800a334:	9b0e      	ldr	r3, [sp, #56]	; 0x38
 800a336:	2b00      	cmp	r3, #0
 800a338:	d12a      	bne.n	800a390 <_dtoa_r+0x818>
 800a33a:	2001      	movs	r0, #1
 800a33c:	e030      	b.n	800a3a0 <_dtoa_r+0x828>
 800a33e:	9b14      	ldr	r3, [sp, #80]	; 0x50
 800a340:	f1c3 0336 	rsb	r3, r3, #54	; 0x36
 800a344:	e795      	b.n	800a272 <_dtoa_r+0x6fa>
 800a346:	9b07      	ldr	r3, [sp, #28]
 800a348:	f109 37ff 	add.w	r7, r9, #4294967295
 800a34c:	42bb      	cmp	r3, r7
 800a34e:	bfbf      	itttt	lt
 800a350:	9b07      	ldrlt	r3, [sp, #28]
 800a352:	9707      	strlt	r7, [sp, #28]
 800a354:	1afa      	sublt	r2, r7, r3
 800a356:	9b0e      	ldrlt	r3, [sp, #56]	; 0x38
 800a358:	bfbb      	ittet	lt
 800a35a:	189b      	addlt	r3, r3, r2
 800a35c:	930e      	strlt	r3, [sp, #56]	; 0x38
 800a35e:	1bdf      	subge	r7, r3, r7
 800a360:	2700      	movlt	r7, #0
 800a362:	f1b9 0f00 	cmp.w	r9, #0
 800a366:	bfb5      	itete	lt
 800a368:	9b05      	ldrlt	r3, [sp, #20]
 800a36a:	9d05      	ldrge	r5, [sp, #20]
 800a36c:	eba3 0509 	sublt.w	r5, r3, r9
 800a370:	464b      	movge	r3, r9
 800a372:	bfb8      	it	lt
 800a374:	2300      	movlt	r3, #0
 800a376:	e77e      	b.n	800a276 <_dtoa_r+0x6fe>
 800a378:	9f07      	ldr	r7, [sp, #28]
 800a37a:	9d05      	ldr	r5, [sp, #20]
 800a37c:	9e0a      	ldr	r6, [sp, #40]	; 0x28
 800a37e:	e783      	b.n	800a288 <_dtoa_r+0x710>
 800a380:	9a07      	ldr	r2, [sp, #28]
 800a382:	e7ab      	b.n	800a2dc <_dtoa_r+0x764>
 800a384:	2300      	movs	r3, #0
 800a386:	e7d4      	b.n	800a332 <_dtoa_r+0x7ba>
 800a388:	9b00      	ldr	r3, [sp, #0]
 800a38a:	e7d2      	b.n	800a332 <_dtoa_r+0x7ba>
 800a38c:	2300      	movs	r3, #0
 800a38e:	9307      	str	r3, [sp, #28]
 800a390:	693b      	ldr	r3, [r7, #16]
 800a392:	eb07 0383 	add.w	r3, r7, r3, lsl #2
 800a396:	6918      	ldr	r0, [r3, #16]
 800a398:	f000 fa50 	bl	800a83c <__hi0bits>
 800a39c:	f1c0 0020 	rsb	r0, r0, #32
 800a3a0:	4440      	add	r0, r8
 800a3a2:	f010 001f 	ands.w	r0, r0, #31
 800a3a6:	d047      	beq.n	800a438 <_dtoa_r+0x8c0>
 800a3a8:	f1c0 0320 	rsb	r3, r0, #32
 800a3ac:	2b04      	cmp	r3, #4
 800a3ae:	dd3b      	ble.n	800a428 <_dtoa_r+0x8b0>
 800a3b0:	9b05      	ldr	r3, [sp, #20]
 800a3b2:	f1c0 001c 	rsb	r0, r0, #28
 800a3b6:	4403      	add	r3, r0
 800a3b8:	9305      	str	r3, [sp, #20]
 800a3ba:	4405      	add	r5, r0
 800a3bc:	4480      	add	r8, r0
 800a3be:	9b05      	ldr	r3, [sp, #20]
 800a3c0:	2b00      	cmp	r3, #0
 800a3c2:	dd05      	ble.n	800a3d0 <_dtoa_r+0x858>
 800a3c4:	461a      	mov	r2, r3
 800a3c6:	9904      	ldr	r1, [sp, #16]
 800a3c8:	4620      	mov	r0, r4
 800a3ca:	f000 fb73 	bl	800aab4 <__lshift>
 800a3ce:	9004      	str	r0, [sp, #16]
 800a3d0:	f1b8 0f00 	cmp.w	r8, #0
 800a3d4:	dd05      	ble.n	800a3e2 <_dtoa_r+0x86a>
 800a3d6:	4639      	mov	r1, r7
 800a3d8:	4642      	mov	r2, r8
 800a3da:	4620      	mov	r0, r4
 800a3dc:	f000 fb6a 	bl	800aab4 <__lshift>
 800a3e0:	4607      	mov	r7, r0
 800a3e2:	9b0f      	ldr	r3, [sp, #60]	; 0x3c
 800a3e4:	b353      	cbz	r3, 800a43c <_dtoa_r+0x8c4>
 800a3e6:	4639      	mov	r1, r7
 800a3e8:	9804      	ldr	r0, [sp, #16]
 800a3ea:	f000 fbb7 	bl	800ab5c <__mcmp>
 800a3ee:	2800      	cmp	r0, #0
 800a3f0:	da24      	bge.n	800a43c <_dtoa_r+0x8c4>
 800a3f2:	2300      	movs	r3, #0
 800a3f4:	220a      	movs	r2, #10
 800a3f6:	9904      	ldr	r1, [sp, #16]
 800a3f8:	4620      	mov	r0, r4
 800a3fa:	f000 f9e4 	bl	800a7c6 <__multadd>
 800a3fe:	9b0a      	ldr	r3, [sp, #40]	; 0x28
 800a400:	9004      	str	r0, [sp, #16]
 800a402:	f10a 3aff 	add.w	sl, sl, #4294967295
 800a406:	2b00      	cmp	r3, #0
 800a408:	f000 814d 	beq.w	800a6a6 <_dtoa_r+0xb2e>
 800a40c:	2300      	movs	r3, #0
 800a40e:	4631      	mov	r1, r6
 800a410:	220a      	movs	r2, #10
 800a412:	4620      	mov	r0, r4
 800a414:	f000 f9d7 	bl	800a7c6 <__multadd>
 800a418:	9b02      	ldr	r3, [sp, #8]
 800a41a:	2b00      	cmp	r3, #0
 800a41c:	4606      	mov	r6, r0
 800a41e:	dc4f      	bgt.n	800a4c0 <_dtoa_r+0x948>
 800a420:	9b06      	ldr	r3, [sp, #24]
 800a422:	2b02      	cmp	r3, #2
 800a424:	dd4c      	ble.n	800a4c0 <_dtoa_r+0x948>
 800a426:	e011      	b.n	800a44c <_dtoa_r+0x8d4>
 800a428:	d0c9      	beq.n	800a3be <_dtoa_r+0x846>
 800a42a:	9a05      	ldr	r2, [sp, #20]
 800a42c:	331c      	adds	r3, #28
 800a42e:	441a      	add	r2, r3
 800a430:	9205      	str	r2, [sp, #20]
 800a432:	441d      	add	r5, r3
 800a434:	4498      	add	r8, r3
 800a436:	e7c2      	b.n	800a3be <_dtoa_r+0x846>
 800a438:	4603      	mov	r3, r0
 800a43a:	e7f6      	b.n	800a42a <_dtoa_r+0x8b2>
 800a43c:	f1b9 0f00 	cmp.w	r9, #0
 800a440:	dc38      	bgt.n	800a4b4 <_dtoa_r+0x93c>
 800a442:	9b06      	ldr	r3, [sp, #24]
 800a444:	2b02      	cmp	r3, #2
 800a446:	dd35      	ble.n	800a4b4 <_dtoa_r+0x93c>
 800a448:	f8cd 9008 	str.w	r9, [sp, #8]
 800a44c:	9b02      	ldr	r3, [sp, #8]
 800a44e:	b963      	cbnz	r3, 800a46a <_dtoa_r+0x8f2>
 800a450:	4639      	mov	r1, r7
 800a452:	2205      	movs	r2, #5
 800a454:	4620      	mov	r0, r4
 800a456:	f000 f9b6 	bl	800a7c6 <__multadd>
 800a45a:	4601      	mov	r1, r0
 800a45c:	4607      	mov	r7, r0
 800a45e:	9804      	ldr	r0, [sp, #16]
 800a460:	f000 fb7c 	bl	800ab5c <__mcmp>
 800a464:	2800      	cmp	r0, #0
 800a466:	f73f adcc 	bgt.w	800a002 <_dtoa_r+0x48a>
 800a46a:	9b0b      	ldr	r3, [sp, #44]	; 0x2c
 800a46c:	465d      	mov	r5, fp
 800a46e:	ea6f 0a03 	mvn.w	sl, r3
 800a472:	f04f 0900 	mov.w	r9, #0
 800a476:	4639      	mov	r1, r7
 800a478:	4620      	mov	r0, r4
 800a47a:	f000 f98d 	bl	800a798 <_Bfree>
 800a47e:	2e00      	cmp	r6, #0
 800a480:	f43f aeb7 	beq.w	800a1f2 <_dtoa_r+0x67a>
 800a484:	f1b9 0f00 	cmp.w	r9, #0
 800a488:	d005      	beq.n	800a496 <_dtoa_r+0x91e>
 800a48a:	45b1      	cmp	r9, r6
 800a48c:	d003      	beq.n	800a496 <_dtoa_r+0x91e>
 800a48e:	4649      	mov	r1, r9
 800a490:	4620      	mov	r0, r4
 800a492:	f000 f981 	bl	800a798 <_Bfree>
 800a496:	4631      	mov	r1, r6
 800a498:	4620      	mov	r0, r4
 800a49a:	f000 f97d 	bl	800a798 <_Bfree>
 800a49e:	e6a8      	b.n	800a1f2 <_dtoa_r+0x67a>
 800a4a0:	2700      	movs	r7, #0
 800a4a2:	463e      	mov	r6, r7
 800a4a4:	e7e1      	b.n	800a46a <_dtoa_r+0x8f2>
 800a4a6:	f8dd a020 	ldr.w	sl, [sp, #32]
 800a4aa:	463e      	mov	r6, r7
 800a4ac:	e5a9      	b.n	800a002 <_dtoa_r+0x48a>
 800a4ae:	bf00      	nop
 800a4b0:	40240000 	.word	0x40240000
 800a4b4:	9b0a      	ldr	r3, [sp, #40]	; 0x28
 800a4b6:	f8cd 9008 	str.w	r9, [sp, #8]
 800a4ba:	2b00      	cmp	r3, #0
 800a4bc:	f000 80fa 	beq.w	800a6b4 <_dtoa_r+0xb3c>
 800a4c0:	2d00      	cmp	r5, #0
 800a4c2:	dd05      	ble.n	800a4d0 <_dtoa_r+0x958>
 800a4c4:	4631      	mov	r1, r6
 800a4c6:	462a      	mov	r2, r5
 800a4c8:	4620      	mov	r0, r4
 800a4ca:	f000 faf3 	bl	800aab4 <__lshift>
 800a4ce:	4606      	mov	r6, r0
 800a4d0:	9b07      	ldr	r3, [sp, #28]
 800a4d2:	2b00      	cmp	r3, #0
 800a4d4:	d04c      	beq.n	800a570 <_dtoa_r+0x9f8>
 800a4d6:	6871      	ldr	r1, [r6, #4]
 800a4d8:	4620      	mov	r0, r4
 800a4da:	f000 f929 	bl	800a730 <_Balloc>
 800a4de:	6932      	ldr	r2, [r6, #16]
 800a4e0:	3202      	adds	r2, #2
 800a4e2:	4605      	mov	r5, r0
 800a4e4:	0092      	lsls	r2, r2, #2
 800a4e6:	f106 010c 	add.w	r1, r6, #12
 800a4ea:	300c      	adds	r0, #12
 800a4ec:	f7fe fc06 	bl	8008cfc <memcpy>
 800a4f0:	2201      	movs	r2, #1
 800a4f2:	4629      	mov	r1, r5
 800a4f4:	4620      	mov	r0, r4
 800a4f6:	f000 fadd 	bl	800aab4 <__lshift>
 800a4fa:	9b00      	ldr	r3, [sp, #0]
 800a4fc:	f8cd b014 	str.w	fp, [sp, #20]
 800a500:	f003 0301 	and.w	r3, r3, #1
 800a504:	46b1      	mov	r9, r6
 800a506:	9307      	str	r3, [sp, #28]
 800a508:	4606      	mov	r6, r0
 800a50a:	4639      	mov	r1, r7
 800a50c:	9804      	ldr	r0, [sp, #16]
 800a50e:	f7ff faa5 	bl	8009a5c <quorem>
 800a512:	4649      	mov	r1, r9
 800a514:	4605      	mov	r5, r0
 800a516:	f100 0830 	add.w	r8, r0, #48	; 0x30
 800a51a:	9804      	ldr	r0, [sp, #16]
 800a51c:	f000 fb1e 	bl	800ab5c <__mcmp>
 800a520:	4632      	mov	r2, r6
 800a522:	9000      	str	r0, [sp, #0]
 800a524:	4639      	mov	r1, r7
 800a526:	4620      	mov	r0, r4
 800a528:	f000 fb32 	bl	800ab90 <__mdiff>
 800a52c:	68c3      	ldr	r3, [r0, #12]
 800a52e:	4602      	mov	r2, r0
 800a530:	bb03      	cbnz	r3, 800a574 <_dtoa_r+0x9fc>
 800a532:	4601      	mov	r1, r0
 800a534:	9008      	str	r0, [sp, #32]
 800a536:	9804      	ldr	r0, [sp, #16]
 800a538:	f000 fb10 	bl	800ab5c <__mcmp>
 800a53c:	9a08      	ldr	r2, [sp, #32]
 800a53e:	4603      	mov	r3, r0
 800a540:	4611      	mov	r1, r2
 800a542:	4620      	mov	r0, r4
 800a544:	9308      	str	r3, [sp, #32]
 800a546:	f000 f927 	bl	800a798 <_Bfree>
 800a54a:	9b08      	ldr	r3, [sp, #32]
 800a54c:	b9a3      	cbnz	r3, 800a578 <_dtoa_r+0xa00>
 800a54e:	9a06      	ldr	r2, [sp, #24]
 800a550:	b992      	cbnz	r2, 800a578 <_dtoa_r+0xa00>
 800a552:	9a07      	ldr	r2, [sp, #28]
 800a554:	b982      	cbnz	r2, 800a578 <_dtoa_r+0xa00>
 800a556:	f1b8 0f39 	cmp.w	r8, #57	; 0x39
 800a55a:	d029      	beq.n	800a5b0 <_dtoa_r+0xa38>
 800a55c:	9b00      	ldr	r3, [sp, #0]
 800a55e:	2b00      	cmp	r3, #0
 800a560:	dd01      	ble.n	800a566 <_dtoa_r+0x9ee>
 800a562:	f105 0831 	add.w	r8, r5, #49	; 0x31
 800a566:	9b05      	ldr	r3, [sp, #20]
 800a568:	1c5d      	adds	r5, r3, #1
 800a56a:	f883 8000 	strb.w	r8, [r3]
 800a56e:	e782      	b.n	800a476 <_dtoa_r+0x8fe>
 800a570:	4630      	mov	r0, r6
 800a572:	e7c2      	b.n	800a4fa <_dtoa_r+0x982>
 800a574:	2301      	movs	r3, #1
 800a576:	e7e3      	b.n	800a540 <_dtoa_r+0x9c8>
 800a578:	9a00      	ldr	r2, [sp, #0]
 800a57a:	2a00      	cmp	r2, #0
 800a57c:	db04      	blt.n	800a588 <_dtoa_r+0xa10>
 800a57e:	d125      	bne.n	800a5cc <_dtoa_r+0xa54>
 800a580:	9a06      	ldr	r2, [sp, #24]
 800a582:	bb1a      	cbnz	r2, 800a5cc <_dtoa_r+0xa54>
 800a584:	9a07      	ldr	r2, [sp, #28]
 800a586:	bb0a      	cbnz	r2, 800a5cc <_dtoa_r+0xa54>
 800a588:	2b00      	cmp	r3, #0
 800a58a:	ddec      	ble.n	800a566 <_dtoa_r+0x9ee>
 800a58c:	2201      	movs	r2, #1
 800a58e:	9904      	ldr	r1, [sp, #16]
 800a590:	4620      	mov	r0, r4
 800a592:	f000 fa8f 	bl	800aab4 <__lshift>
 800a596:	4639      	mov	r1, r7
 800a598:	9004      	str	r0, [sp, #16]
 800a59a:	f000 fadf 	bl	800ab5c <__mcmp>
 800a59e:	2800      	cmp	r0, #0
 800a5a0:	dc03      	bgt.n	800a5aa <_dtoa_r+0xa32>
 800a5a2:	d1e0      	bne.n	800a566 <_dtoa_r+0x9ee>
 800a5a4:	f018 0f01 	tst.w	r8, #1
 800a5a8:	d0dd      	beq.n	800a566 <_dtoa_r+0x9ee>
 800a5aa:	f1b8 0f39 	cmp.w	r8, #57	; 0x39
 800a5ae:	d1d8      	bne.n	800a562 <_dtoa_r+0x9ea>
 800a5b0:	9b05      	ldr	r3, [sp, #20]
 800a5b2:	9a05      	ldr	r2, [sp, #20]
 800a5b4:	1c5d      	adds	r5, r3, #1
 800a5b6:	2339      	movs	r3, #57	; 0x39
 800a5b8:	7013      	strb	r3, [r2, #0]
 800a5ba:	f815 3c01 	ldrb.w	r3, [r5, #-1]
 800a5be:	2b39      	cmp	r3, #57	; 0x39
 800a5c0:	f105 32ff 	add.w	r2, r5, #4294967295
 800a5c4:	d04f      	beq.n	800a666 <_dtoa_r+0xaee>
 800a5c6:	3301      	adds	r3, #1
 800a5c8:	7013      	strb	r3, [r2, #0]
 800a5ca:	e754      	b.n	800a476 <_dtoa_r+0x8fe>
 800a5cc:	9a05      	ldr	r2, [sp, #20]
 800a5ce:	2b00      	cmp	r3, #0
 800a5d0:	f102 0501 	add.w	r5, r2, #1
 800a5d4:	dd06      	ble.n	800a5e4 <_dtoa_r+0xa6c>
 800a5d6:	f1b8 0f39 	cmp.w	r8, #57	; 0x39
 800a5da:	d0e9      	beq.n	800a5b0 <_dtoa_r+0xa38>
 800a5dc:	f108 0801 	add.w	r8, r8, #1
 800a5e0:	9b05      	ldr	r3, [sp, #20]
 800a5e2:	e7c2      	b.n	800a56a <_dtoa_r+0x9f2>
 800a5e4:	9a02      	ldr	r2, [sp, #8]
 800a5e6:	f805 8c01 	strb.w	r8, [r5, #-1]
 800a5ea:	eba5 030b 	sub.w	r3, r5, fp
 800a5ee:	4293      	cmp	r3, r2
 800a5f0:	d021      	beq.n	800a636 <_dtoa_r+0xabe>
 800a5f2:	2300      	movs	r3, #0
 800a5f4:	220a      	movs	r2, #10
 800a5f6:	9904      	ldr	r1, [sp, #16]
 800a5f8:	4620      	mov	r0, r4
 800a5fa:	f000 f8e4 	bl	800a7c6 <__multadd>
 800a5fe:	45b1      	cmp	r9, r6
 800a600:	9004      	str	r0, [sp, #16]
 800a602:	f04f 0300 	mov.w	r3, #0
 800a606:	f04f 020a 	mov.w	r2, #10
 800a60a:	4649      	mov	r1, r9
 800a60c:	4620      	mov	r0, r4
 800a60e:	d105      	bne.n	800a61c <_dtoa_r+0xaa4>
 800a610:	f000 f8d9 	bl	800a7c6 <__multadd>
 800a614:	4681      	mov	r9, r0
 800a616:	4606      	mov	r6, r0
 800a618:	9505      	str	r5, [sp, #20]
 800a61a:	e776      	b.n	800a50a <_dtoa_r+0x992>
 800a61c:	f000 f8d3 	bl	800a7c6 <__multadd>
 800a620:	4631      	mov	r1, r6
 800a622:	4681      	mov	r9, r0
 800a624:	2300      	movs	r3, #0
 800a626:	220a      	movs	r2, #10
 800a628:	4620      	mov	r0, r4
 800a62a:	f000 f8cc 	bl	800a7c6 <__multadd>
 800a62e:	4606      	mov	r6, r0
 800a630:	e7f2      	b.n	800a618 <_dtoa_r+0xaa0>
 800a632:	f04f 0900 	mov.w	r9, #0
 800a636:	2201      	movs	r2, #1
 800a638:	9904      	ldr	r1, [sp, #16]
 800a63a:	4620      	mov	r0, r4
 800a63c:	f000 fa3a 	bl	800aab4 <__lshift>
 800a640:	4639      	mov	r1, r7
 800a642:	9004      	str	r0, [sp, #16]
 800a644:	f000 fa8a 	bl	800ab5c <__mcmp>
 800a648:	2800      	cmp	r0, #0
 800a64a:	dcb6      	bgt.n	800a5ba <_dtoa_r+0xa42>
 800a64c:	d102      	bne.n	800a654 <_dtoa_r+0xadc>
 800a64e:	f018 0f01 	tst.w	r8, #1
 800a652:	d1b2      	bne.n	800a5ba <_dtoa_r+0xa42>
 800a654:	f815 3c01 	ldrb.w	r3, [r5, #-1]
 800a658:	2b30      	cmp	r3, #48	; 0x30
 800a65a:	f105 32ff 	add.w	r2, r5, #4294967295
 800a65e:	f47f af0a 	bne.w	800a476 <_dtoa_r+0x8fe>
 800a662:	4615      	mov	r5, r2
 800a664:	e7f6      	b.n	800a654 <_dtoa_r+0xadc>
 800a666:	4593      	cmp	fp, r2
 800a668:	d105      	bne.n	800a676 <_dtoa_r+0xafe>
 800a66a:	2331      	movs	r3, #49	; 0x31
 800a66c:	f10a 0a01 	add.w	sl, sl, #1
 800a670:	f88b 3000 	strb.w	r3, [fp]
 800a674:	e6ff      	b.n	800a476 <_dtoa_r+0x8fe>
 800a676:	4615      	mov	r5, r2
 800a678:	e79f      	b.n	800a5ba <_dtoa_r+0xa42>
 800a67a:	f8df b064 	ldr.w	fp, [pc, #100]	; 800a6e0 <_dtoa_r+0xb68>
 800a67e:	e007      	b.n	800a690 <_dtoa_r+0xb18>
 800a680:	9b21      	ldr	r3, [sp, #132]	; 0x84
 800a682:	f8df b060 	ldr.w	fp, [pc, #96]	; 800a6e4 <_dtoa_r+0xb6c>
 800a686:	b11b      	cbz	r3, 800a690 <_dtoa_r+0xb18>
 800a688:	f10b 0308 	add.w	r3, fp, #8
 800a68c:	9a21      	ldr	r2, [sp, #132]	; 0x84
 800a68e:	6013      	str	r3, [r2, #0]
 800a690:	4658      	mov	r0, fp
 800a692:	b017      	add	sp, #92	; 0x5c
 800a694:	e8bd 8ff0 	ldmia.w	sp!, {r4, r5, r6, r7, r8, r9, sl, fp, pc}
 800a698:	9b06      	ldr	r3, [sp, #24]
 800a69a:	2b01      	cmp	r3, #1
 800a69c:	f77f ae35 	ble.w	800a30a <_dtoa_r+0x792>
 800a6a0:	9b0e      	ldr	r3, [sp, #56]	; 0x38
 800a6a2:	9307      	str	r3, [sp, #28]
 800a6a4:	e649      	b.n	800a33a <_dtoa_r+0x7c2>
 800a6a6:	9b02      	ldr	r3, [sp, #8]
 800a6a8:	2b00      	cmp	r3, #0
 800a6aa:	dc03      	bgt.n	800a6b4 <_dtoa_r+0xb3c>
 800a6ac:	9b06      	ldr	r3, [sp, #24]
 800a6ae:	2b02      	cmp	r3, #2
 800a6b0:	f73f aecc 	bgt.w	800a44c <_dtoa_r+0x8d4>
 800a6b4:	465d      	mov	r5, fp
 800a6b6:	4639      	mov	r1, r7
 800a6b8:	9804      	ldr	r0, [sp, #16]
 800a6ba:	f7ff f9cf 	bl	8009a5c <quorem>
 800a6be:	f100 0830 	add.w	r8, r0, #48	; 0x30
 800a6c2:	f805 8b01 	strb.w	r8, [r5], #1
 800a6c6:	9a02      	ldr	r2, [sp, #8]
 800a6c8:	eba5 030b 	sub.w	r3, r5, fp
 800a6cc:	429a      	cmp	r2, r3
 800a6ce:	ddb0      	ble.n	800a632 <_dtoa_r+0xaba>
 800a6d0:	2300      	movs	r3, #0
 800a6d2:	220a      	movs	r2, #10
 800a6d4:	9904      	ldr	r1, [sp, #16]
 800a6d6:	4620      	mov	r0, r4
 800a6d8:	f000 f875 	bl	800a7c6 <__multadd>
 800a6dc:	9004      	str	r0, [sp, #16]
 800a6de:	e7ea      	b.n	800a6b6 <_dtoa_r+0xb3e>
 800a6e0:	0800b5a7 	.word	0x0800b5a7
 800a6e4:	0800b9e2 	.word	0x0800b9e2

0800a6e8 <__locale_ctype_ptr_l>:
 800a6e8:	f8d0 00ec 	ldr.w	r0, [r0, #236]	; 0xec
 800a6ec:	4770      	bx	lr
	...

0800a6f0 <_localeconv_r>:
 800a6f0:	4b04      	ldr	r3, [pc, #16]	; (800a704 <_localeconv_r+0x14>)
 800a6f2:	681b      	ldr	r3, [r3, #0]
 800a6f4:	6a18      	ldr	r0, [r3, #32]
 800a6f6:	4b04      	ldr	r3, [pc, #16]	; (800a708 <_localeconv_r+0x18>)
 800a6f8:	2800      	cmp	r0, #0
 800a6fa:	bf08      	it	eq
 800a6fc:	4618      	moveq	r0, r3
 800a6fe:	30f0      	adds	r0, #240	; 0xf0
 800a700:	4770      	bx	lr
 800a702:	bf00      	nop
 800a704:	20000094 	.word	0x20000094
 800a708:	200000f8 	.word	0x200000f8

0800a70c <__ascii_mbtowc>:
 800a70c:	b082      	sub	sp, #8
 800a70e:	b901      	cbnz	r1, 800a712 <__ascii_mbtowc+0x6>
 800a710:	a901      	add	r1, sp, #4
 800a712:	b142      	cbz	r2, 800a726 <__ascii_mbtowc+0x1a>
 800a714:	b14b      	cbz	r3, 800a72a <__ascii_mbtowc+0x1e>
 800a716:	7813      	ldrb	r3, [r2, #0]
 800a718:	600b      	str	r3, [r1, #0]
 800a71a:	7812      	ldrb	r2, [r2, #0]
 800a71c:	1c10      	adds	r0, r2, #0
 800a71e:	bf18      	it	ne
 800a720:	2001      	movne	r0, #1
 800a722:	b002      	add	sp, #8
 800a724:	4770      	bx	lr
 800a726:	4610      	mov	r0, r2
 800a728:	e7fb      	b.n	800a722 <__ascii_mbtowc+0x16>
 800a72a:	f06f 0001 	mvn.w	r0, #1
 800a72e:	e7f8      	b.n	800a722 <__ascii_mbtowc+0x16>

0800a730 <_Balloc>:
 800a730:	b570      	push	{r4, r5, r6, lr}
 800a732:	6a45      	ldr	r5, [r0, #36]	; 0x24
 800a734:	4604      	mov	r4, r0
 800a736:	460e      	mov	r6, r1
 800a738:	b93d      	cbnz	r5, 800a74a <_Balloc+0x1a>
 800a73a:	2010      	movs	r0, #16
 800a73c:	f7fe face 	bl	8008cdc <malloc>
 800a740:	6260      	str	r0, [r4, #36]	; 0x24
 800a742:	e9c0 5501 	strd	r5, r5, [r0, #4]
 800a746:	6005      	str	r5, [r0, #0]
 800a748:	60c5      	str	r5, [r0, #12]
 800a74a:	6a65      	ldr	r5, [r4, #36]	; 0x24
 800a74c:	68eb      	ldr	r3, [r5, #12]
 800a74e:	b183      	cbz	r3, 800a772 <_Balloc+0x42>
 800a750:	6a63      	ldr	r3, [r4, #36]	; 0x24
 800a752:	68db      	ldr	r3, [r3, #12]
 800a754:	f853 0026 	ldr.w	r0, [r3, r6, lsl #2]
 800a758:	b9b8      	cbnz	r0, 800a78a <_Balloc+0x5a>
 800a75a:	2101      	movs	r1, #1
 800a75c:	fa01 f506 	lsl.w	r5, r1, r6
 800a760:	1d6a      	adds	r2, r5, #5
 800a762:	0092      	lsls	r2, r2, #2
 800a764:	4620      	mov	r0, r4
 800a766:	f000 fabf 	bl	800ace8 <_calloc_r>
 800a76a:	b160      	cbz	r0, 800a786 <_Balloc+0x56>
 800a76c:	e9c0 6501 	strd	r6, r5, [r0, #4]
 800a770:	e00e      	b.n	800a790 <_Balloc+0x60>
 800a772:	2221      	movs	r2, #33	; 0x21
 800a774:	2104      	movs	r1, #4
 800a776:	4620      	mov	r0, r4
 800a778:	f000 fab6 	bl	800ace8 <_calloc_r>
 800a77c:	6a63      	ldr	r3, [r4, #36]	; 0x24
 800a77e:	60e8      	str	r0, [r5, #12]
 800a780:	68db      	ldr	r3, [r3, #12]
 800a782:	2b00      	cmp	r3, #0
 800a784:	d1e4      	bne.n	800a750 <_Balloc+0x20>
 800a786:	2000      	movs	r0, #0
 800a788:	bd70      	pop	{r4, r5, r6, pc}
 800a78a:	6802      	ldr	r2, [r0, #0]
 800a78c:	f843 2026 	str.w	r2, [r3, r6, lsl #2]
 800a790:	2300      	movs	r3, #0
 800a792:	e9c0 3303 	strd	r3, r3, [r0, #12]
 800a796:	e7f7      	b.n	800a788 <_Balloc+0x58>

0800a798 <_Bfree>:
 800a798:	b570      	push	{r4, r5, r6, lr}
 800a79a:	6a44      	ldr	r4, [r0, #36]	; 0x24
 800a79c:	4606      	mov	r6, r0
 800a79e:	460d      	mov	r5, r1
 800a7a0:	b93c      	cbnz	r4, 800a7b2 <_Bfree+0x1a>
 800a7a2:	2010      	movs	r0, #16
 800a7a4:	f7fe fa9a 	bl	8008cdc <malloc>
 800a7a8:	6270      	str	r0, [r6, #36]	; 0x24
 800a7aa:	e9c0 4401 	strd	r4, r4, [r0, #4]
 800a7ae:	6004      	str	r4, [r0, #0]
 800a7b0:	60c4      	str	r4, [r0, #12]
 800a7b2:	b13d      	cbz	r5, 800a7c4 <_Bfree+0x2c>
 800a7b4:	6a73      	ldr	r3, [r6, #36]	; 0x24
 800a7b6:	686a      	ldr	r2, [r5, #4]
 800a7b8:	68db      	ldr	r3, [r3, #12]
 800a7ba:	f853 1022 	ldr.w	r1, [r3, r2, lsl #2]
 800a7be:	6029      	str	r1, [r5, #0]
 800a7c0:	f843 5022 	str.w	r5, [r3, r2, lsl #2]
 800a7c4:	bd70      	pop	{r4, r5, r6, pc}

0800a7c6 <__multadd>:
 800a7c6:	e92d 41f0 	stmdb	sp!, {r4, r5, r6, r7, r8, lr}
 800a7ca:	690d      	ldr	r5, [r1, #16]
 800a7cc:	461f      	mov	r7, r3
 800a7ce:	4606      	mov	r6, r0
 800a7d0:	460c      	mov	r4, r1
 800a7d2:	f101 0c14 	add.w	ip, r1, #20
 800a7d6:	2300      	movs	r3, #0
 800a7d8:	f8dc 0000 	ldr.w	r0, [ip]
 800a7dc:	b281      	uxth	r1, r0
 800a7de:	fb02 7101 	mla	r1, r2, r1, r7
 800a7e2:	0c0f      	lsrs	r7, r1, #16
 800a7e4:	0c00      	lsrs	r0, r0, #16
 800a7e6:	fb02 7000 	mla	r0, r2, r0, r7
 800a7ea:	b289      	uxth	r1, r1
 800a7ec:	3301      	adds	r3, #1
 800a7ee:	eb01 4100 	add.w	r1, r1, r0, lsl #16
 800a7f2:	429d      	cmp	r5, r3
 800a7f4:	ea4f 4710 	mov.w	r7, r0, lsr #16
 800a7f8:	f84c 1b04 	str.w	r1, [ip], #4
 800a7fc:	dcec      	bgt.n	800a7d8 <__multadd+0x12>
 800a7fe:	b1d7      	cbz	r7, 800a836 <__multadd+0x70>
 800a800:	68a3      	ldr	r3, [r4, #8]
 800a802:	42ab      	cmp	r3, r5
 800a804:	dc12      	bgt.n	800a82c <__multadd+0x66>
 800a806:	6861      	ldr	r1, [r4, #4]
 800a808:	4630      	mov	r0, r6
 800a80a:	3101      	adds	r1, #1
 800a80c:	f7ff ff90 	bl	800a730 <_Balloc>
 800a810:	6922      	ldr	r2, [r4, #16]
 800a812:	3202      	adds	r2, #2
 800a814:	f104 010c 	add.w	r1, r4, #12
 800a818:	4680      	mov	r8, r0
 800a81a:	0092      	lsls	r2, r2, #2
 800a81c:	300c      	adds	r0, #12
 800a81e:	f7fe fa6d 	bl	8008cfc <memcpy>
 800a822:	4621      	mov	r1, r4
 800a824:	4630      	mov	r0, r6
 800a826:	f7ff ffb7 	bl	800a798 <_Bfree>
 800a82a:	4644      	mov	r4, r8
 800a82c:	eb04 0385 	add.w	r3, r4, r5, lsl #2
 800a830:	3501      	adds	r5, #1
 800a832:	615f      	str	r7, [r3, #20]
 800a834:	6125      	str	r5, [r4, #16]
 800a836:	4620      	mov	r0, r4
 800a838:	e8bd 81f0 	ldmia.w	sp!, {r4, r5, r6, r7, r8, pc}

0800a83c <__hi0bits>:
 800a83c:	0c02      	lsrs	r2, r0, #16
 800a83e:	0412      	lsls	r2, r2, #16
 800a840:	4603      	mov	r3, r0
 800a842:	b9b2      	cbnz	r2, 800a872 <__hi0bits+0x36>
 800a844:	0403      	lsls	r3, r0, #16
 800a846:	2010      	movs	r0, #16
 800a848:	f013 4f7f 	tst.w	r3, #4278190080	; 0xff000000
 800a84c:	bf04      	itt	eq
 800a84e:	021b      	lsleq	r3, r3, #8
 800a850:	3008      	addeq	r0, #8
 800a852:	f013 4f70 	tst.w	r3, #4026531840	; 0xf0000000
 800a856:	bf04      	itt	eq
 800a858:	011b      	lsleq	r3, r3, #4
 800a85a:	3004      	addeq	r0, #4
 800a85c:	f013 4f40 	tst.w	r3, #3221225472	; 0xc0000000
 800a860:	bf04      	itt	eq
 800a862:	009b      	lsleq	r3, r3, #2
 800a864:	3002      	addeq	r0, #2
 800a866:	2b00      	cmp	r3, #0
 800a868:	db06      	blt.n	800a878 <__hi0bits+0x3c>
 800a86a:	005b      	lsls	r3, r3, #1
 800a86c:	d503      	bpl.n	800a876 <__hi0bits+0x3a>
 800a86e:	3001      	adds	r0, #1
 800a870:	4770      	bx	lr
 800a872:	2000      	movs	r0, #0
 800a874:	e7e8      	b.n	800a848 <__hi0bits+0xc>
 800a876:	2020      	movs	r0, #32
 800a878:	4770      	bx	lr

0800a87a <__lo0bits>:
 800a87a:	6803      	ldr	r3, [r0, #0]
 800a87c:	f013 0207 	ands.w	r2, r3, #7
 800a880:	4601      	mov	r1, r0
 800a882:	d00b      	beq.n	800a89c <__lo0bits+0x22>
 800a884:	07da      	lsls	r2, r3, #31
 800a886:	d423      	bmi.n	800a8d0 <__lo0bits+0x56>
 800a888:	0798      	lsls	r0, r3, #30
 800a88a:	bf49      	itett	mi
 800a88c:	085b      	lsrmi	r3, r3, #1
 800a88e:	089b      	lsrpl	r3, r3, #2
 800a890:	2001      	movmi	r0, #1
 800a892:	600b      	strmi	r3, [r1, #0]
 800a894:	bf5c      	itt	pl
 800a896:	600b      	strpl	r3, [r1, #0]
 800a898:	2002      	movpl	r0, #2
 800a89a:	4770      	bx	lr
 800a89c:	b298      	uxth	r0, r3
 800a89e:	b9a8      	cbnz	r0, 800a8cc <__lo0bits+0x52>
 800a8a0:	0c1b      	lsrs	r3, r3, #16
 800a8a2:	2010      	movs	r0, #16
 800a8a4:	f013 0fff 	tst.w	r3, #255	; 0xff
 800a8a8:	bf04      	itt	eq
 800a8aa:	0a1b      	lsreq	r3, r3, #8
 800a8ac:	3008      	addeq	r0, #8
 800a8ae:	071a      	lsls	r2, r3, #28
 800a8b0:	bf04      	itt	eq
 800a8b2:	091b      	lsreq	r3, r3, #4
 800a8b4:	3004      	addeq	r0, #4
 800a8b6:	079a      	lsls	r2, r3, #30
 800a8b8:	bf04      	itt	eq
 800a8ba:	089b      	lsreq	r3, r3, #2
 800a8bc:	3002      	addeq	r0, #2
 800a8be:	07da      	lsls	r2, r3, #31
 800a8c0:	d402      	bmi.n	800a8c8 <__lo0bits+0x4e>
 800a8c2:	085b      	lsrs	r3, r3, #1
 800a8c4:	d006      	beq.n	800a8d4 <__lo0bits+0x5a>
 800a8c6:	3001      	adds	r0, #1
 800a8c8:	600b      	str	r3, [r1, #0]
 800a8ca:	4770      	bx	lr
 800a8cc:	4610      	mov	r0, r2
 800a8ce:	e7e9      	b.n	800a8a4 <__lo0bits+0x2a>
 800a8d0:	2000      	movs	r0, #0
 800a8d2:	4770      	bx	lr
 800a8d4:	2020      	movs	r0, #32
 800a8d6:	4770      	bx	lr

0800a8d8 <__i2b>:
 800a8d8:	b510      	push	{r4, lr}
 800a8da:	460c      	mov	r4, r1
 800a8dc:	2101      	movs	r1, #1
 800a8de:	f7ff ff27 	bl	800a730 <_Balloc>
 800a8e2:	2201      	movs	r2, #1
 800a8e4:	6144      	str	r4, [r0, #20]
 800a8e6:	6102      	str	r2, [r0, #16]
 800a8e8:	bd10      	pop	{r4, pc}

0800a8ea <__multiply>:
 800a8ea:	e92d 4ff7 	stmdb	sp!, {r0, r1, r2, r4, r5, r6, r7, r8, r9, sl, fp, lr}
 800a8ee:	4614      	mov	r4, r2
 800a8f0:	690a      	ldr	r2, [r1, #16]
 800a8f2:	6923      	ldr	r3, [r4, #16]
 800a8f4:	429a      	cmp	r2, r3
 800a8f6:	bfb8      	it	lt
 800a8f8:	460b      	movlt	r3, r1
 800a8fa:	4688      	mov	r8, r1
 800a8fc:	bfbc      	itt	lt
 800a8fe:	46a0      	movlt	r8, r4
 800a900:	461c      	movlt	r4, r3
 800a902:	f8d8 7010 	ldr.w	r7, [r8, #16]
 800a906:	f8d4 9010 	ldr.w	r9, [r4, #16]
 800a90a:	f8d8 3008 	ldr.w	r3, [r8, #8]
 800a90e:	f8d8 1004 	ldr.w	r1, [r8, #4]
 800a912:	eb07 0609 	add.w	r6, r7, r9
 800a916:	42b3      	cmp	r3, r6
 800a918:	bfb8      	it	lt
 800a91a:	3101      	addlt	r1, #1
 800a91c:	f7ff ff08 	bl	800a730 <_Balloc>
 800a920:	f100 0514 	add.w	r5, r0, #20
 800a924:	eb05 0e86 	add.w	lr, r5, r6, lsl #2
 800a928:	462b      	mov	r3, r5
 800a92a:	2200      	movs	r2, #0
 800a92c:	4573      	cmp	r3, lr
 800a92e:	d316      	bcc.n	800a95e <__multiply+0x74>
 800a930:	f104 0214 	add.w	r2, r4, #20
 800a934:	f108 0114 	add.w	r1, r8, #20
 800a938:	eb02 0389 	add.w	r3, r2, r9, lsl #2
 800a93c:	eb01 0787 	add.w	r7, r1, r7, lsl #2
 800a940:	9300      	str	r3, [sp, #0]
 800a942:	9b00      	ldr	r3, [sp, #0]
 800a944:	9201      	str	r2, [sp, #4]
 800a946:	4293      	cmp	r3, r2
 800a948:	d80c      	bhi.n	800a964 <__multiply+0x7a>
 800a94a:	2e00      	cmp	r6, #0
 800a94c:	dd03      	ble.n	800a956 <__multiply+0x6c>
 800a94e:	f85e 3d04 	ldr.w	r3, [lr, #-4]!
 800a952:	2b00      	cmp	r3, #0
 800a954:	d05d      	beq.n	800aa12 <__multiply+0x128>
 800a956:	6106      	str	r6, [r0, #16]
 800a958:	b003      	add	sp, #12
 800a95a:	e8bd 8ff0 	ldmia.w	sp!, {r4, r5, r6, r7, r8, r9, sl, fp, pc}
 800a95e:	f843 2b04 	str.w	r2, [r3], #4
 800a962:	e7e3      	b.n	800a92c <__multiply+0x42>
 800a964:	f8b2 b000 	ldrh.w	fp, [r2]
 800a968:	f1bb 0f00 	cmp.w	fp, #0
 800a96c:	d023      	beq.n	800a9b6 <__multiply+0xcc>
 800a96e:	4689      	mov	r9, r1
 800a970:	46ac      	mov	ip, r5
 800a972:	f04f 0800 	mov.w	r8, #0
 800a976:	f859 4b04 	ldr.w	r4, [r9], #4
 800a97a:	f8dc a000 	ldr.w	sl, [ip]
 800a97e:	b2a3      	uxth	r3, r4
 800a980:	fa1f fa8a 	uxth.w	sl, sl
 800a984:	fb0b a303 	mla	r3, fp, r3, sl
 800a988:	ea4f 4a14 	mov.w	sl, r4, lsr #16
 800a98c:	f8dc 4000 	ldr.w	r4, [ip]
 800a990:	4443      	add	r3, r8
 800a992:	ea4f 4814 	mov.w	r8, r4, lsr #16
 800a996:	fb0b 840a 	mla	r4, fp, sl, r8
 800a99a:	eb04 4413 	add.w	r4, r4, r3, lsr #16
 800a99e:	46e2      	mov	sl, ip
 800a9a0:	b29b      	uxth	r3, r3
 800a9a2:	ea43 4304 	orr.w	r3, r3, r4, lsl #16
 800a9a6:	454f      	cmp	r7, r9
 800a9a8:	ea4f 4814 	mov.w	r8, r4, lsr #16
 800a9ac:	f84a 3b04 	str.w	r3, [sl], #4
 800a9b0:	d82b      	bhi.n	800aa0a <__multiply+0x120>
 800a9b2:	f8cc 8004 	str.w	r8, [ip, #4]
 800a9b6:	9b01      	ldr	r3, [sp, #4]
 800a9b8:	f8b3 a002 	ldrh.w	sl, [r3, #2]
 800a9bc:	3204      	adds	r2, #4
 800a9be:	f1ba 0f00 	cmp.w	sl, #0
 800a9c2:	d020      	beq.n	800aa06 <__multiply+0x11c>
 800a9c4:	682b      	ldr	r3, [r5, #0]
 800a9c6:	4689      	mov	r9, r1
 800a9c8:	46a8      	mov	r8, r5
 800a9ca:	f04f 0b00 	mov.w	fp, #0
 800a9ce:	f8b9 c000 	ldrh.w	ip, [r9]
 800a9d2:	f8b8 4002 	ldrh.w	r4, [r8, #2]
 800a9d6:	fb0a 440c 	mla	r4, sl, ip, r4
 800a9da:	445c      	add	r4, fp
 800a9dc:	46c4      	mov	ip, r8
 800a9de:	b29b      	uxth	r3, r3
 800a9e0:	ea43 4304 	orr.w	r3, r3, r4, lsl #16
 800a9e4:	f84c 3b04 	str.w	r3, [ip], #4
 800a9e8:	f859 3b04 	ldr.w	r3, [r9], #4
 800a9ec:	f8b8 b004 	ldrh.w	fp, [r8, #4]
 800a9f0:	0c1b      	lsrs	r3, r3, #16
 800a9f2:	fb0a b303 	mla	r3, sl, r3, fp
 800a9f6:	eb03 4314 	add.w	r3, r3, r4, lsr #16
 800a9fa:	454f      	cmp	r7, r9
 800a9fc:	ea4f 4b13 	mov.w	fp, r3, lsr #16
 800aa00:	d805      	bhi.n	800aa0e <__multiply+0x124>
 800aa02:	f8c8 3004 	str.w	r3, [r8, #4]
 800aa06:	3504      	adds	r5, #4
 800aa08:	e79b      	b.n	800a942 <__multiply+0x58>
 800aa0a:	46d4      	mov	ip, sl
 800aa0c:	e7b3      	b.n	800a976 <__multiply+0x8c>
 800aa0e:	46e0      	mov	r8, ip
 800aa10:	e7dd      	b.n	800a9ce <__multiply+0xe4>
 800aa12:	3e01      	subs	r6, #1
 800aa14:	e799      	b.n	800a94a <__multiply+0x60>
	...

0800aa18 <__pow5mult>:
 800aa18:	e92d 43f8 	stmdb	sp!, {r3, r4, r5, r6, r7, r8, r9, lr}
 800aa1c:	4615      	mov	r5, r2
 800aa1e:	f012 0203 	ands.w	r2, r2, #3
 800aa22:	4606      	mov	r6, r0
 800aa24:	460f      	mov	r7, r1
 800aa26:	d007      	beq.n	800aa38 <__pow5mult+0x20>
 800aa28:	3a01      	subs	r2, #1
 800aa2a:	4c21      	ldr	r4, [pc, #132]	; (800aab0 <__pow5mult+0x98>)
 800aa2c:	2300      	movs	r3, #0
 800aa2e:	f854 2022 	ldr.w	r2, [r4, r2, lsl #2]
 800aa32:	f7ff fec8 	bl	800a7c6 <__multadd>
 800aa36:	4607      	mov	r7, r0
 800aa38:	10ad      	asrs	r5, r5, #2
 800aa3a:	d035      	beq.n	800aaa8 <__pow5mult+0x90>
 800aa3c:	6a74      	ldr	r4, [r6, #36]	; 0x24
 800aa3e:	b93c      	cbnz	r4, 800aa50 <__pow5mult+0x38>
 800aa40:	2010      	movs	r0, #16
 800aa42:	f7fe f94b 	bl	8008cdc <malloc>
 800aa46:	6270      	str	r0, [r6, #36]	; 0x24
 800aa48:	e9c0 4401 	strd	r4, r4, [r0, #4]
 800aa4c:	6004      	str	r4, [r0, #0]
 800aa4e:	60c4      	str	r4, [r0, #12]
 800aa50:	f8d6 8024 	ldr.w	r8, [r6, #36]	; 0x24
 800aa54:	f8d8 4008 	ldr.w	r4, [r8, #8]
 800aa58:	b94c      	cbnz	r4, 800aa6e <__pow5mult+0x56>
 800aa5a:	f240 2171 	movw	r1, #625	; 0x271
 800aa5e:	4630      	mov	r0, r6
 800aa60:	f7ff ff3a 	bl	800a8d8 <__i2b>
 800aa64:	2300      	movs	r3, #0
 800aa66:	f8c8 0008 	str.w	r0, [r8, #8]
 800aa6a:	4604      	mov	r4, r0
 800aa6c:	6003      	str	r3, [r0, #0]
 800aa6e:	f04f 0800 	mov.w	r8, #0
 800aa72:	07eb      	lsls	r3, r5, #31
 800aa74:	d50a      	bpl.n	800aa8c <__pow5mult+0x74>
 800aa76:	4639      	mov	r1, r7
 800aa78:	4622      	mov	r2, r4
 800aa7a:	4630      	mov	r0, r6
 800aa7c:	f7ff ff35 	bl	800a8ea <__multiply>
 800aa80:	4639      	mov	r1, r7
 800aa82:	4681      	mov	r9, r0
 800aa84:	4630      	mov	r0, r6
 800aa86:	f7ff fe87 	bl	800a798 <_Bfree>
 800aa8a:	464f      	mov	r7, r9
 800aa8c:	106d      	asrs	r5, r5, #1
 800aa8e:	d00b      	beq.n	800aaa8 <__pow5mult+0x90>
 800aa90:	6820      	ldr	r0, [r4, #0]
 800aa92:	b938      	cbnz	r0, 800aaa4 <__pow5mult+0x8c>
 800aa94:	4622      	mov	r2, r4
 800aa96:	4621      	mov	r1, r4
 800aa98:	4630      	mov	r0, r6
 800aa9a:	f7ff ff26 	bl	800a8ea <__multiply>
 800aa9e:	6020      	str	r0, [r4, #0]
 800aaa0:	f8c0 8000 	str.w	r8, [r0]
 800aaa4:	4604      	mov	r4, r0
 800aaa6:	e7e4      	b.n	800aa72 <__pow5mult+0x5a>
 800aaa8:	4638      	mov	r0, r7
 800aaaa:	e8bd 83f8 	ldmia.w	sp!, {r3, r4, r5, r6, r7, r8, r9, pc}
 800aaae:	bf00      	nop
 800aab0:	0800baf0 	.word	0x0800baf0

0800aab4 <__lshift>:
 800aab4:	e92d 47f0 	stmdb	sp!, {r4, r5, r6, r7, r8, r9, sl, lr}
 800aab8:	460c      	mov	r4, r1
 800aaba:	ea4f 1a62 	mov.w	sl, r2, asr #5
 800aabe:	6923      	ldr	r3, [r4, #16]
 800aac0:	6849      	ldr	r1, [r1, #4]
 800aac2:	eb0a 0903 	add.w	r9, sl, r3
 800aac6:	68a3      	ldr	r3, [r4, #8]
 800aac8:	4607      	mov	r7, r0
 800aaca:	4616      	mov	r6, r2
 800aacc:	f109 0501 	add.w	r5, r9, #1
 800aad0:	42ab      	cmp	r3, r5
 800aad2:	db32      	blt.n	800ab3a <__lshift+0x86>
 800aad4:	4638      	mov	r0, r7
 800aad6:	f7ff fe2b 	bl	800a730 <_Balloc>
 800aada:	2300      	movs	r3, #0
 800aadc:	4680      	mov	r8, r0
 800aade:	f100 0114 	add.w	r1, r0, #20
 800aae2:	461a      	mov	r2, r3
 800aae4:	4553      	cmp	r3, sl
 800aae6:	db2b      	blt.n	800ab40 <__lshift+0x8c>
 800aae8:	6920      	ldr	r0, [r4, #16]
 800aaea:	ea2a 7aea 	bic.w	sl, sl, sl, asr #31
 800aaee:	f104 0314 	add.w	r3, r4, #20
 800aaf2:	f016 021f 	ands.w	r2, r6, #31
 800aaf6:	eb01 018a 	add.w	r1, r1, sl, lsl #2
 800aafa:	eb03 0c80 	add.w	ip, r3, r0, lsl #2
 800aafe:	d025      	beq.n	800ab4c <__lshift+0x98>
 800ab00:	f1c2 0e20 	rsb	lr, r2, #32
 800ab04:	2000      	movs	r0, #0
 800ab06:	681e      	ldr	r6, [r3, #0]
 800ab08:	468a      	mov	sl, r1
 800ab0a:	4096      	lsls	r6, r2
 800ab0c:	4330      	orrs	r0, r6
 800ab0e:	f84a 0b04 	str.w	r0, [sl], #4
 800ab12:	f853 0b04 	ldr.w	r0, [r3], #4
 800ab16:	459c      	cmp	ip, r3
 800ab18:	fa20 f00e 	lsr.w	r0, r0, lr
 800ab1c:	d814      	bhi.n	800ab48 <__lshift+0x94>
 800ab1e:	6048      	str	r0, [r1, #4]
 800ab20:	b108      	cbz	r0, 800ab26 <__lshift+0x72>
 800ab22:	f109 0502 	add.w	r5, r9, #2
 800ab26:	3d01      	subs	r5, #1
 800ab28:	4638      	mov	r0, r7
 800ab2a:	f8c8 5010 	str.w	r5, [r8, #16]
 800ab2e:	4621      	mov	r1, r4
 800ab30:	f7ff fe32 	bl	800a798 <_Bfree>
 800ab34:	4640      	mov	r0, r8
 800ab36:	e8bd 87f0 	ldmia.w	sp!, {r4, r5, r6, r7, r8, r9, sl, pc}
 800ab3a:	3101      	adds	r1, #1
 800ab3c:	005b      	lsls	r3, r3, #1
 800ab3e:	e7c7      	b.n	800aad0 <__lshift+0x1c>
 800ab40:	f841 2023 	str.w	r2, [r1, r3, lsl #2]
 800ab44:	3301      	adds	r3, #1
 800ab46:	e7cd      	b.n	800aae4 <__lshift+0x30>
 800ab48:	4651      	mov	r1, sl
 800ab4a:	e7dc      	b.n	800ab06 <__lshift+0x52>
 800ab4c:	3904      	subs	r1, #4
 800ab4e:	f853 2b04 	ldr.w	r2, [r3], #4
 800ab52:	f841 2f04 	str.w	r2, [r1, #4]!
 800ab56:	459c      	cmp	ip, r3
 800ab58:	d8f9      	bhi.n	800ab4e <__lshift+0x9a>
 800ab5a:	e7e4      	b.n	800ab26 <__lshift+0x72>

0800ab5c <__mcmp>:
 800ab5c:	6903      	ldr	r3, [r0, #16]
 800ab5e:	690a      	ldr	r2, [r1, #16]
 800ab60:	1a9b      	subs	r3, r3, r2
 800ab62:	b530      	push	{r4, r5, lr}
 800ab64:	d10c      	bne.n	800ab80 <__mcmp+0x24>
 800ab66:	0092      	lsls	r2, r2, #2
 800ab68:	3014      	adds	r0, #20
 800ab6a:	3114      	adds	r1, #20
 800ab6c:	1884      	adds	r4, r0, r2
 800ab6e:	4411      	add	r1, r2
 800ab70:	f854 5d04 	ldr.w	r5, [r4, #-4]!
 800ab74:	f851 2d04 	ldr.w	r2, [r1, #-4]!
 800ab78:	4295      	cmp	r5, r2
 800ab7a:	d003      	beq.n	800ab84 <__mcmp+0x28>
 800ab7c:	d305      	bcc.n	800ab8a <__mcmp+0x2e>
 800ab7e:	2301      	movs	r3, #1
 800ab80:	4618      	mov	r0, r3
 800ab82:	bd30      	pop	{r4, r5, pc}
 800ab84:	42a0      	cmp	r0, r4
 800ab86:	d3f3      	bcc.n	800ab70 <__mcmp+0x14>
 800ab88:	e7fa      	b.n	800ab80 <__mcmp+0x24>
 800ab8a:	f04f 33ff 	mov.w	r3, #4294967295
 800ab8e:	e7f7      	b.n	800ab80 <__mcmp+0x24>

0800ab90 <__mdiff>:
 800ab90:	e92d 47f0 	stmdb	sp!, {r4, r5, r6, r7, r8, r9, sl, lr}
 800ab94:	460d      	mov	r5, r1
 800ab96:	4607      	mov	r7, r0
 800ab98:	4611      	mov	r1, r2
 800ab9a:	4628      	mov	r0, r5
 800ab9c:	4614      	mov	r4, r2
 800ab9e:	f7ff ffdd 	bl	800ab5c <__mcmp>
 800aba2:	1e06      	subs	r6, r0, #0
 800aba4:	d108      	bne.n	800abb8 <__mdiff+0x28>
 800aba6:	4631      	mov	r1, r6
 800aba8:	4638      	mov	r0, r7
 800abaa:	f7ff fdc1 	bl	800a730 <_Balloc>
 800abae:	2301      	movs	r3, #1
 800abb0:	e9c0 3604 	strd	r3, r6, [r0, #16]
 800abb4:	e8bd 87f0 	ldmia.w	sp!, {r4, r5, r6, r7, r8, r9, sl, pc}
 800abb8:	bfa4      	itt	ge
 800abba:	4623      	movge	r3, r4
 800abbc:	462c      	movge	r4, r5
 800abbe:	4638      	mov	r0, r7
 800abc0:	6861      	ldr	r1, [r4, #4]
 800abc2:	bfa6      	itte	ge
 800abc4:	461d      	movge	r5, r3
 800abc6:	2600      	movge	r6, #0
 800abc8:	2601      	movlt	r6, #1
 800abca:	f7ff fdb1 	bl	800a730 <_Balloc>
 800abce:	692b      	ldr	r3, [r5, #16]
 800abd0:	60c6      	str	r6, [r0, #12]
 800abd2:	6926      	ldr	r6, [r4, #16]
 800abd4:	f105 0914 	add.w	r9, r5, #20
 800abd8:	f104 0214 	add.w	r2, r4, #20
 800abdc:	eb02 0786 	add.w	r7, r2, r6, lsl #2
 800abe0:	eb09 0883 	add.w	r8, r9, r3, lsl #2
 800abe4:	f100 0514 	add.w	r5, r0, #20
 800abe8:	f04f 0e00 	mov.w	lr, #0
 800abec:	f852 ab04 	ldr.w	sl, [r2], #4
 800abf0:	f859 4b04 	ldr.w	r4, [r9], #4
 800abf4:	fa1e f18a 	uxtah	r1, lr, sl
 800abf8:	b2a3      	uxth	r3, r4
 800abfa:	1ac9      	subs	r1, r1, r3
 800abfc:	0c23      	lsrs	r3, r4, #16
 800abfe:	ebc3 431a 	rsb	r3, r3, sl, lsr #16
 800ac02:	eb03 4321 	add.w	r3, r3, r1, asr #16
 800ac06:	b289      	uxth	r1, r1
 800ac08:	ea4f 4e23 	mov.w	lr, r3, asr #16
 800ac0c:	45c8      	cmp	r8, r9
 800ac0e:	ea41 4303 	orr.w	r3, r1, r3, lsl #16
 800ac12:	4694      	mov	ip, r2
 800ac14:	f845 3b04 	str.w	r3, [r5], #4
 800ac18:	d8e8      	bhi.n	800abec <__mdiff+0x5c>
 800ac1a:	45bc      	cmp	ip, r7
 800ac1c:	d304      	bcc.n	800ac28 <__mdiff+0x98>
 800ac1e:	f855 3d04 	ldr.w	r3, [r5, #-4]!
 800ac22:	b183      	cbz	r3, 800ac46 <__mdiff+0xb6>
 800ac24:	6106      	str	r6, [r0, #16]
 800ac26:	e7c5      	b.n	800abb4 <__mdiff+0x24>
 800ac28:	f85c 1b04 	ldr.w	r1, [ip], #4
 800ac2c:	fa1e f381 	uxtah	r3, lr, r1
 800ac30:	141a      	asrs	r2, r3, #16
 800ac32:	eb02 4211 	add.w	r2, r2, r1, lsr #16
 800ac36:	b29b      	uxth	r3, r3
 800ac38:	ea43 4302 	orr.w	r3, r3, r2, lsl #16
 800ac3c:	ea4f 4e22 	mov.w	lr, r2, asr #16
 800ac40:	f845 3b04 	str.w	r3, [r5], #4
 800ac44:	e7e9      	b.n	800ac1a <__mdiff+0x8a>
 800ac46:	3e01      	subs	r6, #1
 800ac48:	e7e9      	b.n	800ac1e <__mdiff+0x8e>

0800ac4a <__d2b>:
 800ac4a:	e92d 43f7 	stmdb	sp!, {r0, r1, r2, r4, r5, r6, r7, r8, r9, lr}
 800ac4e:	460e      	mov	r6, r1
 800ac50:	2101      	movs	r1, #1
 800ac52:	ec59 8b10 	vmov	r8, r9, d0
 800ac56:	4615      	mov	r5, r2
 800ac58:	f7ff fd6a 	bl	800a730 <_Balloc>
 800ac5c:	f3c9 540a 	ubfx	r4, r9, #20, #11
 800ac60:	4607      	mov	r7, r0
 800ac62:	f3c9 0313 	ubfx	r3, r9, #0, #20
 800ac66:	bb34      	cbnz	r4, 800acb6 <__d2b+0x6c>
 800ac68:	9301      	str	r3, [sp, #4]
 800ac6a:	f1b8 0300 	subs.w	r3, r8, #0
 800ac6e:	d027      	beq.n	800acc0 <__d2b+0x76>
 800ac70:	a802      	add	r0, sp, #8
 800ac72:	f840 3d08 	str.w	r3, [r0, #-8]!
 800ac76:	f7ff fe00 	bl	800a87a <__lo0bits>
 800ac7a:	9900      	ldr	r1, [sp, #0]
 800ac7c:	b1f0      	cbz	r0, 800acbc <__d2b+0x72>
 800ac7e:	9a01      	ldr	r2, [sp, #4]
 800ac80:	f1c0 0320 	rsb	r3, r0, #32
 800ac84:	fa02 f303 	lsl.w	r3, r2, r3
 800ac88:	430b      	orrs	r3, r1
 800ac8a:	40c2      	lsrs	r2, r0
 800ac8c:	617b      	str	r3, [r7, #20]
 800ac8e:	9201      	str	r2, [sp, #4]
 800ac90:	9b01      	ldr	r3, [sp, #4]
 800ac92:	61bb      	str	r3, [r7, #24]
 800ac94:	2b00      	cmp	r3, #0
 800ac96:	bf14      	ite	ne
 800ac98:	2102      	movne	r1, #2
 800ac9a:	2101      	moveq	r1, #1
 800ac9c:	6139      	str	r1, [r7, #16]
 800ac9e:	b1c4      	cbz	r4, 800acd2 <__d2b+0x88>
 800aca0:	f2a4 4433 	subw	r4, r4, #1075	; 0x433
 800aca4:	4404      	add	r4, r0
 800aca6:	6034      	str	r4, [r6, #0]
 800aca8:	f1c0 0035 	rsb	r0, r0, #53	; 0x35
 800acac:	6028      	str	r0, [r5, #0]
 800acae:	4638      	mov	r0, r7
 800acb0:	b003      	add	sp, #12
 800acb2:	e8bd 83f0 	ldmia.w	sp!, {r4, r5, r6, r7, r8, r9, pc}
 800acb6:	f443 1380 	orr.w	r3, r3, #1048576	; 0x100000
 800acba:	e7d5      	b.n	800ac68 <__d2b+0x1e>
 800acbc:	6179      	str	r1, [r7, #20]
 800acbe:	e7e7      	b.n	800ac90 <__d2b+0x46>
 800acc0:	a801      	add	r0, sp, #4
 800acc2:	f7ff fdda 	bl	800a87a <__lo0bits>
 800acc6:	9b01      	ldr	r3, [sp, #4]
 800acc8:	617b      	str	r3, [r7, #20]
 800acca:	2101      	movs	r1, #1
 800accc:	6139      	str	r1, [r7, #16]
 800acce:	3020      	adds	r0, #32
 800acd0:	e7e5      	b.n	800ac9e <__d2b+0x54>
 800acd2:	eb07 0381 	add.w	r3, r7, r1, lsl #2
 800acd6:	f2a0 4032 	subw	r0, r0, #1074	; 0x432
 800acda:	6030      	str	r0, [r6, #0]
 800acdc:	6918      	ldr	r0, [r3, #16]
 800acde:	f7ff fdad 	bl	800a83c <__hi0bits>
 800ace2:	ebc0 1041 	rsb	r0, r0, r1, lsl #5
 800ace6:	e7e1      	b.n	800acac <__d2b+0x62>

0800ace8 <_calloc_r>:
 800ace8:	b538      	push	{r3, r4, r5, lr}
 800acea:	fb02 f401 	mul.w	r4, r2, r1
 800acee:	4621      	mov	r1, r4
 800acf0:	f7fe f866 	bl	8008dc0 <_malloc_r>
 800acf4:	4605      	mov	r5, r0
 800acf6:	b118      	cbz	r0, 800ad00 <_calloc_r+0x18>
 800acf8:	4622      	mov	r2, r4
 800acfa:	2100      	movs	r1, #0
 800acfc:	f7fe f809 	bl	8008d12 <memset>
 800ad00:	4628      	mov	r0, r5
 800ad02:	bd38      	pop	{r3, r4, r5, pc}

0800ad04 <__ssputs_r>:
 800ad04:	e92d 47f0 	stmdb	sp!, {r4, r5, r6, r7, r8, r9, sl, lr}
 800ad08:	688e      	ldr	r6, [r1, #8]
 800ad0a:	429e      	cmp	r6, r3
 800ad0c:	4682      	mov	sl, r0
 800ad0e:	460c      	mov	r4, r1
 800ad10:	4690      	mov	r8, r2
 800ad12:	4699      	mov	r9, r3
 800ad14:	d837      	bhi.n	800ad86 <__ssputs_r+0x82>
 800ad16:	898a      	ldrh	r2, [r1, #12]
 800ad18:	f412 6f90 	tst.w	r2, #1152	; 0x480
 800ad1c:	d031      	beq.n	800ad82 <__ssputs_r+0x7e>
 800ad1e:	6825      	ldr	r5, [r4, #0]
 800ad20:	6909      	ldr	r1, [r1, #16]
 800ad22:	1a6f      	subs	r7, r5, r1
 800ad24:	6965      	ldr	r5, [r4, #20]
 800ad26:	2302      	movs	r3, #2
 800ad28:	eb05 0545 	add.w	r5, r5, r5, lsl #1
 800ad2c:	fb95 f5f3 	sdiv	r5, r5, r3
 800ad30:	f109 0301 	add.w	r3, r9, #1
 800ad34:	443b      	add	r3, r7
 800ad36:	429d      	cmp	r5, r3
 800ad38:	bf38      	it	cc
 800ad3a:	461d      	movcc	r5, r3
 800ad3c:	0553      	lsls	r3, r2, #21
 800ad3e:	d530      	bpl.n	800ada2 <__ssputs_r+0x9e>
 800ad40:	4629      	mov	r1, r5
 800ad42:	f7fe f83d 	bl	8008dc0 <_malloc_r>
 800ad46:	4606      	mov	r6, r0
 800ad48:	b950      	cbnz	r0, 800ad60 <__ssputs_r+0x5c>
 800ad4a:	230c      	movs	r3, #12
 800ad4c:	f8ca 3000 	str.w	r3, [sl]
 800ad50:	89a3      	ldrh	r3, [r4, #12]
 800ad52:	f043 0340 	orr.w	r3, r3, #64	; 0x40
 800ad56:	81a3      	strh	r3, [r4, #12]
 800ad58:	f04f 30ff 	mov.w	r0, #4294967295
 800ad5c:	e8bd 87f0 	ldmia.w	sp!, {r4, r5, r6, r7, r8, r9, sl, pc}
 800ad60:	463a      	mov	r2, r7
 800ad62:	6921      	ldr	r1, [r4, #16]
 800ad64:	f7fd ffca 	bl	8008cfc <memcpy>
 800ad68:	89a3      	ldrh	r3, [r4, #12]
 800ad6a:	f423 6390 	bic.w	r3, r3, #1152	; 0x480
 800ad6e:	f043 0380 	orr.w	r3, r3, #128	; 0x80
 800ad72:	81a3      	strh	r3, [r4, #12]
 800ad74:	6126      	str	r6, [r4, #16]
 800ad76:	6165      	str	r5, [r4, #20]
 800ad78:	443e      	add	r6, r7
 800ad7a:	1bed      	subs	r5, r5, r7
 800ad7c:	6026      	str	r6, [r4, #0]
 800ad7e:	60a5      	str	r5, [r4, #8]
 800ad80:	464e      	mov	r6, r9
 800ad82:	454e      	cmp	r6, r9
 800ad84:	d900      	bls.n	800ad88 <__ssputs_r+0x84>
 800ad86:	464e      	mov	r6, r9
 800ad88:	4632      	mov	r2, r6
 800ad8a:	4641      	mov	r1, r8
 800ad8c:	6820      	ldr	r0, [r4, #0]
 800ad8e:	f000 f918 	bl	800afc2 <memmove>
 800ad92:	68a3      	ldr	r3, [r4, #8]
 800ad94:	1b9b      	subs	r3, r3, r6
 800ad96:	60a3      	str	r3, [r4, #8]
 800ad98:	6823      	ldr	r3, [r4, #0]
 800ad9a:	441e      	add	r6, r3
 800ad9c:	6026      	str	r6, [r4, #0]
 800ad9e:	2000      	movs	r0, #0
 800ada0:	e7dc      	b.n	800ad5c <__ssputs_r+0x58>
 800ada2:	462a      	mov	r2, r5
 800ada4:	f000 f926 	bl	800aff4 <_realloc_r>
 800ada8:	4606      	mov	r6, r0
 800adaa:	2800      	cmp	r0, #0
 800adac:	d1e2      	bne.n	800ad74 <__ssputs_r+0x70>
 800adae:	6921      	ldr	r1, [r4, #16]
 800adb0:	4650      	mov	r0, sl
 800adb2:	f7fd ffb7 	bl	8008d24 <_free_r>
 800adb6:	e7c8      	b.n	800ad4a <__ssputs_r+0x46>

0800adb8 <_svfiprintf_r>:
 800adb8:	e92d 4ff0 	stmdb	sp!, {r4, r5, r6, r7, r8, r9, sl, fp, lr}
 800adbc:	461d      	mov	r5, r3
 800adbe:	898b      	ldrh	r3, [r1, #12]
 800adc0:	061f      	lsls	r7, r3, #24
 800adc2:	b09d      	sub	sp, #116	; 0x74
 800adc4:	4680      	mov	r8, r0
 800adc6:	460c      	mov	r4, r1
 800adc8:	4616      	mov	r6, r2
 800adca:	d50f      	bpl.n	800adec <_svfiprintf_r+0x34>
 800adcc:	690b      	ldr	r3, [r1, #16]
 800adce:	b96b      	cbnz	r3, 800adec <_svfiprintf_r+0x34>
 800add0:	2140      	movs	r1, #64	; 0x40
 800add2:	f7fd fff5 	bl	8008dc0 <_malloc_r>
 800add6:	6020      	str	r0, [r4, #0]
 800add8:	6120      	str	r0, [r4, #16]
 800adda:	b928      	cbnz	r0, 800ade8 <_svfiprintf_r+0x30>
 800addc:	230c      	movs	r3, #12
 800adde:	f8c8 3000 	str.w	r3, [r8]
 800ade2:	f04f 30ff 	mov.w	r0, #4294967295
 800ade6:	e0c8      	b.n	800af7a <_svfiprintf_r+0x1c2>
 800ade8:	2340      	movs	r3, #64	; 0x40
 800adea:	6163      	str	r3, [r4, #20]
 800adec:	2300      	movs	r3, #0
 800adee:	9309      	str	r3, [sp, #36]	; 0x24
 800adf0:	2320      	movs	r3, #32
 800adf2:	f88d 3029 	strb.w	r3, [sp, #41]	; 0x29
 800adf6:	2330      	movs	r3, #48	; 0x30
 800adf8:	f88d 302a 	strb.w	r3, [sp, #42]	; 0x2a
 800adfc:	9503      	str	r5, [sp, #12]
 800adfe:	f04f 0b01 	mov.w	fp, #1
 800ae02:	4637      	mov	r7, r6
 800ae04:	463d      	mov	r5, r7
 800ae06:	f815 3b01 	ldrb.w	r3, [r5], #1
 800ae0a:	b10b      	cbz	r3, 800ae10 <_svfiprintf_r+0x58>
 800ae0c:	2b25      	cmp	r3, #37	; 0x25
 800ae0e:	d13e      	bne.n	800ae8e <_svfiprintf_r+0xd6>
 800ae10:	ebb7 0a06 	subs.w	sl, r7, r6
 800ae14:	d00b      	beq.n	800ae2e <_svfiprintf_r+0x76>
 800ae16:	4653      	mov	r3, sl
 800ae18:	4632      	mov	r2, r6
 800ae1a:	4621      	mov	r1, r4
 800ae1c:	4640      	mov	r0, r8
 800ae1e:	f7ff ff71 	bl	800ad04 <__ssputs_r>
 800ae22:	3001      	adds	r0, #1
 800ae24:	f000 80a4 	beq.w	800af70 <_svfiprintf_r+0x1b8>
 800ae28:	9b09      	ldr	r3, [sp, #36]	; 0x24
 800ae2a:	4453      	add	r3, sl
 800ae2c:	9309      	str	r3, [sp, #36]	; 0x24
 800ae2e:	783b      	ldrb	r3, [r7, #0]
 800ae30:	2b00      	cmp	r3, #0
 800ae32:	f000 809d 	beq.w	800af70 <_svfiprintf_r+0x1b8>
 800ae36:	2300      	movs	r3, #0
 800ae38:	f04f 32ff 	mov.w	r2, #4294967295
 800ae3c:	e9cd 2305 	strd	r2, r3, [sp, #20]
 800ae40:	9304      	str	r3, [sp, #16]
 800ae42:	9307      	str	r3, [sp, #28]
 800ae44:	f88d 3053 	strb.w	r3, [sp, #83]	; 0x53
 800ae48:	931a      	str	r3, [sp, #104]	; 0x68
 800ae4a:	462f      	mov	r7, r5
 800ae4c:	2205      	movs	r2, #5
 800ae4e:	f817 1b01 	ldrb.w	r1, [r7], #1
 800ae52:	4850      	ldr	r0, [pc, #320]	; (800af94 <_svfiprintf_r+0x1dc>)
 800ae54:	f7f5 f9cc 	bl	80001f0 <memchr>
 800ae58:	9b04      	ldr	r3, [sp, #16]
 800ae5a:	b9d0      	cbnz	r0, 800ae92 <_svfiprintf_r+0xda>
 800ae5c:	06d9      	lsls	r1, r3, #27
 800ae5e:	bf44      	itt	mi
 800ae60:	2220      	movmi	r2, #32
 800ae62:	f88d 2053 	strbmi.w	r2, [sp, #83]	; 0x53
 800ae66:	071a      	lsls	r2, r3, #28
 800ae68:	bf44      	itt	mi
 800ae6a:	222b      	movmi	r2, #43	; 0x2b
 800ae6c:	f88d 2053 	strbmi.w	r2, [sp, #83]	; 0x53
 800ae70:	782a      	ldrb	r2, [r5, #0]
 800ae72:	2a2a      	cmp	r2, #42	; 0x2a
 800ae74:	d015      	beq.n	800aea2 <_svfiprintf_r+0xea>
 800ae76:	9a07      	ldr	r2, [sp, #28]
 800ae78:	462f      	mov	r7, r5
 800ae7a:	2000      	movs	r0, #0
 800ae7c:	250a      	movs	r5, #10
 800ae7e:	4639      	mov	r1, r7
 800ae80:	f811 3b01 	ldrb.w	r3, [r1], #1
 800ae84:	3b30      	subs	r3, #48	; 0x30
 800ae86:	2b09      	cmp	r3, #9
 800ae88:	d94d      	bls.n	800af26 <_svfiprintf_r+0x16e>
 800ae8a:	b1b8      	cbz	r0, 800aebc <_svfiprintf_r+0x104>
 800ae8c:	e00f      	b.n	800aeae <_svfiprintf_r+0xf6>
 800ae8e:	462f      	mov	r7, r5
 800ae90:	e7b8      	b.n	800ae04 <_svfiprintf_r+0x4c>
 800ae92:	4a40      	ldr	r2, [pc, #256]	; (800af94 <_svfiprintf_r+0x1dc>)
 800ae94:	1a80      	subs	r0, r0, r2
 800ae96:	fa0b f000 	lsl.w	r0, fp, r0
 800ae9a:	4318      	orrs	r0, r3
 800ae9c:	9004      	str	r0, [sp, #16]
 800ae9e:	463d      	mov	r5, r7
 800aea0:	e7d3      	b.n	800ae4a <_svfiprintf_r+0x92>
 800aea2:	9a03      	ldr	r2, [sp, #12]
 800aea4:	1d11      	adds	r1, r2, #4
 800aea6:	6812      	ldr	r2, [r2, #0]
 800aea8:	9103      	str	r1, [sp, #12]
 800aeaa:	2a00      	cmp	r2, #0
 800aeac:	db01      	blt.n	800aeb2 <_svfiprintf_r+0xfa>
 800aeae:	9207      	str	r2, [sp, #28]
 800aeb0:	e004      	b.n	800aebc <_svfiprintf_r+0x104>
 800aeb2:	4252      	negs	r2, r2
 800aeb4:	f043 0302 	orr.w	r3, r3, #2
 800aeb8:	9207      	str	r2, [sp, #28]
 800aeba:	9304      	str	r3, [sp, #16]
 800aebc:	783b      	ldrb	r3, [r7, #0]
 800aebe:	2b2e      	cmp	r3, #46	; 0x2e
 800aec0:	d10c      	bne.n	800aedc <_svfiprintf_r+0x124>
 800aec2:	787b      	ldrb	r3, [r7, #1]
 800aec4:	2b2a      	cmp	r3, #42	; 0x2a
 800aec6:	d133      	bne.n	800af30 <_svfiprintf_r+0x178>
 800aec8:	9b03      	ldr	r3, [sp, #12]
 800aeca:	1d1a      	adds	r2, r3, #4
 800aecc:	681b      	ldr	r3, [r3, #0]
 800aece:	9203      	str	r2, [sp, #12]
 800aed0:	2b00      	cmp	r3, #0
 800aed2:	bfb8      	it	lt
 800aed4:	f04f 33ff 	movlt.w	r3, #4294967295
 800aed8:	3702      	adds	r7, #2
 800aeda:	9305      	str	r3, [sp, #20]
 800aedc:	4d2e      	ldr	r5, [pc, #184]	; (800af98 <_svfiprintf_r+0x1e0>)
 800aede:	7839      	ldrb	r1, [r7, #0]
 800aee0:	2203      	movs	r2, #3
 800aee2:	4628      	mov	r0, r5
 800aee4:	f7f5 f984 	bl	80001f0 <memchr>
 800aee8:	b138      	cbz	r0, 800aefa <_svfiprintf_r+0x142>
 800aeea:	2340      	movs	r3, #64	; 0x40
 800aeec:	1b40      	subs	r0, r0, r5
 800aeee:	fa03 f000 	lsl.w	r0, r3, r0
 800aef2:	9b04      	ldr	r3, [sp, #16]
 800aef4:	4303      	orrs	r3, r0
 800aef6:	3701      	adds	r7, #1
 800aef8:	9304      	str	r3, [sp, #16]
 800aefa:	7839      	ldrb	r1, [r7, #0]
 800aefc:	4827      	ldr	r0, [pc, #156]	; (800af9c <_svfiprintf_r+0x1e4>)
 800aefe:	f88d 1028 	strb.w	r1, [sp, #40]	; 0x28
 800af02:	2206      	movs	r2, #6
 800af04:	1c7e      	adds	r6, r7, #1
 800af06:	f7f5 f973 	bl	80001f0 <memchr>
 800af0a:	2800      	cmp	r0, #0
 800af0c:	d038      	beq.n	800af80 <_svfiprintf_r+0x1c8>
 800af0e:	4b24      	ldr	r3, [pc, #144]	; (800afa0 <_svfiprintf_r+0x1e8>)
 800af10:	bb13      	cbnz	r3, 800af58 <_svfiprintf_r+0x1a0>
 800af12:	9b03      	ldr	r3, [sp, #12]
 800af14:	3307      	adds	r3, #7
 800af16:	f023 0307 	bic.w	r3, r3, #7
 800af1a:	3308      	adds	r3, #8
 800af1c:	9303      	str	r3, [sp, #12]
 800af1e:	9b09      	ldr	r3, [sp, #36]	; 0x24
 800af20:	444b      	add	r3, r9
 800af22:	9309      	str	r3, [sp, #36]	; 0x24
 800af24:	e76d      	b.n	800ae02 <_svfiprintf_r+0x4a>
 800af26:	fb05 3202 	mla	r2, r5, r2, r3
 800af2a:	2001      	movs	r0, #1
 800af2c:	460f      	mov	r7, r1
 800af2e:	e7a6      	b.n	800ae7e <_svfiprintf_r+0xc6>
 800af30:	2300      	movs	r3, #0
 800af32:	3701      	adds	r7, #1
 800af34:	9305      	str	r3, [sp, #20]
 800af36:	4619      	mov	r1, r3
 800af38:	250a      	movs	r5, #10
 800af3a:	4638      	mov	r0, r7
 800af3c:	f810 2b01 	ldrb.w	r2, [r0], #1
 800af40:	3a30      	subs	r2, #48	; 0x30
 800af42:	2a09      	cmp	r2, #9
 800af44:	d903      	bls.n	800af4e <_svfiprintf_r+0x196>
 800af46:	2b00      	cmp	r3, #0
 800af48:	d0c8      	beq.n	800aedc <_svfiprintf_r+0x124>
 800af4a:	9105      	str	r1, [sp, #20]
 800af4c:	e7c6      	b.n	800aedc <_svfiprintf_r+0x124>
 800af4e:	fb05 2101 	mla	r1, r5, r1, r2
 800af52:	2301      	movs	r3, #1
 800af54:	4607      	mov	r7, r0
 800af56:	e7f0      	b.n	800af3a <_svfiprintf_r+0x182>
 800af58:	ab03      	add	r3, sp, #12
 800af5a:	9300      	str	r3, [sp, #0]
 800af5c:	4622      	mov	r2, r4
 800af5e:	4b11      	ldr	r3, [pc, #68]	; (800afa4 <_svfiprintf_r+0x1ec>)
 800af60:	a904      	add	r1, sp, #16
 800af62:	4640      	mov	r0, r8
 800af64:	f7fe f81a 	bl	8008f9c <_printf_float>
 800af68:	f1b0 3fff 	cmp.w	r0, #4294967295
 800af6c:	4681      	mov	r9, r0
 800af6e:	d1d6      	bne.n	800af1e <_svfiprintf_r+0x166>
 800af70:	89a3      	ldrh	r3, [r4, #12]
 800af72:	065b      	lsls	r3, r3, #25
 800af74:	f53f af35 	bmi.w	800ade2 <_svfiprintf_r+0x2a>
 800af78:	9809      	ldr	r0, [sp, #36]	; 0x24
 800af7a:	b01d      	add	sp, #116	; 0x74
 800af7c:	e8bd 8ff0 	ldmia.w	sp!, {r4, r5, r6, r7, r8, r9, sl, fp, pc}
 800af80:	ab03      	add	r3, sp, #12
 800af82:	9300      	str	r3, [sp, #0]
 800af84:	4622      	mov	r2, r4
 800af86:	4b07      	ldr	r3, [pc, #28]	; (800afa4 <_svfiprintf_r+0x1ec>)
 800af88:	a904      	add	r1, sp, #16
 800af8a:	4640      	mov	r0, r8
 800af8c:	f7fe fabc 	bl	8009508 <_printf_i>
 800af90:	e7ea      	b.n	800af68 <_svfiprintf_r+0x1b0>
 800af92:	bf00      	nop
 800af94:	0800bafc 	.word	0x0800bafc
 800af98:	0800bb02 	.word	0x0800bb02
 800af9c:	0800bb06 	.word	0x0800bb06
 800afa0:	08008f9d 	.word	0x08008f9d
 800afa4:	0800ad05 	.word	0x0800ad05

0800afa8 <__ascii_wctomb>:
 800afa8:	b149      	cbz	r1, 800afbe <__ascii_wctomb+0x16>
 800afaa:	2aff      	cmp	r2, #255	; 0xff
 800afac:	bf85      	ittet	hi
 800afae:	238a      	movhi	r3, #138	; 0x8a
 800afb0:	6003      	strhi	r3, [r0, #0]
 800afb2:	700a      	strbls	r2, [r1, #0]
 800afb4:	f04f 30ff 	movhi.w	r0, #4294967295
 800afb8:	bf98      	it	ls
 800afba:	2001      	movls	r0, #1
 800afbc:	4770      	bx	lr
 800afbe:	4608      	mov	r0, r1
 800afc0:	4770      	bx	lr

0800afc2 <memmove>:
 800afc2:	4288      	cmp	r0, r1
 800afc4:	b510      	push	{r4, lr}
 800afc6:	eb01 0302 	add.w	r3, r1, r2
 800afca:	d807      	bhi.n	800afdc <memmove+0x1a>
 800afcc:	1e42      	subs	r2, r0, #1
 800afce:	4299      	cmp	r1, r3
 800afd0:	d00a      	beq.n	800afe8 <memmove+0x26>
 800afd2:	f811 4b01 	ldrb.w	r4, [r1], #1
 800afd6:	f802 4f01 	strb.w	r4, [r2, #1]!
 800afda:	e7f8      	b.n	800afce <memmove+0xc>
 800afdc:	4283      	cmp	r3, r0
 800afde:	d9f5      	bls.n	800afcc <memmove+0xa>
 800afe0:	1881      	adds	r1, r0, r2
 800afe2:	1ad2      	subs	r2, r2, r3
 800afe4:	42d3      	cmn	r3, r2
 800afe6:	d100      	bne.n	800afea <memmove+0x28>
 800afe8:	bd10      	pop	{r4, pc}
 800afea:	f813 4d01 	ldrb.w	r4, [r3, #-1]!
 800afee:	f801 4d01 	strb.w	r4, [r1, #-1]!
 800aff2:	e7f7      	b.n	800afe4 <memmove+0x22>

0800aff4 <_realloc_r>:
 800aff4:	b5f8      	push	{r3, r4, r5, r6, r7, lr}
 800aff6:	4607      	mov	r7, r0
 800aff8:	4614      	mov	r4, r2
 800affa:	460e      	mov	r6, r1
 800affc:	b921      	cbnz	r1, 800b008 <_realloc_r+0x14>
 800affe:	4611      	mov	r1, r2
 800b000:	e8bd 40f8 	ldmia.w	sp!, {r3, r4, r5, r6, r7, lr}
 800b004:	f7fd bedc 	b.w	8008dc0 <_malloc_r>
 800b008:	b922      	cbnz	r2, 800b014 <_realloc_r+0x20>
 800b00a:	f7fd fe8b 	bl	8008d24 <_free_r>
 800b00e:	4625      	mov	r5, r4
 800b010:	4628      	mov	r0, r5
 800b012:	bdf8      	pop	{r3, r4, r5, r6, r7, pc}
 800b014:	f000 f814 	bl	800b040 <_malloc_usable_size_r>
 800b018:	42a0      	cmp	r0, r4
 800b01a:	d20f      	bcs.n	800b03c <_realloc_r+0x48>
 800b01c:	4621      	mov	r1, r4
 800b01e:	4638      	mov	r0, r7
 800b020:	f7fd fece 	bl	8008dc0 <_malloc_r>
 800b024:	4605      	mov	r5, r0
 800b026:	2800      	cmp	r0, #0
 800b028:	d0f2      	beq.n	800b010 <_realloc_r+0x1c>
 800b02a:	4631      	mov	r1, r6
 800b02c:	4622      	mov	r2, r4
 800b02e:	f7fd fe65 	bl	8008cfc <memcpy>
 800b032:	4631      	mov	r1, r6
 800b034:	4638      	mov	r0, r7
 800b036:	f7fd fe75 	bl	8008d24 <_free_r>
 800b03a:	e7e9      	b.n	800b010 <_realloc_r+0x1c>
 800b03c:	4635      	mov	r5, r6
 800b03e:	e7e7      	b.n	800b010 <_realloc_r+0x1c>

0800b040 <_malloc_usable_size_r>:
 800b040:	f851 3c04 	ldr.w	r3, [r1, #-4]
 800b044:	1f18      	subs	r0, r3, #4
 800b046:	2b00      	cmp	r3, #0
 800b048:	bfbc      	itt	lt
 800b04a:	580b      	ldrlt	r3, [r1, r0]
 800b04c:	18c0      	addlt	r0, r0, r3
 800b04e:	4770      	bx	lr

0800b050 <_init>:
 800b050:	b5f8      	push	{r3, r4, r5, r6, r7, lr}
 800b052:	bf00      	nop
 800b054:	bcf8      	pop	{r3, r4, r5, r6, r7}
 800b056:	bc08      	pop	{r3}
 800b058:	469e      	mov	lr, r3
 800b05a:	4770      	bx	lr

0800b05c <_fini>:
 800b05c:	b5f8      	push	{r3, r4, r5, r6, r7, lr}
 800b05e:	bf00      	nop
 800b060:	bcf8      	pop	{r3, r4, r5, r6, r7}
 800b062:	bc08      	pop	{r3}
 800b064:	469e      	mov	lr, r3
 800b066:	4770      	bx	lr
